TN:
SF:/home/runner/work/neml2/neml2/src/neml2/base/CrossRef.cxx
FN:33,45,_ZNK5neml28CrossRefIN2at6TensorEEcvS2_Ev
FN:48,60,_ZNK5neml28CrossRefINS_6TensorEEcvS1_Ev
FN:76,76,_ZNK5neml28CrossRefINS_10QuaternionEEcvS1_Ev
FN:76,76,_ZNK5neml28CrossRefINS_11MillerIndexEEcvS1_Ev
FN:76,76,_ZNK5neml28CrossRefINS_2R2EEcvS1_Ev
FN:76,76,_ZNK5neml28CrossRefINS_2R3EEcvS1_Ev
FN:76,76,_ZNK5neml28CrossRefINS_2R4EEcvS1_Ev
FN:76,76,_ZNK5neml28CrossRefINS_2R5EEcvS1_Ev
FN:76,76,_ZNK5neml28CrossRefINS_2R8EEcvS1_Ev
FN:76,76,_ZNK5neml28CrossRefINS_3RotEEcvS1_Ev
FN:76,76,_ZNK5neml28CrossRefINS_3SR2EEcvS1_Ev
FN:76,76,_ZNK5neml28CrossRefINS_3VecEEcvS1_Ev
FN:76,76,_ZNK5neml28CrossRefINS_3WR2EEcvS1_Ev
FN:76,76,_ZNK5neml28CrossRefINS_4SFR3EEcvS1_Ev
FN:76,76,_ZNK5neml28CrossRefINS_4SSR4EEcvS1_Ev
FN:76,76,_ZNK5neml28CrossRefINS_4SWR4EEcvS1_Ev
FN:76,76,_ZNK5neml28CrossRefINS_4WSR4EEcvS1_Ev
FN:76,76,_ZNK5neml28CrossRefINS_4WWR4EEcvS1_Ev
FN:76,76,_ZNK5neml28CrossRefINS_5SFFR4EEcvS1_Ev
FN:76,76,_ZNK5neml28CrossRefINS_5SSFR5EEcvS1_Ev
FN:76,76,_ZNK5neml28CrossRefINS_6SSSSR8EEcvS1_Ev
FN:76,76,_ZNK5neml28CrossRefINS_6ScalarEEcvS1_Ev
FNDA:11,_ZNK5neml28CrossRefIN2at6TensorEEcvS2_Ev
FNDA:24,_ZNK5neml28CrossRefINS_6TensorEEcvS1_Ev
FNDA:0,_ZNK5neml28CrossRefINS_10QuaternionEEcvS1_Ev
FNDA:140,_ZNK5neml28CrossRefINS_11MillerIndexEEcvS1_Ev
FNDA:26,_ZNK5neml28CrossRefINS_2R2EEcvS1_Ev
FNDA:4,_ZNK5neml28CrossRefINS_2R3EEcvS1_Ev
FNDA:4,_ZNK5neml28CrossRefINS_2R4EEcvS1_Ev
FNDA:4,_ZNK5neml28CrossRefINS_2R5EEcvS1_Ev
FNDA:0,_ZNK5neml28CrossRefINS_2R8EEcvS1_Ev
FNDA:20,_ZNK5neml28CrossRefINS_3RotEEcvS1_Ev
FNDA:130,_ZNK5neml28CrossRefINS_3SR2EEcvS1_Ev
FNDA:26,_ZNK5neml28CrossRefINS_3VecEEcvS1_Ev
FNDA:9,_ZNK5neml28CrossRefINS_3WR2EEcvS1_Ev
FNDA:4,_ZNK5neml28CrossRefINS_4SFR3EEcvS1_Ev
FNDA:14,_ZNK5neml28CrossRefINS_4SSR4EEcvS1_Ev
FNDA:0,_ZNK5neml28CrossRefINS_4SWR4EEcvS1_Ev
FNDA:0,_ZNK5neml28CrossRefINS_4WSR4EEcvS1_Ev
FNDA:0,_ZNK5neml28CrossRefINS_4WWR4EEcvS1_Ev
FNDA:0,_ZNK5neml28CrossRefINS_5SFFR4EEcvS1_Ev
FNDA:4,_ZNK5neml28CrossRefINS_5SSFR5EEcvS1_Ev
FNDA:0,_ZNK5neml28CrossRefINS_6SSSSR8EEcvS1_Ev
FNDA:1242,_ZNK5neml28CrossRefINS_6ScalarEEcvS1_Ev
FNF:22
FNH:15
DA:33,11
DA:38,11
DA:40,10
DA:43,30
DA:44,10
DA:48,24
DA:53,24
DA:55,13
DA:58,39
DA:59,13
DA:76,2886
LF:11
LH:11
end_of_record
TN:
SF:/home/runner/work/neml2/neml2/src/neml2/base/DiagnosticsInterface.cxx
FN:104,113,_ZNK5neml220DiagnosticsInterface32diagnostic_check_output_variableERSt6vectorINS_9DiagnosisESaIS2_EERKNS_12VariableBaseE
FN:31,43,_ZN5neml28diagnoseERKNS_20DiagnosticsInterfaceE
FN:45,48,_ZN5neml220DiagnosticsInterfaceC2EPNS_11NEML2ObjectE
FN:51,56,_ZNK5neml220DiagnosticsInterface23diagnostic_assert_stateERSt6vectorINS_9DiagnosisESaIS2_EERKNS_12VariableBaseE
FN:59,64,_ZNK5neml220DiagnosticsInterface27diagnostic_assert_old_stateERSt6vectorINS_9DiagnosisESaIS2_EERKNS_12VariableBaseE
FN:67,72,_ZNK5neml220DiagnosticsInterface23diagnostic_assert_forceERSt6vectorINS_9DiagnosisESaIS2_EERKNS_12VariableBaseE
FN:75,80,_ZNK5neml220DiagnosticsInterface27diagnostic_assert_old_forceERSt6vectorINS_9DiagnosisESaIS2_EERKNS_12VariableBaseE
FN:83,88,_ZNK5neml220DiagnosticsInterface26diagnostic_assert_residualERSt6vectorINS_9DiagnosisESaIS2_EERKNS_12VariableBaseE
FN:91,101,_ZNK5neml220DiagnosticsInterface31diagnostic_check_input_variableERSt6vectorINS_9DiagnosisESaIS2_EERKNS_12VariableBaseE
FNDA:118,_ZNK5neml220DiagnosticsInterface32diagnostic_check_output_variableERSt6vectorINS_9DiagnosisESaIS2_EERKNS_12VariableBaseE
FNDA:116,_ZN5neml28diagnoseERKNS_20DiagnosticsInterfaceE
FNDA:458,_ZN5neml220DiagnosticsInterfaceC2EPNS_11NEML2ObjectE
FNDA:28,_ZNK5neml220DiagnosticsInterface23diagnostic_assert_stateERSt6vectorINS_9DiagnosisESaIS2_EERKNS_12VariableBaseE
FNDA:0,_ZNK5neml220DiagnosticsInterface27diagnostic_assert_old_stateERSt6vectorINS_9DiagnosisESaIS2_EERKNS_12VariableBaseE
FNDA:20,_ZNK5neml220DiagnosticsInterface23diagnostic_assert_forceERSt6vectorINS_9DiagnosisESaIS2_EERKNS_12VariableBaseE
FNDA:0,_ZNK5neml220DiagnosticsInterface27diagnostic_assert_old_forceERSt6vectorINS_9DiagnosisESaIS2_EERKNS_12VariableBaseE
FNDA:0,_ZNK5neml220DiagnosticsInterface26diagnostic_assert_residualERSt6vectorINS_9DiagnosisESaIS2_EERKNS_12VariableBaseE
FNDA:300,_ZNK5neml220DiagnosticsInterface31diagnostic_check_input_variableERSt6vectorINS_9DiagnosisESaIS2_EERKNS_12VariableBaseE
FNF:9
FNH:6
DA:31,116
DA:33,116
DA:34,116
DA:36,116
DA:38,4
DA:39,12
DA:40,8
DA:41,4
DA:42,4
DA:43,116
DA:45,458
DA:46,458
DA:48,458
DA:51,28
DA:54,28
DA:55,28
DA:56,28
DA:59,0
DA:62,0
DA:63,0
DA:64,0
DA:67,20
DA:70,20
DA:71,20
DA:72,20
DA:75,0
DA:78,0
DA:79,0
DA:80,0
DA:83,0
DA:86,0
DA:87,0
DA:88,0
DA:91,300
DA:94,300
DA:95,467
DA:96,467
DA:98,300
DA:101,300
DA:104,118
DA:107,118
DA:109,118
DA:111,118
DA:113,118
LF:44
LH:32
end_of_record
TN:
SF:/home/runner/work/neml2/neml2/src/neml2/base/EnumSelection.cxx
FN:106,112,_ZN5neml213EnumSelectionaSERKS0_
FN:115,118,_ZNK5neml213EnumSelectioneqERKS0_
FN:121,124,_ZNK5neml213EnumSelectionneERKS0_
FN:127,130,_ZNK5neml213EnumSelectioneqERKSs
FN:133,136,_ZNK5neml213EnumSelectionneERKSs
FN:139,145,_ZNK5neml213EnumSelection14candidates_strEv
FN:31,35,_ZN5neml2lsERSoRKNS_13EnumSelectionE
FN:38,50,_ZN5neml2rsERSt18basic_stringstreamIcSt11char_traitsIcESaIcEERNS_13EnumSelectionE
FN:52,57,_ZN5neml213EnumSelectionC2ERKS0_
FN:59,77,_ZN5neml213EnumSelectionC2ERKSt6vectorISsSaISsEERKSs
FN:79,103,_ZN5neml213EnumSelectionC2ERKSt6vectorISsSaISsEERKS1_IiSaIiEERKSs
FNDA:2667,_ZN5neml213EnumSelectionaSERKS0_
FNDA:7,_ZNK5neml213EnumSelectioneqERKS0_
FNDA:5,_ZNK5neml213EnumSelectionneERKS0_
FNDA:178,_ZNK5neml213EnumSelectioneqERKSs
FNDA:0,_ZNK5neml213EnumSelectionneERKSs
FNDA:2394,_ZNK5neml213EnumSelection14candidates_strEv
FNDA:25,_ZN5neml2lsERSoRKNS_13EnumSelectionE
FNDA:49,_ZN5neml2rsERSt18basic_stringstreamIcSt11char_traitsIcESaIcEERNS_13EnumSelectionE
FNDA:15,_ZN5neml213EnumSelectionC2ERKS0_
FNDA:28,_ZN5neml213EnumSelectionC2ERKSt6vectorISsSaISsEERKSs
FNDA:1170,_ZN5neml213EnumSelectionC2ERKSt6vectorISsSaISsEERKS1_IiSaIiEERKSs
FNF:11
FNH:10
DA:31,25
DA:33,25
DA:34,25
DA:38,49
DA:40,49
DA:42,49
DA:43,2
DA:44,3
DA:47,48
DA:49,48
DA:52,15
DA:53,15
DA:54,15
DA:55,15
DA:57,15
DA:59,28
DA:60,28
DA:61,28
DA:63,28
DA:64,28
DA:67,27
DA:68,96
DA:69,69
DA:71,27
DA:73,55
DA:76,26
DA:77,32
DA:79,1170
DA:81,1170
DA:82,1170
DA:84,1170
DA:87,1169
DA:88,1169
DA:91,1169
DA:92,1169
DA:94,5259
DA:95,4091
DA:97,1168
DA:99,2337
DA:102,1167
DA:103,1177
DA:106,2667
DA:108,2667
DA:109,2667
DA:110,2667
DA:111,2667
DA:115,7
DA:117,7
DA:121,5
DA:123,5
DA:127,178
DA:129,178
DA:133,0
DA:135,0
DA:139,2394
DA:141,2394
DA:142,10738
DA:143,8344
DA:144,4788
DA:145,2394
LF:60
LH:58
end_of_record
TN:
SF:/home/runner/work/neml2/neml2/src/neml2/base/Factory.cxx
FN:104,108,_ZN5neml27Factory14loaded_optionsEv
FN:111,129,_ZN5neml27Factory13create_objectERKSsRKNS_9OptionSetE
FN:146,149,_ZN5neml27Factory5clearEv
FN:35,49,_ZN5neml210load_inputERKNSt10filesystem4pathERKSs
FN:52,56,_ZN5neml212reload_inputERKNSt10filesystem4pathERKSs
FN:59,63,_ZN5neml29get_modelERKSsb
FN:66,70,_ZN5neml210load_modelERKNSt10filesystem4pathERKSs
FN:73,77,_ZN5neml212reload_modelERKNSt10filesystem4pathERKSs
FN:80,83,_ZN5neml210get_driverERKSs
FN:86,90,_ZN5neml27Factory3getEv
FN:93,101,_ZN5neml27Factory12load_optionsERKNS_16OptionCollectionE
FNDA:1,_ZN5neml27Factory14loaded_optionsEv
FNDA:1272,_ZN5neml27Factory13create_objectERKSsRKNS_9OptionSetE
FNDA:279,_ZN5neml27Factory5clearEv
FNDA:277,_ZN5neml210load_inputERKNSt10filesystem4pathERKSs
FNDA:266,_ZN5neml212reload_inputERKNSt10filesystem4pathERKSs
FNDA:123,_ZN5neml29get_modelERKSsb
FNDA:11,_ZN5neml210load_modelERKNSt10filesystem4pathERKSs
FNDA:11,_ZN5neml212reload_modelERKNSt10filesystem4pathERKSs
FNDA:112,_ZN5neml210get_driverERKSs
FNDA:1883,_ZN5neml27Factory3getEv
FNDA:277,_ZN5neml27Factory12load_optionsERKNS_16OptionCollectionE
FNF:11
FNH:11
DA:35,277
DA:37,277
DA:40,277
DA:42,277
DA:43,277
DA:44,277
DA:46,0
DA:48,275
DA:49,277
DA:52,266
DA:54,266
DA:55,266
DA:56,264
DA:59,123
DA:61,123
DA:62,369
DA:63,123
DA:66,11
DA:68,11
DA:69,11
DA:73,11
DA:75,11
DA:76,11
DA:80,112
DA:82,336
DA:86,1883
DA:88,1883
DA:89,1883
DA:93,277
DA:95,277
DA:97,277
DA:100,277
DA:101,277
DA:104,1
DA:106,1
DA:107,1
DA:111,1272
DA:113,1272
DA:114,1272
DA:116,1272
DA:117,1272
DA:118,1270
DA:122,1270
DA:124,0
DA:126,0
DA:127,0
DA:128,0
DA:129,1270
DA:146,279
DA:148,279
DA:149,279
LF:51
LH:46
end_of_record
TN:
SF:/home/runner/work/neml2/neml2/src/neml2/base/HITParser.cxx
FN:112,117,_ZNK5neml29HITParser15extract_optionsEPN3hit4NodeERNS_9OptionSetE
FN:121,170,_ZNK5neml29HITParser14extract_optionEPN3hit4NodeERNS_9OptionSetE
FN:38,92,_ZNK5neml29HITParser5parseERKNSt10filesystem4pathERKSs
FN:95,109,_ZNK5neml29HITParser22extract_object_optionsEPN3hit4NodeES3_
FNDA:2725,_ZNK5neml29HITParser15extract_optionsEPN3hit4NodeERNS_9OptionSetE
FNDA:5671,_ZNK5neml29HITParser14extract_optionEPN3hit4NodeERNS_9OptionSetE
FNDA:287,_ZNK5neml29HITParser5parseERKNSt10filesystem4pathERKSs
FNDA:2715,_ZNK5neml29HITParser22extract_object_optionsEPN3hit4NodeES3_
FNF:4
FNH:4
DA:38,287
DA:41,287
DA:42,287
DA:45,287
DA:46,287
DA:47,287
DA:50,287
DA:51,287
DA:54,287
DA:57,287
DA:58,287
DA:59,287
DA:62,287
DA:63,287
DA:64,287
DA:65,574
DA:66,287
DA:67,287
DA:69,287
DA:72,574
DA:73,287
DA:74,10
DA:77,1713
DA:79,1429
DA:80,1429
DA:82,533
DA:83,3245
DA:85,2715
DA:86,2712
DA:87,2712
DA:88,533
DA:91,568
DA:92,311
DA:95,2715
DA:98,5430
DA:100,2715
DA:101,2715
DA:104,2712
DA:105,2712
DA:106,2712
DA:108,5424
DA:109,2718
DA:112,2725
DA:114,11108
DA:115,8386
DA:116,8393
DA:117,2722
DA:121,5671
DA:134,5671
DA:136,5671
DA:137,35563
DA:138,35563
DA:140,5671
DA:142,5671
DA:145,5670
DA:149,5670
DA:150,4553
DA:151,4462
DA:152,4369
DA:153,4334
DA:154,3744
DA:155,2828
DA:156,1922
DA:157,1415
DA:158,1368
DA:159,1360
DA:164,5668
DA:166,5668
DA:168,5668
DA:170,5668
LF:70
LH:70
end_of_record
TN:
SF:/home/runner/work/neml2/neml2/src/neml2/base/NEML2Object.cxx
FN:29,35,_ZN5neml211NEML2Object16expected_optionsEv
FN:37,41,_ZN5neml211NEML2ObjectC2ERKNS_9OptionSetE
FNDA:1788,_ZN5neml211NEML2Object16expected_optionsEv
FNDA:1283,_ZN5neml211NEML2ObjectC2ERKNS_9OptionSetE
FNF:2
FNH:2
DA:29,1788
DA:31,1788
DA:32,3576
DA:33,1788
DA:34,1788
DA:35,0
DA:37,1283
DA:38,1283
DA:39,2566
DA:41,1283
LF:10
LH:9
end_of_record
TN:
SF:/home/runner/work/neml2/neml2/src/neml2/base/OptionCollection.cxx
FN:30,33,_ZN5neml216OptionCollectionixERKSs
FN:36,39,_ZNK5neml216OptionCollectionixERKSs
FNDA:4047,_ZN5neml216OptionCollectionixERKSs
FNDA:1,_ZNK5neml216OptionCollectionixERKSs
FNF:2
FNH:2
DA:30,4047
DA:32,4047
DA:36,1
DA:38,1
LF:4
LH:4
end_of_record
TN:
SF:/home/runner/work/neml2/neml2/src/neml2/base/OptionSet.cxx
FN:105,111,_ZN5neml29OptionSetaSEOS0_
FN:114,118,_ZN5neml29OptionSetpLERKS0_
FN:121,125,_ZN5neml29OptionSetpLEOS0_
FN:190,193,_ZN5neml29OptionSet5beginEv
FN:196,199,_ZNK5neml29OptionSet5beginEv
FN:202,205,_ZN5neml29OptionSet3endEv
FN:208,211,_ZNK5neml29OptionSet3endEv
FN:31,41,_ZN5neml218options_compatibleERKNS_9OptionSetES2_
FN:44,47,_ZNK5neml29OptionSet8containsERKSs
FN:50,59,_ZNK5neml29OptionSet3getERKSs
FN:62,71,_ZN5neml29OptionSet3setERKSs
FN:74,77,_ZN5neml29OptionSet9set_inputERKSs
FN:80,83,_ZN5neml29OptionSet10set_outputERKSs
FN:86,89,_ZN5neml29OptionSet5clearEv
FN:91,91,_ZN5neml29OptionSetC2ERKS0_
FN:93,93,_ZN5neml29OptionSetC2EOS0_
FN:96,102,_ZN5neml29OptionSetaSERKS0_
FNDA:275,_ZN5neml29OptionSetaSEOS0_
FNDA:15951,_ZN5neml29OptionSetpLERKS0_
FNDA:781,_ZN5neml29OptionSetpLEOS0_
FNDA:5671,_ZN5neml29OptionSet5beginEv
FNDA:1,_ZNK5neml29OptionSet5beginEv
FNDA:5671,_ZN5neml29OptionSet3endEv
FNDA:1,_ZNK5neml29OptionSet3endEv
FNDA:1,_ZN5neml218options_compatibleERKNS_9OptionSetES2_
FNDA:18332,_ZNK5neml29OptionSet8containsERKSs
FNDA:15,_ZNK5neml29OptionSet3getERKSs
FNDA:18311,_ZN5neml29OptionSet3setERKSs
FNDA:912,_ZN5neml29OptionSet9set_inputERKSs
FNDA:416,_ZN5neml29OptionSet10set_outputERKSs
FNDA:14679,_ZN5neml29OptionSet5clearEv
FNDA:9639,_ZN5neml29OptionSetC2ERKS0_
FNDA:0,_ZN5neml29OptionSetC2EOS0_
FNDA:14404,_ZN5neml29OptionSetaSERKS0_
FNF:17
FNH:16
DA:31,1
DA:33,2
DA:35,1
DA:36,0
DA:37,1
DA:38,0
DA:40,1
DA:44,18332
DA:46,18332
DA:50,15
DA:52,15
DA:58,15
DA:62,18311
DA:64,18311
DA:70,18311
DA:74,912
DA:76,912
DA:80,416
DA:82,416
DA:86,14679
DA:88,14679
DA:89,14679
DA:91,9639
DA:93,0
DA:96,14404
DA:98,14404
DA:99,14404
DA:100,14404
DA:101,14404
DA:105,275
DA:107,275
DA:108,275
DA:109,275
DA:110,275
DA:114,15951
DA:116,109004
DA:117,93053
DA:118,15951
DA:121,781
DA:123,3124
DA:124,2343
DA:125,781
DA:190,5671
DA:192,5671
DA:196,1
DA:198,1
DA:202,5671
DA:204,5671
DA:208,1
DA:210,1
LF:50
LH:47
end_of_record
TN:
SF:/home/runner/work/neml2/neml2/src/neml2/base/Registry.cxx
FN:31,35,_ZN5neml28Registry3getEv
FN:38,42,_ZN5neml28Registry16expected_optionsEv
FN:45,53,_ZN5neml28Registry16expected_optionsERKSs
FN:56,60,_ZN5neml28Registry11syntax_typeERKSs
FN:63,71,_ZN5neml28Registry7builderERKSs
FN:74,88,_ZN5neml28Registry9add_innerERKSsS2_RKNS_9OptionSetEPFSt10shared_ptrINS_11NEML2ObjectEES5_E
FNDA:6345,_ZN5neml28Registry3getEv
FNDA:2,_ZN5neml28Registry16expected_optionsEv
FNDA:2715,_ZN5neml28Registry16expected_optionsERKSs
FNDA:582,_ZN5neml28Registry11syntax_typeERKSs
FNDA:1272,_ZN5neml28Registry7builderERKSs
FNDA:1774,_ZN5neml28Registry9add_innerERKSsS2_RKNS_9OptionSetEPFSt10shared_ptrINS_11NEML2ObjectEES5_E
FNF:6
FNH:6
DA:31,6345
DA:33,6345
DA:34,6345
DA:38,2
DA:40,2
DA:41,2
DA:45,2715
DA:47,2715
DA:48,2715
DA:49,2715
DA:52,2715
DA:56,582
DA:58,582
DA:59,582
DA:63,1272
DA:65,1272
DA:66,1272
DA:67,1272
DA:70,1272
DA:74,1774
DA:79,1774
DA:80,1774
DA:85,1774
DA:86,1774
DA:87,1774
DA:88,1774
LF:26
LH:26
end_of_record
TN:
SF:/home/runner/work/neml2/neml2/src/neml2/base/Settings.cxx
FN:33,97,_ZN5neml28Settings16expected_optionsEv
FN:99,134,_ZN5neml28SettingsC2ERKNS_9OptionSetE
FNDA:569,_ZN5neml28Settings16expected_optionsEv
FNDA:278,_ZN5neml28SettingsC2ERKNS_9OptionSetE
FNF:2
FNH:2
DA:33,569
DA:35,569
DA:36,569
DA:37,569
DA:39,1138
DA:45,3414
DA:46,569
DA:47,1138
DA:48,1707
DA:55,3414
DA:56,569
DA:57,1138
DA:58,1707
DA:60,1138
DA:61,1707
DA:66,569
DA:68,1138
DA:69,1707
DA:70,569
DA:72,1138
DA:73,1138
DA:75,1138
DA:76,1138
DA:78,1138
DA:79,1707
DA:80,569
DA:82,1138
DA:83,1707
DA:84,569
DA:86,1138
DA:87,1707
DA:89,569
DA:91,1138
DA:92,1138
DA:94,569
DA:96,1138
DA:97,569
DA:99,278
DA:102,278
DA:103,278
DA:106,556
DA:109,556
DA:112,556
DA:115,556
DA:116,556
DA:119,278
DA:120,278
DA:121,0
DA:124,278
DA:125,278
DA:126,0
DA:129,556
DA:130,278
DA:133,278
DA:134,278
LF:55
LH:53
end_of_record
TN:
SF:/home/runner/work/neml2/neml2/src/neml2/drivers/Driver.cxx
FN:30,39,_ZN5neml26Driver16expected_optionsEv
FN:41,46,_ZN5neml26DriverC2ERKNS_9OptionSetE
FNDA:15,_ZN5neml26Driver16expected_optionsEv
FNDA:112,_ZN5neml26DriverC2ERKNS_9OptionSetE
FNF:2
FNH:2
DA:30,15
DA:32,15
DA:33,15
DA:35,30
DA:36,15
DA:38,15
DA:39,0
DA:41,112
DA:44,224
DA:46,112
LF:10
LH:9
end_of_record
TN:
SF:/home/runner/work/neml2/neml2/src/neml2/drivers/TransientDriver.cxx
FN:111,120,_ZNK5neml215TransientDriver8diagnoseERSt6vectorINS_9DiagnosisESaIS2_EE
FN:123,143,_ZN5neml215TransientDriver3runEv
FN:146,177,_ZN5neml215TransientDriver5solveEv
FN:180,197,_ZN5neml215TransientDriver12advance_stepEv
FN:200,204,_ZN5neml215TransientDriver13update_forcesEv
FN:207,217,_ZN5neml215TransientDriver8apply_icEv
FN:220,253,_ZN5neml215TransientDriver15apply_predictorEv
FN:256,259,_ZN5neml215TransientDriver10solve_stepEv
FN:262,265,_ZN5neml215TransientDriver11store_inputEv
FN:268,271,_ZNK5neml215TransientDriver12save_as_pathEv
FN:274,302,_ZNK5neml215TransientDriver6resultEv
FN:305,326,_ZNK5neml215TransientDriver6outputEv
FN:329,332,_ZNK5neml215TransientDriver9output_ptERKNSt10filesystem4pathE
FN:34,89,_ZN5neml215TransientDriver16expected_optionsEv
FN:91,108,_ZN5neml215TransientDriverC2ERKNS_9OptionSetE
FNDA:7,_ZNK5neml215TransientDriver8diagnoseERSt6vectorINS_9DiagnosisESaIS2_EE
FNDA:7,_ZN5neml215TransientDriver3runEv
FNDA:7,_ZN5neml215TransientDriver5solveEv
FNDA:63,_ZN5neml215TransientDriver12advance_stepEv
FNDA:70,_ZN5neml215TransientDriver13update_forcesEv
FNDA:7,_ZN5neml215TransientDriver8apply_icEv
FNDA:63,_ZN5neml215TransientDriver15apply_predictorEv
FNDA:63,_ZN5neml215TransientDriver10solve_stepEv
FNDA:70,_ZN5neml215TransientDriver11store_inputEv
FNDA:12,_ZNK5neml215TransientDriver12save_as_pathEv
FNDA:5,_ZNK5neml215TransientDriver6resultEv
FNDA:5,_ZNK5neml215TransientDriver6outputEv
FNDA:5,_ZNK5neml215TransientDriver9output_ptERKNSt10filesystem4pathE
FNDA:12,_ZN5neml215TransientDriver16expected_optionsEv
FNDA:7,_ZN5neml215TransientDriverC2ERKNS_9OptionSetE
FNF:15
FNH:15
DA:34,12
DA:36,12
DA:38,24
DA:39,12
DA:41,36
DA:42,24
DA:43,24
DA:44,36
DA:46,12
DA:48,48
DA:49,12
DA:50,24
DA:51,24
DA:52,36
DA:54,24
DA:55,36
DA:56,12
DA:58,24
DA:59,24
DA:60,24
DA:61,24
DA:62,24
DA:63,24
DA:65,24
DA:66,36
DA:71,12
DA:73,24
DA:74,24
DA:75,24
DA:76,24
DA:78,24
DA:79,24
DA:80,24
DA:81,24
DA:83,24
DA:84,24
DA:85,24
DA:86,12
DA:88,24
DA:89,12
DA:91,7
DA:93,7
DA:94,14
DA:95,21
DA:96,7
DA:97,7
DA:98,7
DA:99,14
DA:100,21
DA:101,14
DA:102,14
DA:103,7
DA:104,14
DA:105,28
DA:107,7
DA:108,7
DA:111,7
DA:113,7
DA:114,7
DA:115,14
DA:117,7
DA:119,7
DA:120,7
DA:123,7
DA:137,7
DA:139,7
DA:140,5
DA:142,7
DA:146,7
DA:148,77
DA:150,70
DA:155,70
DA:156,63
DA:157,70
DA:158,70
DA:160,7
DA:161,7
DA:165,63
DA:166,63
DA:167,63
DA:170,70
DA:176,7
DA:180,63
DA:183,63
DA:185,63
DA:186,180
DA:187,117
DA:188,63
DA:191,63
DA:193,63
DA:194,171
DA:195,108
DA:196,63
DA:197,63
DA:200,70
DA:202,70
DA:203,140
DA:204,140
DA:207,7
DA:209,28
DA:210,28
DA:211,21
DA:213,22
DA:214,15
DA:215,14
DA:216,29
DA:217,7
DA:220,63
DA:222,63
DA:223,27
DA:225,36
DA:226,117
DA:227,81
DA:229,162
DA:230,72
DA:231,18
DA:234,9
DA:235,1
DA:239,8
DA:240,8
DA:241,8
DA:242,8
DA:243,8
DA:245,8
DA:246,8
DA:247,8
DA:248,8
DA:251,0
DA:253,36
DA:256,63
DA:258,63
DA:259,63
DA:262,70
DA:264,70
DA:265,70
DA:268,12
DA:270,12
DA:274,5
DA:277,5
DA:278,55
DA:281,50
DA:282,414
DA:283,364
DA:284,50
DA:285,50
DA:288,5
DA:289,55
DA:292,50
DA:293,180
DA:294,130
DA:295,50
DA:296,50
DA:299,5
DA:300,25
DA:301,10
DA:302,10
DA:305,5
DA:307,5
DA:312,5
DA:313,5
DA:315,5
DA:316,5
DA:322,5
DA:326,5
DA:329,5
DA:331,5
DA:332,5
LF:167
LH:166
end_of_record
TN:
SF:/home/runner/work/neml2/neml2/src/neml2/drivers/solid_mechanics/LDISolidMechanicsDriver.cxx
FN:102,107,_ZN5neml223LDISolidMechanicsDriver22init_vorticity_controlERKNS_9OptionSetE
FN:110,139,_ZNK5neml223LDISolidMechanicsDriver8diagnoseERSt6vectorINS_9DiagnosisESaIS2_EE
FN:142,146,_ZN5neml223LDISolidMechanicsDriver13update_forcesEv
FN:149,160,_ZN5neml223LDISolidMechanicsDriver15apply_predictorEv
FN:32,67,_ZN5neml223LDISolidMechanicsDriver16expected_optionsEv
FN:69,76,_ZN5neml223LDISolidMechanicsDriverC2ERKNS_9OptionSetE
FN:79,83,_ZN5neml223LDISolidMechanicsDriver5setupEv
FN:86,91,_ZN5neml223LDISolidMechanicsDriver19init_strain_controlERKNS_9OptionSetE
FN:94,99,_ZN5neml223LDISolidMechanicsDriver19init_stress_controlERKNS_9OptionSetE
FNDA:1,_ZN5neml223LDISolidMechanicsDriver22init_vorticity_controlERKNS_9OptionSetE
FNDA:1,_ZNK5neml223LDISolidMechanicsDriver8diagnoseERSt6vectorINS_9DiagnosisESaIS2_EE
FNDA:10,_ZN5neml223LDISolidMechanicsDriver13update_forcesEv
FNDA:9,_ZN5neml223LDISolidMechanicsDriver15apply_predictorEv
FNDA:6,_ZN5neml223LDISolidMechanicsDriver16expected_optionsEv
FNDA:1,_ZN5neml223LDISolidMechanicsDriverC2ERKNS_9OptionSetE
FNDA:1,_ZN5neml223LDISolidMechanicsDriver5setupEv
FNDA:1,_ZN5neml223LDISolidMechanicsDriver19init_strain_controlERKNS_9OptionSetE
FNDA:0,_ZN5neml223LDISolidMechanicsDriver19init_stress_controlERKNS_9OptionSetE
FNF:9
FNH:8
DA:32,6
DA:34,6
DA:35,6
DA:36,6
DA:38,18
DA:39,12
DA:40,12
DA:41,12
DA:42,6
DA:44,18
DA:45,12
DA:46,12
DA:47,12
DA:48,6
DA:50,18
DA:51,12
DA:52,12
DA:53,12
DA:55,12
DA:56,18
DA:58,6
DA:59,12
DA:60,12
DA:61,6
DA:62,18
DA:63,12
DA:64,6
DA:66,6
DA:67,0
DA:69,1
DA:71,1
DA:72,2
DA:73,1
DA:74,4
DA:76,1
DA:79,1
DA:81,1
DA:82,1
DA:83,1
DA:86,1
DA:88,3
DA:89,1
DA:90,1
DA:91,1
DA:94,0
DA:96,0
DA:97,0
DA:98,0
DA:99,0
DA:102,1
DA:104,2
DA:105,1
DA:106,1
DA:107,1
DA:110,1
DA:112,1
DA:114,1
DA:116,2
DA:117,1
DA:120,1
DA:121,2
DA:123,1
DA:125,2
DA:129,1
DA:131,1
DA:132,1
DA:133,2
DA:134,1
DA:136,1
DA:139,1
DA:142,10
DA:144,10
DA:145,20
DA:146,20
DA:149,9
DA:151,9
DA:153,9
DA:155,1
DA:156,1
DA:157,1
DA:158,1
DA:159,1
DA:160,9
LF:83
LH:77
end_of_record
TN:
SF:/home/runner/work/neml2/neml2/src/neml2/drivers/solid_mechanics/SDTSolidMechanicsDriver.cxx
FN:32,49,_ZN5neml223SDTSolidMechanicsDriver16expected_optionsEv
FN:51,54,_ZN5neml223SDTSolidMechanicsDriverC2ERKNS_9OptionSetE
FN:57,62,_ZN5neml223SDTSolidMechanicsDriver19init_strain_controlERKNS_9OptionSetE
FN:65,70,_ZN5neml223SDTSolidMechanicsDriver19init_stress_controlERKNS_9OptionSetE
FNDA:6,_ZN5neml223SDTSolidMechanicsDriver16expected_optionsEv
FNDA:6,_ZN5neml223SDTSolidMechanicsDriverC2ERKNS_9OptionSetE
FNDA:4,_ZN5neml223SDTSolidMechanicsDriver19init_strain_controlERKNS_9OptionSetE
FNDA:1,_ZN5neml223SDTSolidMechanicsDriver19init_stress_controlERKNS_9OptionSetE
FNF:4
FNH:4
DA:32,6
DA:34,6
DA:35,6
DA:36,6
DA:38,18
DA:39,12
DA:40,12
DA:41,6
DA:43,18
DA:44,12
DA:45,12
DA:46,6
DA:48,6
DA:49,0
DA:51,6
DA:52,6
DA:54,6
DA:57,4
DA:59,8
DA:60,4
DA:61,4
DA:62,4
DA:65,1
DA:67,2
DA:68,1
DA:69,1
DA:70,1
LF:27
LH:26
end_of_record
TN:
SF:/home/runner/work/neml2/neml2/src/neml2/drivers/solid_mechanics/SolidMechanicsDriver.cxx
FN:105,110,_ZN5neml220SolidMechanicsDriver24init_temperature_controlERKNS_9OptionSetE
FN:113,164,_ZNK5neml220SolidMechanicsDriver8diagnoseERSt6vectorINS_9DiagnosisESaIS2_EE
FN:167,178,_ZN5neml220SolidMechanicsDriver13update_forcesEv
FN:30,63,_ZN5neml220SolidMechanicsDriver16expected_optionsEv
FN:65,70,_ZN5neml220SolidMechanicsDriverC2ERKNS_9OptionSetE
FN:73,90,_ZN5neml220SolidMechanicsDriver5setupEv
FN:93,102,_ZN5neml220SolidMechanicsDriver18init_mixed_controlERKNS_9OptionSetE
FNDA:1,_ZN5neml220SolidMechanicsDriver24init_temperature_controlERKNS_9OptionSetE
FNDA:7,_ZNK5neml220SolidMechanicsDriver8diagnoseERSt6vectorINS_9DiagnosisESaIS2_EE
FNDA:70,_ZN5neml220SolidMechanicsDriver13update_forcesEv
FNDA:12,_ZN5neml220SolidMechanicsDriver16expected_optionsEv
FNDA:7,_ZN5neml220SolidMechanicsDriverC2ERKNS_9OptionSetE
FNDA:7,_ZN5neml220SolidMechanicsDriver5setupEv
FNDA:1,_ZN5neml220SolidMechanicsDriver18init_mixed_controlERKNS_9OptionSetE
FNF:7
FNH:7
DA:30,12
DA:32,12
DA:33,12
DA:35,48
DA:36,12
DA:37,24
DA:38,36
DA:40,36
DA:41,24
DA:42,24
DA:43,24
DA:44,12
DA:46,36
DA:47,24
DA:48,24
DA:49,24
DA:52,12
DA:54,36
DA:55,36
DA:56,12
DA:57,24
DA:58,24
DA:60,12
DA:62,24
DA:63,12
DA:65,7
DA:67,7
DA:68,28
DA:70,7
DA:73,7
DA:75,7
DA:77,14
DA:78,5
DA:79,4
DA:80,1
DA:81,2
DA:82,1
DA:88,7
DA:89,1
DA:90,7
DA:93,1
DA:95,2
DA:96,1
DA:97,1
DA:99,2
DA:100,1
DA:101,1
DA:102,1
DA:105,1
DA:107,2
DA:108,1
DA:109,1
DA:110,1
DA:113,7
DA:115,7
DA:117,14
DA:118,7
DA:121,7
DA:123,14
DA:124,7
DA:127,14
DA:129,14
DA:132,7
DA:134,2
DA:135,1
DA:138,1
DA:140,2
DA:142,1
DA:144,2
DA:146,2
DA:150,14
DA:152,2
DA:153,1
DA:156,1
DA:157,2
DA:159,1
DA:161,2
DA:164,7
DA:167,70
DA:169,70
DA:171,140
DA:173,70
DA:174,20
DA:176,140
DA:177,20
DA:178,160
LF:86
LH:86
end_of_record
TN:
SF:/home/runner/work/neml2/neml2/src/neml2/jit/utils.cxx
FN:30,33,_ZN5neml219neml_assert_tracingEv
FN:36,41,_ZN5neml223neml_assert_tracing_dbgEv
FNDA:0,_ZN5neml219neml_assert_tracingEv
FNDA:0,_ZN5neml223neml_assert_tracing_dbgEv
FNF:2
FNH:0
DA:30,0
DA:32,0
DA:33,0
DA:36,0
DA:39,0
DA:41,0
LF:6
LH:0
end_of_record
TN:
SF:/home/runner/work/neml2/neml2/src/neml2/misc/error.cxx
FN:30,33,_ZNK5neml213NEMLException4whatEv
FN:38,40,_ZN5neml28internal10stream_allERSt19basic_ostringstreamIcSt11char_traitsIcESaIcEE
FNDA:22,_ZNK5neml213NEMLException4whatEv
FNDA:72,_ZN5neml28internal10stream_allERSt19basic_ostringstreamIcSt11char_traitsIcESaIcEE
FNF:2
FNH:2
DA:30,22
DA:32,22
DA:38,72
DA:40,72
LF:4
LH:4
end_of_record
TN:
SF:/home/runner/work/neml2/neml2/src/neml2/misc/math.cxx
FN:101,104,_ZN5neml24math15ConstantTensors19full_to_skew_factorEv
FN:107,110,_ZN5neml24math15ConstantTensors19skew_to_full_factorEv
FN:113,136,_ZN5neml24math15full_to_reducedERKNS_6TensorERKN2at6TensorES7_l
FN:139,159,_ZN5neml24math15reduced_to_fullERKNS_6TensorERKN2at6TensorES7_l
FN:162,169,_ZN5neml24math14full_to_mandelERKNS_6TensorEl
FN:172,179,_ZN5neml24math14mandel_to_fullERKNS_6TensorEl
FN:182,189,_ZN5neml24math12full_to_skewERKNS_6TensorEl
FN:192,199,_ZN5neml24math12skew_to_fullERKNS_6TensorEl
FN:202,229,_ZN5neml24math6jacrevERKNS_6TensorES3_bbb
FN:232,238,_ZN5neml24math15base_diag_embedERKNS_6TensorElll
FN:241,248,_ZN5neml24math19skew_and_sym_to_symERKNS_3SR2ERKNS_3WR2E
FN:251,257,_ZN5neml24math27d_skew_and_sym_to_sym_d_symERKNS_3WR2E
FN:260,266,_ZN5neml24math28d_skew_and_sym_to_sym_d_skewERKNS_3SR2E
FN:269,275,_ZN5neml24math22multiply_and_make_skewERKNS_3SR2ES3_
FN:278,284,_ZN5neml24math32d_multiply_and_make_skew_d_firstERKNS_3SR2E
FN:287,293,_ZN5neml24math33d_multiply_and_make_skew_d_secondERKNS_3SR2E
FN:296,302,_ZN5neml24math8base_catERKSt6vectorINS_6TensorESaIS2_EEl
FN:305,311,_ZN5neml24math10base_stackERKSt6vectorINS_6TensorESaIS2_EEl
FN:314,318,_ZN5neml24math8base_sumERKNS_6TensorEl
FN:321,325,_ZN5neml24math9base_meanERKNS_6TensorEl
FN:328,331,_ZN5neml24math3powERKdRKNS_6TensorE
FN:334,338,_ZN5neml24math3powERKNS_6TensorES3_
FN:343,357,_ZN5neml24math6linalg11vector_normERKNS_6TensorE
FN:36,55,_ZN5neml24math15ConstantTensorsC2Ev
FN:360,363,_ZN5neml24math6linalg3invERKNS_6TensorE
FN:366,369,_ZN5neml24math6linalg5solveERKNS_6TensorES4_
FN:372,376,_ZN5neml24math6linalg9lu_factorERKNS_6TensorEb
FN:379,382,_ZN5neml24math6linalg8lu_solveERKNS_6TensorES4_S4_bb
FN:58,62,_ZN5neml24math15ConstantTensors3getEv
FN:65,68,_ZN5neml24math15ConstantTensors18full_to_mandel_mapEv
FN:71,74,_ZN5neml24math15ConstantTensors18mandel_to_full_mapEv
FN:77,80,_ZN5neml24math15ConstantTensors21full_to_mandel_factorEv
FN:83,86,_ZN5neml24math15ConstantTensors21mandel_to_full_factorEv
FN:89,92,_ZN5neml24math15ConstantTensors16full_to_skew_mapEv
FN:95,98,_ZN5neml24math15ConstantTensors16skew_to_full_mapEv
FNDA:501,_ZN5neml24math15ConstantTensors19full_to_skew_factorEv
FNDA:421,_ZN5neml24math15ConstantTensors19skew_to_full_factorEv
FNDA:2456,_ZN5neml24math15full_to_reducedERKNS_6TensorERKN2at6TensorES7_l
FNDA:2833,_ZN5neml24math15reduced_to_fullERKNS_6TensorERKN2at6TensorES7_l
FNDA:1955,_ZN5neml24math14full_to_mandelERKNS_6TensorEl
FNDA:2412,_ZN5neml24math14mandel_to_fullERKNS_6TensorEl
FNDA:501,_ZN5neml24math12full_to_skewERKNS_6TensorEl
FNDA:421,_ZN5neml24math12skew_to_fullERKNS_6TensorEl
FNDA:1912,_ZN5neml24math6jacrevERKNS_6TensorES3_bbb
FNDA:488,_ZN5neml24math15base_diag_embedERKNS_6TensorElll
FNDA:327,_ZN5neml24math19skew_and_sym_to_symERKNS_3SR2ERKNS_3WR2E
FNDA:64,_ZN5neml24math27d_skew_and_sym_to_sym_d_symERKNS_3WR2E
FNDA:2,_ZN5neml24math28d_skew_and_sym_to_sym_d_skewERKNS_3SR2E
FNDA:327,_ZN5neml24math22multiply_and_make_skewERKNS_3SR2ES3_
FNDA:64,_ZN5neml24math32d_multiply_and_make_skew_d_firstERKNS_3SR2E
FNDA:64,_ZN5neml24math33d_multiply_and_make_skew_d_secondERKNS_3SR2E
FNDA:5538,_ZN5neml24math8base_catERKSt6vectorINS_6TensorESaIS2_EEl
FNDA:557,_ZN5neml24math10base_stackERKSt6vectorINS_6TensorESaIS2_EEl
FNDA:0,_ZN5neml24math8base_sumERKNS_6TensorEl
FNDA:0,_ZN5neml24math9base_meanERKNS_6TensorEl
FNDA:80,_ZN5neml24math3powERKdRKNS_6TensorE
FNDA:63,_ZN5neml24math3powERKNS_6TensorES3_
FNDA:1361,_ZN5neml24math6linalg11vector_normERKNS_6TensorE
FNDA:1,_ZN5neml24math15ConstantTensorsC2Ev
FNDA:106,_ZN5neml24math6linalg3invERKNS_6TensorE
FNDA:1266,_ZN5neml24math6linalg5solveERKNS_6TensorES4_
FNDA:2,_ZN5neml24math6linalg9lu_factorERKNS_6TensorEb
FNDA:6,_ZN5neml24math6linalg8lu_solveERKNS_6TensorES4_S4_bb
FNDA:10578,_ZN5neml24math15ConstantTensors3getEv
FNDA:1955,_ZN5neml24math15ConstantTensors18full_to_mandel_mapEv
FNDA:2412,_ZN5neml24math15ConstantTensors18mandel_to_full_mapEv
FNDA:1955,_ZN5neml24math15ConstantTensors21full_to_mandel_factorEv
FNDA:2412,_ZN5neml24math15ConstantTensors21mandel_to_full_factorEv
FNDA:501,_ZN5neml24math15ConstantTensors16full_to_skew_mapEv
FNDA:421,_ZN5neml24math15ConstantTensors16skew_to_full_mapEv
FNF:35
FNH:33
DA:36,1
DA:38,8
DA:41,11
DA:43,8
DA:46,11
DA:48,5
DA:50,11
DA:52,5
DA:54,11
DA:55,9
DA:58,10578
DA:60,10578
DA:61,10578
DA:65,1955
DA:67,1955
DA:71,2412
DA:73,2412
DA:77,1955
DA:79,1955
DA:83,2412
DA:85,2412
DA:89,501
DA:91,501
DA:95,421
DA:97,421
DA:101,501
DA:103,501
DA:107,421
DA:109,421
DA:113,2456
DA:118,2456
DA:119,2456
DA:120,2456
DA:121,2456
DA:122,2456
DA:124,2456
DA:125,2456
DA:126,2456
DA:128,2456
DA:129,2456
DA:132,4912
DA:135,7368
DA:136,2456
DA:139,2833
DA:144,2833
DA:145,2833
DA:146,2833
DA:147,2833
DA:148,2833
DA:150,2833
DA:151,2833
DA:152,2833
DA:153,2833
DA:154,2833
DA:156,5666
DA:157,5666
DA:158,8499
DA:159,2833
DA:162,1955
DA:166,3910
DA:167,3910
DA:168,3910
DA:172,2412
DA:176,4824
DA:177,4824
DA:178,4824
DA:182,501
DA:186,1002
DA:187,1002
DA:188,1002
DA:192,421
DA:196,842
DA:197,842
DA:198,842
DA:202,1912
DA:205,1912
DA:206,0
DA:209,1912
DA:210,1912
DA:213,1912
DA:215,7164
DA:217,57772
DA:219,15756
DA:222,5252
DA:223,5252
DA:224,10358
DA:225,5252
DA:228,1912
DA:229,28099
DA:232,488
DA:235,976
DA:236,0
DA:237,1464
DA:241,327
DA:245,327
DA:246,327
DA:247,654
DA:248,327
DA:251,64
DA:253,64
DA:254,64
DA:255,320
DA:256,448
DA:257,192
DA:260,2
DA:262,2
DA:263,2
DA:264,10
DA:265,14
DA:266,6
DA:269,327
DA:271,327
DA:272,327
DA:274,654
DA:275,327
DA:278,64
DA:280,64
DA:281,64
DA:282,320
DA:283,448
DA:284,192
DA:287,64
DA:289,64
DA:290,64
DA:291,320
DA:292,448
DA:293,192
DA:296,5538
DA:298,5538
DA:299,5538
DA:300,5538
DA:301,11076
DA:302,5538
DA:305,557
DA:307,557
DA:308,557
DA:309,557
DA:310,1114
DA:311,557
DA:314,0
DA:316,0
DA:317,0
DA:321,0
DA:323,0
DA:324,0
DA:328,80
DA:330,160
DA:334,63
DA:336,63
DA:337,126
DA:343,1361
DA:345,1361
DA:347,1361
DA:351,1361
DA:352,69
DA:354,2584
DA:355,2584
DA:356,2584
DA:360,106
DA:362,212
DA:366,1266
DA:368,2532
DA:372,2
DA:374,2
DA:375,4
DA:376,2
DA:379,6
DA:381,12
LF:168
LH:160
end_of_record
TN:
SF:/home/runner/work/neml2/neml2/src/neml2/misc/parser_utils.cxx
FN:104,113,_ZN5neml25utils6parse_IbEEvRT_RKSs
FN:117,123,_ZN5neml25utils13parse_vector_IbEEvRSt6vectorIT_SaIS3_EERKSs
FN:127,131,_ZN5neml25utils6parse_INS_19LabeledAxisAccessorEEEvRT_RKSs
FN:135,147,_ZN5neml25utils6parse_IN3c1011SmallVectorIlLj6EEEEEvRT_RKSs
FN:31,34,_ZNK5neml215ParserException4whatEv
FN:39,43,_ZN5neml25utilsrsERSt18basic_stringstreamIcSt11char_traitsIcESaIcEERN2at6TensorE
FN:46,56,_ZN5neml25utils4joinERKSt6vectorISsSaISsEERKSs
FN:59,77,_ZN5neml25utils5splitERKSsS2_
FN:80,87,_ZN5neml25utils4trimERKSsS2_
FN:90,93,_ZN5neml25utils10start_withESt17basic_string_viewIcSt11char_traitsIcEES4_
FN:96,100,_ZN5neml25utils8end_withESt17basic_string_viewIcSt11char_traitsIcEES4_
FNDA:184,_ZN5neml25utils6parse_IbEEvRT_RKSs
FNDA:40,_ZN5neml25utils13parse_vector_IbEEvRSt6vectorIT_SaIS3_EERKSs
FNDA:669,_ZN5neml25utils6parse_INS_19LabeledAxisAccessorEEEvRT_RKSs
FNDA:1195,_ZN5neml25utils6parse_IN3c1011SmallVectorIlLj6EEEEEvRT_RKSs
FNDA:6,_ZNK5neml215ParserException4whatEv
FNDA:1,_ZN5neml25utilsrsERSt18basic_stringstreamIcSt11char_traitsIcESaIcEERN2at6TensorE
FNDA:0,_ZN5neml25utils4joinERKSt6vectorISsSaISsEERKSs
FNDA:3091,_ZN5neml25utils5splitERKSsS2_
FNDA:11918,_ZN5neml25utils4trimERKSsS2_
FNDA:12642,_ZN5neml25utils10start_withESt17basic_string_viewIcSt11char_traitsIcEES4_
FNDA:1473,_ZN5neml25utils8end_withESt17basic_string_viewIcSt11char_traitsIcEES4_
FNF:11
FNH:10
DA:31,6
DA:33,6
DA:39,1
DA:41,3
DA:46,0
DA:48,0
DA:49,0
DA:51,0
DA:52,0
DA:53,0
DA:55,0
DA:56,0
DA:59,3091
DA:61,3091
DA:63,3091
DA:64,3091
DA:66,8073
DA:68,8057
DA:70,8057
DA:71,8057
DA:72,3075
DA:73,4982
DA:76,3091
DA:77,0
DA:80,11918
DA:82,11918
DA:83,11918
DA:84,34
DA:85,11901
DA:86,11901
DA:90,12642
DA:92,12642
DA:96,1473
DA:98,2946
DA:99,2946
DA:104,184
DA:106,184
DA:107,184
DA:108,99
DA:109,85
DA:110,84
DA:112,3
DA:113,184
DA:117,40
DA:119,40
DA:120,40
DA:121,150
DA:122,110
DA:123,40
DA:127,669
DA:129,669
DA:130,669
DA:131,669
DA:135,1195
DA:137,1195
DA:138,2
DA:139,3
DA:141,2388
DA:142,1194
DA:144,1194
DA:145,3500
DA:146,2306
DA:147,1194
LF:63
LH:54
end_of_record
TN:
SF:/home/runner/work/neml2/neml2/src/neml2/misc/types.cxx
FN:105,113,_ZNK5neml220TraceableTensorShape5sliceEll
FN:116,121,_ZNK5neml220TraceableTensorShape5sliceEl
FN:124,130,_ZNK5neml220TraceableTensorShape8concreteEv
FN:133,142,_ZNK5neml220TraceableTensorShape9as_tensorEv
FN:145,148,_ZN5neml2eqERKNS_20TraceableTensorShapeES2_
FN:151,154,_ZN5neml2neERKNS_20TraceableTensorShapeES2_
FN:157,162,_ZN5neml222default_tensor_optionsEv
FN:165,170,_ZN5neml230default_integer_tensor_optionsEv
FN:173,177,_ZN5neml213default_dtypeEv
FN:180,184,_ZN5neml221default_integer_dtypeEv
FN:187,191,_ZN5neml214default_deviceEv
FN:194,198,_ZN5neml217machine_precisionEv
FN:201,205,_ZN5neml29toleranceEv
FN:208,212,_ZN5neml217tighter_toleranceEv
FN:215,219,_ZN5neml221buffer_name_separatorEv
FN:222,226,_ZN5neml224parameter_name_separatorEv
FN:229,233,_ZN5neml234currently_solving_nonlinear_systemEv
FN:236,240,_ZN5neml223currently_requesting_ADEv
FN:31,34,_ZNK5neml213TraceableSize9traceableEv
FN:37,48,_ZNK5neml213TraceableSize8concreteEv
FN:51,57,_ZNK5neml213TraceableSize9as_tensorEv
FN:60,63,_ZN5neml2eqERKNS_13TraceableSizeES2_
FN:66,69,_ZN5neml2neERKNS_13TraceableSizeES2_
FN:72,76,_ZN5neml2lsERSoRKNS_13TraceableSizeE
FN:78,82,_ZN5neml220TraceableTensorShapeC2ERKN3c1011SmallVectorIlLj6EEE
FN:84,88,_ZN5neml220TraceableTensorShapeC2EN3c108ArrayRefIlEE
FN:90,93,_ZN5neml220TraceableTensorShapeC2El
FN:95,102,_ZN5neml220TraceableTensorShapeC2ERKN2at6TensorE
FNDA:22478,_ZNK5neml220TraceableTensorShape5sliceEll
FNDA:0,_ZNK5neml220TraceableTensorShape5sliceEl
FNDA:1018971,_ZNK5neml220TraceableTensorShape8concreteEv
FNDA:18917,_ZNK5neml220TraceableTensorShape9as_tensorEv
FNDA:302067,_ZN5neml2eqERKNS_20TraceableTensorShapeES2_
FNDA:35,_ZN5neml2neERKNS_20TraceableTensorShapeES2_
FNDA:3101,_ZN5neml222default_tensor_optionsEv
FNDA:152,_ZN5neml230default_integer_tensor_optionsEv
FNDA:559,_ZN5neml213default_dtypeEv
FNDA:5570,_ZN5neml221default_integer_dtypeEv
FNDA:282,_ZN5neml214default_deviceEv
FNDA:1740,_ZN5neml217machine_precisionEv
FNDA:280,_ZN5neml29toleranceEv
FNDA:280,_ZN5neml217tighter_toleranceEv
FNDA:425,_ZN5neml221buffer_name_separatorEv
FNDA:351,_ZN5neml224parameter_name_separatorEv
FNDA:14611,_ZN5neml234currently_solving_nonlinear_systemEv
FNDA:692,_ZN5neml223currently_requesting_ADEv
FNDA:414769,_ZNK5neml213TraceableSize9traceableEv
FNDA:392031,_ZNK5neml213TraceableSize8concreteEv
FNDA:5400,_ZNK5neml213TraceableSize9as_tensorEv
FNDA:10,_ZN5neml2eqERKNS_13TraceableSizeES2_
FNDA:0,_ZN5neml2neERKNS_13TraceableSizeES2_
FNDA:0,_ZN5neml2lsERSoRKNS_13TraceableSizeE
FNDA:1024,_ZN5neml220TraceableTensorShapeC2ERKN3c1011SmallVectorIlLj6EEE
FNDA:231251,_ZN5neml220TraceableTensorShapeC2EN3c108ArrayRefIlEE
FNDA:620,_ZN5neml220TraceableTensorShapeC2El
FNDA:2074,_ZN5neml220TraceableTensorShapeC2ERKN2at6TensorE
FNF:28
FNH:25
DA:31,414769
DA:33,414769
DA:37,392031
DA:39,392031
DA:41,25104
DA:43,25104
DA:44,25104
DA:47,366927
DA:51,5400
DA:53,5400
DA:54,612
DA:56,4788
DA:60,10
DA:62,10
DA:66,0
DA:68,0
DA:72,0
DA:74,0
DA:75,0
DA:78,1024
DA:80,4014
DA:81,2990
DA:82,1024
DA:84,231251
DA:86,327190
DA:87,95939
DA:88,231251
DA:90,620
DA:91,620
DA:93,620
DA:95,2074
DA:97,2074
DA:98,2074
DA:100,4154
DA:101,4160
DA:102,4154
DA:105,22478
DA:107,22478
DA:108,0
DA:109,22478
DA:110,2433
DA:112,22478
DA:116,0
DA:118,0
DA:119,0
DA:120,0
DA:124,1018971
DA:126,1018971
DA:127,1407444
DA:128,388473
DA:129,1018971
DA:130,0
DA:133,18917
DA:135,18917
DA:136,13529
DA:138,5388
DA:139,10788
DA:140,5400
DA:141,5388
DA:142,5388
DA:145,302067
DA:147,302067
DA:151,35
DA:153,35
DA:157,3101
DA:160,3101
DA:161,3101
DA:165,152
DA:168,152
DA:169,152
DA:173,559
DA:176,559
DA:180,5570
DA:183,5570
DA:187,282
DA:189,282
DA:190,282
DA:194,1740
DA:197,1740
DA:201,280
DA:204,280
DA:208,280
DA:211,280
DA:215,425
DA:217,427
DA:218,425
DA:222,351
DA:224,353
DA:225,351
DA:229,14611
DA:232,14611
DA:236,692
DA:239,692
LF:93
LH:82
end_of_record
TN:
SF:/home/runner/work/neml2/neml2/src/neml2/misc/utils.cxx
FN:101,104,_ZN5neml25utils7details25add_traceable_shapes_implERNS_20TraceableTensorShapeE
FN:34,38,_ZN5neml25utils8demangleEPKc
FN:41,54,_ZN5neml25utils19extract_batch_sizesERKN2at6TensorEl
FN:57,61,_ZN5neml25utils12storage_sizeEN3c108ArrayRefIlEE
FN:64,69,_ZN5neml25utils11pad_prependEN3c108ArrayRefIlEEll
FN:72,78,_ZN5neml25utils11pad_prependERKN2at6TensorEll
FN:95,98,_ZN5neml25utils7details15add_shapes_implERN3c1011SmallVectorIlLj6EEE
FNDA:11396,_ZN5neml25utils7details25add_traceable_shapes_implERNS_20TraceableTensorShapeE
FNDA:237580,_ZN5neml25utils8demangleEPKc
FNDA:219235,_ZN5neml25utils19extract_batch_sizesERKN2at6TensorEl
FNDA:105498,_ZN5neml25utils12storage_sizeEN3c108ArrayRefIlEE
FNDA:346116,_ZN5neml25utils11pad_prependEN3c108ArrayRefIlEEll
FNDA:5388,_ZN5neml25utils11pad_prependERKN2at6TensorEll
FNDA:72736,_ZN5neml25utils7details15add_shapes_implERN3c1011SmallVectorIlLj6EEE
FNF:7
FNH:7
DA:34,237580
DA:37,237580
DA:41,219235
DA:45,219235
DA:47,0
DA:48,0
DA:49,0
DA:50,0
DA:51,0
DA:53,219235
DA:57,105498
DA:59,105498
DA:60,105498
DA:64,346116
DA:66,346116
DA:67,346116
DA:68,346116
DA:69,0
DA:72,5388
DA:74,5388
DA:75,5388
DA:76,5388
DA:77,32328
DA:78,16164
DA:95,72736
DA:97,72736
DA:101,11396
DA:103,11396
LF:28
LH:22
end_of_record
TN:
SF:/home/runner/work/neml2/neml2/src/neml2/models/ArrheniusParameter.cxx
FN:33,54,_ZN5neml218ArrheniusParameter16expected_optionsEv
FN:56,63,_ZN5neml218ArrheniusParameterC2ERKNS_9OptionSetE
FN:66,84,_ZN5neml218ArrheniusParameter9set_valueEbbb
FNDA:6,_ZN5neml218ArrheniusParameter16expected_optionsEv
FNDA:2,_ZN5neml218ArrheniusParameterC2ERKNS_9OptionSetE
FNDA:16,_ZN5neml218ArrheniusParameter9set_valueEbbb
FNF:3
FNH:3
DA:33,6
DA:35,6
DA:36,6
DA:39,6
DA:41,12
DA:42,12
DA:44,12
DA:45,12
DA:47,12
DA:48,6
DA:50,18
DA:51,6
DA:53,6
DA:54,0
DA:56,2
DA:58,6
DA:59,10
DA:60,2
DA:61,4
DA:63,2
DA:66,16
DA:68,16
DA:70,16
DA:71,12
DA:73,16
DA:74,16
DA:76,4
DA:78,4
DA:79,3
DA:81,4
DA:82,1
DA:83,4
DA:84,16
LF:33
LH:32
end_of_record
TN:
SF:/home/runner/work/neml2/neml2/src/neml2/models/Assembler.cxx
FN:106,183,_ZNK5neml215MatrixAssembler8assembleERKSt3mapINS_19LabeledAxisAccessorES1_IS2_NS_6TensorESt4lessIS2_ESaISt4pairIKS2_S3_EEES5_SaIS6_IS7_SA_EEE
FN:186,203,_ZNK5neml215MatrixAssembler11disassembleERKNS_6TensorE
FN:206,223,_ZNK5neml215MatrixAssembler5splitERKNS_6TensorE
FN:31,75,_ZNK5neml215VectorAssembler8assembleERKSt3mapINS_19LabeledAxisAccessorENS_6TensorESt4lessIS2_ESaISt4pairIKS2_S3_EEE
FN:78,89,_ZNK5neml215VectorAssembler11disassembleERKNS_6TensorE
FN:92,103,_ZNK5neml215VectorAssembler5splitERKNS_6TensorE
FNDA:1027,_ZNK5neml215MatrixAssembler8assembleERKSt3mapINS_19LabeledAxisAccessorES1_IS2_NS_6TensorESt4lessIS2_ESaISt4pairIKS2_S3_EEES5_SaIS6_IS7_SA_EEE
FNDA:6,_ZNK5neml215MatrixAssembler11disassembleERKNS_6TensorE
FNDA:2,_ZNK5neml215MatrixAssembler5splitERKNS_6TensorE
FNDA:1488,_ZNK5neml215VectorAssembler8assembleERKSt3mapINS_19LabeledAxisAccessorENS_6TensorESt4lessIS2_ESaISt4pairIKS2_S3_EEE
FNDA:1334,_ZNK5neml215VectorAssembler11disassembleERKNS_6TensorE
FNDA:1,_ZNK5neml215VectorAssembler5splitERKNS_6TensorE
FNF:6
FNH:6
DA:31,1488
DA:33,1488
DA:36,1488
DA:37,1488
DA:42,1488
DA:43,5842
DA:45,4354
DA:46,4354
DA:48,4351
DA:49,4351
DA:51,4351
DA:53,4351
DA:55,4351
DA:56,4351
DA:58,1488
DA:59,1488
DA:64,1488
DA:67,1488
DA:68,5842
DA:69,4354
DA:70,4351
DA:72,3
DA:74,2976
DA:75,1488
DA:78,1334
DA:80,1334
DA:82,1334
DA:83,1334
DA:85,5251
DA:86,3917
DA:88,2668
DA:89,1334
DA:92,1
DA:94,1
DA:96,1
DA:97,1
DA:99,3
DA:100,2
DA:102,2
DA:103,1
DA:106,1027
DA:109,1027
DA:110,1027
DA:113,1027
DA:114,1027
DA:117,1027
DA:118,4049
DA:120,3022
DA:121,3022
DA:122,0
DA:127,3022
DA:128,12308
DA:130,9286
DA:131,9286
DA:133,9274
DA:134,9274
DA:136,9274
DA:138,9274
DA:140,9274
DA:142,18548
DA:143,9274
DA:145,9274
DA:147,9274
DA:149,18548
DA:151,9274
DA:152,9274
DA:154,1027
DA:155,1027
DA:160,3022
DA:163,3022
DA:164,12308
DA:165,9286
DA:166,9274
DA:168,24
DA:169,24
DA:171,3022
DA:172,3022
DA:175,1027
DA:176,4049
DA:177,3022
DA:178,3022
DA:180,0
DA:182,2054
DA:183,1027
DA:186,6
DA:188,6
DA:190,6
DA:191,6
DA:193,6
DA:194,24
DA:196,18
DA:197,54
DA:198,72
DA:199,108
DA:200,18
DA:202,12
DA:203,6
DA:206,2
DA:208,2
DA:210,2
DA:211,2
DA:213,2
DA:214,4
DA:216,2
DA:217,10
DA:218,16
DA:219,24
DA:220,2
DA:222,4
DA:223,2
LF:110
LH:108
end_of_record
TN:
SF:/home/runner/work/neml2/neml2/src/neml2/models/BackwardEulerTimeIntegration.cxx
FN:35,56,_ZN5neml228BackwardEulerTimeIntegrationINS_3SR2EE16expected_optionsEv
FN:35,56,_ZN5neml228BackwardEulerTimeIntegrationINS_3VecEE16expected_optionsEv
FN:35,56,_ZN5neml228BackwardEulerTimeIntegrationINS_6ScalarEE16expected_optionsEv
FN:59,70,_ZN5neml228BackwardEulerTimeIntegrationINS_3SR2EEC2ERKNS_9OptionSetE
FN:59,70,_ZN5neml228BackwardEulerTimeIntegrationINS_3VecEEC2ERKNS_9OptionSetE
FN:59,70,_ZN5neml228BackwardEulerTimeIntegrationINS_6ScalarEEC2ERKNS_9OptionSetE
FN:74,80,_ZNK5neml228BackwardEulerTimeIntegrationINS_3SR2EE8diagnoseERSt6vectorINS_9DiagnosisESaIS4_EE
FN:74,80,_ZNK5neml228BackwardEulerTimeIntegrationINS_3VecEE8diagnoseERSt6vectorINS_9DiagnosisESaIS4_EE
FN:74,80,_ZNK5neml228BackwardEulerTimeIntegrationINS_6ScalarEE8diagnoseERSt6vectorINS_9DiagnosisESaIS4_EE
FN:84,105,_ZN5neml228BackwardEulerTimeIntegrationINS_3SR2EE9set_valueEbbb
FN:84,105,_ZN5neml228BackwardEulerTimeIntegrationINS_3VecEE9set_valueEbbb
FN:84,105,_ZN5neml228BackwardEulerTimeIntegrationINS_6ScalarEE9set_valueEbbb
FNDA:6,_ZN5neml228BackwardEulerTimeIntegrationINS_3SR2EE16expected_optionsEv
FNDA:6,_ZN5neml228BackwardEulerTimeIntegrationINS_3VecEE16expected_optionsEv
FNDA:6,_ZN5neml228BackwardEulerTimeIntegrationINS_6ScalarEE16expected_optionsEv
FNDA:9,_ZN5neml228BackwardEulerTimeIntegrationINS_3SR2EEC2ERKNS_9OptionSetE
FNDA:0,_ZN5neml228BackwardEulerTimeIntegrationINS_3VecEEC2ERKNS_9OptionSetE
FNDA:16,_ZN5neml228BackwardEulerTimeIntegrationINS_6ScalarEEC2ERKNS_9OptionSetE
FNDA:6,_ZNK5neml228BackwardEulerTimeIntegrationINS_3SR2EE8diagnoseERSt6vectorINS_9DiagnosisESaIS4_EE
FNDA:0,_ZNK5neml228BackwardEulerTimeIntegrationINS_3VecEE8diagnoseERSt6vectorINS_9DiagnosisESaIS4_EE
FNDA:4,_ZNK5neml228BackwardEulerTimeIntegrationINS_6ScalarEE8diagnoseERSt6vectorINS_9DiagnosisESaIS4_EE
FNDA:2702,_ZN5neml228BackwardEulerTimeIntegrationINS_3SR2EE9set_valueEbbb
FNDA:0,_ZN5neml228BackwardEulerTimeIntegrationINS_3VecEE9set_valueEbbb
FNDA:4064,_ZN5neml228BackwardEulerTimeIntegrationINS_6ScalarEE9set_valueEbbb
FNF:12
FNH:9
DA:35,18
DA:37,18
DA:38,18
DA:44,18
DA:46,36
DA:47,36
DA:49,36
DA:50,18
DA:52,54
DA:53,18
DA:55,18
DA:56,0
DA:59,25
DA:61,25
DA:62,25
DA:63,25
DA:64,96
DA:65,25
DA:66,25
DA:67,25
DA:68,50
DA:70,25
DA:74,10
DA:76,10
DA:77,10
DA:78,10
DA:79,10
DA:80,10
DA:84,6766
DA:86,6766
DA:88,6766
DA:89,6765
DA:91,6766
DA:93,2966
DA:95,2966
DA:96,2966
DA:98,2966
DA:99,2954
DA:101,12
DA:102,12
DA:103,12
DA:104,2966
LF:42
LH:41
end_of_record
TN:
SF:/home/runner/work/neml2/neml2/src/neml2/models/BufferStore.cxx
FN:29,33,_ZN5neml211BufferStoreC2ERKNS_9OptionSetEPNS_11NEML2ObjectE
FN:36,41,_ZN5neml211BufferStore13named_buffersEv
FN:44,48,_ZN5neml211BufferStore15send_buffers_toERKN3c1013TensorOptionsE
FNDA:381,_ZN5neml211BufferStoreC2ERKNS_9OptionSetEPNS_11NEML2ObjectE
FNDA:0,_ZN5neml211BufferStore13named_buffersEv
FNDA:0,_ZN5neml211BufferStore15send_buffers_toERKN3c1013TensorOptionsE
FNF:3
FNH:1
DA:29,381
DA:30,381
DA:31,381
DA:33,381
DA:36,0
DA:38,0
DA:40,0
DA:44,0
DA:46,0
DA:47,0
DA:48,0
LF:11
LH:4
end_of_record
TN:
SF:/home/runner/work/neml2/neml2/src/neml2/models/ComposedModel.cxx
FN:130,133,_ZNK5neml213ComposedModel26named_nonlinear_parametersEb
FN:136,139,_ZNK5neml213ComposedModel32named_nonlinear_parameter_modelsEb
FN:142,154,_ZN5neml213ComposedModel20link_input_variablesEPNS_5ModelE
FN:157,162,_ZN5neml213ComposedModel21link_output_variablesEPNS_5ModelE
FN:165,186,_ZN5neml213ComposedModel9set_valueEbbb
FN:33,61,_ZN5neml213ComposedModel16expected_optionsEv
FN:63,127,_ZN5neml213ComposedModelC2ERKNS_9OptionSetE
FNDA:10,_ZNK5neml213ComposedModel26named_nonlinear_parametersEb
FNDA:20,_ZNK5neml213ComposedModel32named_nonlinear_parameter_modelsEb
FNDA:211,_ZN5neml213ComposedModel20link_input_variablesEPNS_5ModelE
FNDA:211,_ZN5neml213ComposedModel21link_output_variablesEPNS_5ModelE
FNDA:3721,_ZN5neml213ComposedModel9set_valueEbbb
FNDA:6,_ZN5neml213ComposedModel16expected_optionsEv
FNDA:57,_ZN5neml213ComposedModelC2ERKNS_9OptionSetE
FNF:7
FNH:7
DA:33,6
DA:35,6
DA:36,6
DA:39,6
DA:41,6
DA:43,12
DA:44,12
DA:46,12
DA:47,18
DA:49,6
DA:51,12
DA:52,18
DA:54,6
DA:56,12
DA:57,12
DA:58,6
DA:60,6
DA:61,0
DA:63,57
DA:65,114
DA:66,171
DA:71,272
DA:72,158
DA:82,57
DA:83,57
DA:84,215
DA:85,211
DA:86,211
DA:89,268
DA:90,211
DA:91,59
DA:92,2
DA:95,57
DA:96,57
DA:97,57
DA:98,0
DA:101,57
DA:102,57
DA:103,57
DA:106,57
DA:109,381
DA:110,324
DA:111,255
DA:114,138
DA:115,81
DA:118,215
DA:120,211
DA:121,53
DA:122,158
DA:123,211
DA:124,53
DA:125,158
DA:127,57
DA:130,10
DA:132,10
DA:136,20
DA:138,20
DA:142,211
DA:144,2054
DA:145,1843
DA:146,324
DA:148,1565
DA:149,1354
DA:151,168
DA:152,168
DA:154,211
DA:157,211
DA:159,567
DA:160,356
DA:161,81
DA:162,211
DA:165,3721
DA:167,24024
DA:169,20303
DA:170,11253
DA:171,9050
DA:172,8626
DA:173,424
DA:174,424
DA:176,0
DA:179,3721
DA:180,5627
DA:181,3811
DA:183,3721
DA:184,328
DA:185,164
DA:186,3721
LF:87
LH:84
end_of_record
TN:
SF:/home/runner/work/neml2/neml2/src/neml2/models/ConstantParameter.cxx
FN:34,43,_ZN5neml217ConstantParameterINS_10QuaternionEE16expected_optionsEv
FN:34,43,_ZN5neml217ConstantParameterINS_11MillerIndexEE16expected_optionsEv
FN:34,43,_ZN5neml217ConstantParameterINS_2R2EE16expected_optionsEv
FN:34,43,_ZN5neml217ConstantParameterINS_2R3EE16expected_optionsEv
FN:34,43,_ZN5neml217ConstantParameterINS_2R4EE16expected_optionsEv
FN:34,43,_ZN5neml217ConstantParameterINS_2R5EE16expected_optionsEv
FN:34,43,_ZN5neml217ConstantParameterINS_2R8EE16expected_optionsEv
FN:34,43,_ZN5neml217ConstantParameterINS_3RotEE16expected_optionsEv
FN:34,43,_ZN5neml217ConstantParameterINS_3SR2EE16expected_optionsEv
FN:34,43,_ZN5neml217ConstantParameterINS_3VecEE16expected_optionsEv
FN:34,43,_ZN5neml217ConstantParameterINS_3WR2EE16expected_optionsEv
FN:34,43,_ZN5neml217ConstantParameterINS_4SFR3EE16expected_optionsEv
FN:34,43,_ZN5neml217ConstantParameterINS_4SSR4EE16expected_optionsEv
FN:34,43,_ZN5neml217ConstantParameterINS_4SWR4EE16expected_optionsEv
FN:34,43,_ZN5neml217ConstantParameterINS_4WSR4EE16expected_optionsEv
FN:34,43,_ZN5neml217ConstantParameterINS_4WWR4EE16expected_optionsEv
FN:34,43,_ZN5neml217ConstantParameterINS_5SFFR4EE16expected_optionsEv
FN:34,43,_ZN5neml217ConstantParameterINS_5SSFR5EE16expected_optionsEv
FN:34,43,_ZN5neml217ConstantParameterINS_6SSSSR8EE16expected_optionsEv
FN:34,43,_ZN5neml217ConstantParameterINS_6ScalarEE16expected_optionsEv
FN:46,50,_ZN5neml217ConstantParameterINS_10QuaternionEEC2ERKNS_9OptionSetE
FN:46,50,_ZN5neml217ConstantParameterINS_11MillerIndexEEC2ERKNS_9OptionSetE
FN:46,50,_ZN5neml217ConstantParameterINS_2R2EEC2ERKNS_9OptionSetE
FN:46,50,_ZN5neml217ConstantParameterINS_2R3EEC2ERKNS_9OptionSetE
FN:46,50,_ZN5neml217ConstantParameterINS_2R4EEC2ERKNS_9OptionSetE
FN:46,50,_ZN5neml217ConstantParameterINS_2R5EEC2ERKNS_9OptionSetE
FN:46,50,_ZN5neml217ConstantParameterINS_2R8EEC2ERKNS_9OptionSetE
FN:46,50,_ZN5neml217ConstantParameterINS_3RotEEC2ERKNS_9OptionSetE
FN:46,50,_ZN5neml217ConstantParameterINS_3SR2EEC2ERKNS_9OptionSetE
FN:46,50,_ZN5neml217ConstantParameterINS_3VecEEC2ERKNS_9OptionSetE
FN:46,50,_ZN5neml217ConstantParameterINS_3WR2EEC2ERKNS_9OptionSetE
FN:46,50,_ZN5neml217ConstantParameterINS_4SFR3EEC2ERKNS_9OptionSetE
FN:46,50,_ZN5neml217ConstantParameterINS_4SSR4EEC2ERKNS_9OptionSetE
FN:46,50,_ZN5neml217ConstantParameterINS_4SWR4EEC2ERKNS_9OptionSetE
FN:46,50,_ZN5neml217ConstantParameterINS_4WSR4EEC2ERKNS_9OptionSetE
FN:46,50,_ZN5neml217ConstantParameterINS_4WWR4EEC2ERKNS_9OptionSetE
FN:46,50,_ZN5neml217ConstantParameterINS_5SFFR4EEC2ERKNS_9OptionSetE
FN:46,50,_ZN5neml217ConstantParameterINS_5SSFR5EEC2ERKNS_9OptionSetE
FN:46,50,_ZN5neml217ConstantParameterINS_6SSSSR8EEC2ERKNS_9OptionSetE
FN:46,50,_ZN5neml217ConstantParameterINS_6ScalarEEC2ERKNS_9OptionSetE
FN:54,65,_ZN5neml217ConstantParameterINS_10QuaternionEE9set_valueEbbb
FN:54,65,_ZN5neml217ConstantParameterINS_11MillerIndexEE9set_valueEbbb
FN:54,65,_ZN5neml217ConstantParameterINS_2R2EE9set_valueEbbb
FN:54,65,_ZN5neml217ConstantParameterINS_2R3EE9set_valueEbbb
FN:54,65,_ZN5neml217ConstantParameterINS_2R4EE9set_valueEbbb
FN:54,65,_ZN5neml217ConstantParameterINS_2R5EE9set_valueEbbb
FN:54,65,_ZN5neml217ConstantParameterINS_2R8EE9set_valueEbbb
FN:54,65,_ZN5neml217ConstantParameterINS_3RotEE9set_valueEbbb
FN:54,65,_ZN5neml217ConstantParameterINS_3SR2EE9set_valueEbbb
FN:54,65,_ZN5neml217ConstantParameterINS_3VecEE9set_valueEbbb
FN:54,65,_ZN5neml217ConstantParameterINS_3WR2EE9set_valueEbbb
FN:54,65,_ZN5neml217ConstantParameterINS_4SFR3EE9set_valueEbbb
FN:54,65,_ZN5neml217ConstantParameterINS_4SSR4EE9set_valueEbbb
FN:54,65,_ZN5neml217ConstantParameterINS_4SWR4EE9set_valueEbbb
FN:54,65,_ZN5neml217ConstantParameterINS_4WSR4EE9set_valueEbbb
FN:54,65,_ZN5neml217ConstantParameterINS_4WWR4EE9set_valueEbbb
FN:54,65,_ZN5neml217ConstantParameterINS_5SFFR4EE9set_valueEbbb
FN:54,65,_ZN5neml217ConstantParameterINS_5SSFR5EE9set_valueEbbb
FN:54,65,_ZN5neml217ConstantParameterINS_6SSSSR8EE9set_valueEbbb
FN:54,65,_ZN5neml217ConstantParameterINS_6ScalarEE9set_valueEbbb
FNDA:6,_ZN5neml217ConstantParameterINS_10QuaternionEE16expected_optionsEv
FNDA:6,_ZN5neml217ConstantParameterINS_11MillerIndexEE16expected_optionsEv
FNDA:6,_ZN5neml217ConstantParameterINS_2R2EE16expected_optionsEv
FNDA:6,_ZN5neml217ConstantParameterINS_2R3EE16expected_optionsEv
FNDA:6,_ZN5neml217ConstantParameterINS_2R4EE16expected_optionsEv
FNDA:6,_ZN5neml217ConstantParameterINS_2R5EE16expected_optionsEv
FNDA:6,_ZN5neml217ConstantParameterINS_2R8EE16expected_optionsEv
FNDA:6,_ZN5neml217ConstantParameterINS_3RotEE16expected_optionsEv
FNDA:6,_ZN5neml217ConstantParameterINS_3SR2EE16expected_optionsEv
FNDA:6,_ZN5neml217ConstantParameterINS_3VecEE16expected_optionsEv
FNDA:6,_ZN5neml217ConstantParameterINS_3WR2EE16expected_optionsEv
FNDA:6,_ZN5neml217ConstantParameterINS_4SFR3EE16expected_optionsEv
FNDA:6,_ZN5neml217ConstantParameterINS_4SSR4EE16expected_optionsEv
FNDA:6,_ZN5neml217ConstantParameterINS_4SWR4EE16expected_optionsEv
FNDA:6,_ZN5neml217ConstantParameterINS_4WSR4EE16expected_optionsEv
FNDA:6,_ZN5neml217ConstantParameterINS_4WWR4EE16expected_optionsEv
FNDA:6,_ZN5neml217ConstantParameterINS_5SFFR4EE16expected_optionsEv
FNDA:6,_ZN5neml217ConstantParameterINS_5SSFR5EE16expected_optionsEv
FNDA:6,_ZN5neml217ConstantParameterINS_6SSSSR8EE16expected_optionsEv
FNDA:6,_ZN5neml217ConstantParameterINS_6ScalarEE16expected_optionsEv
FNDA:0,_ZN5neml217ConstantParameterINS_10QuaternionEEC2ERKNS_9OptionSetE
FNDA:0,_ZN5neml217ConstantParameterINS_11MillerIndexEEC2ERKNS_9OptionSetE
FNDA:0,_ZN5neml217ConstantParameterINS_2R2EEC2ERKNS_9OptionSetE
FNDA:0,_ZN5neml217ConstantParameterINS_2R3EEC2ERKNS_9OptionSetE
FNDA:0,_ZN5neml217ConstantParameterINS_2R4EEC2ERKNS_9OptionSetE
FNDA:0,_ZN5neml217ConstantParameterINS_2R5EEC2ERKNS_9OptionSetE
FNDA:0,_ZN5neml217ConstantParameterINS_2R8EEC2ERKNS_9OptionSetE
FNDA:0,_ZN5neml217ConstantParameterINS_3RotEEC2ERKNS_9OptionSetE
FNDA:1,_ZN5neml217ConstantParameterINS_3SR2EEC2ERKNS_9OptionSetE
FNDA:0,_ZN5neml217ConstantParameterINS_3VecEEC2ERKNS_9OptionSetE
FNDA:0,_ZN5neml217ConstantParameterINS_3WR2EEC2ERKNS_9OptionSetE
FNDA:0,_ZN5neml217ConstantParameterINS_4SFR3EEC2ERKNS_9OptionSetE
FNDA:0,_ZN5neml217ConstantParameterINS_4SSR4EEC2ERKNS_9OptionSetE
FNDA:0,_ZN5neml217ConstantParameterINS_4SWR4EEC2ERKNS_9OptionSetE
FNDA:0,_ZN5neml217ConstantParameterINS_4WSR4EEC2ERKNS_9OptionSetE
FNDA:0,_ZN5neml217ConstantParameterINS_4WWR4EEC2ERKNS_9OptionSetE
FNDA:0,_ZN5neml217ConstantParameterINS_5SFFR4EEC2ERKNS_9OptionSetE
FNDA:0,_ZN5neml217ConstantParameterINS_5SSFR5EEC2ERKNS_9OptionSetE
FNDA:0,_ZN5neml217ConstantParameterINS_6SSSSR8EEC2ERKNS_9OptionSetE
FNDA:4,_ZN5neml217ConstantParameterINS_6ScalarEEC2ERKNS_9OptionSetE
FNDA:0,_ZN5neml217ConstantParameterINS_10QuaternionEE9set_valueEbbb
FNDA:0,_ZN5neml217ConstantParameterINS_11MillerIndexEE9set_valueEbbb
FNDA:0,_ZN5neml217ConstantParameterINS_2R2EE9set_valueEbbb
FNDA:0,_ZN5neml217ConstantParameterINS_2R3EE9set_valueEbbb
FNDA:0,_ZN5neml217ConstantParameterINS_2R4EE9set_valueEbbb
FNDA:0,_ZN5neml217ConstantParameterINS_2R5EE9set_valueEbbb
FNDA:0,_ZN5neml217ConstantParameterINS_2R8EE9set_valueEbbb
FNDA:0,_ZN5neml217ConstantParameterINS_3RotEE9set_valueEbbb
FNDA:2,_ZN5neml217ConstantParameterINS_3SR2EE9set_valueEbbb
FNDA:0,_ZN5neml217ConstantParameterINS_3VecEE9set_valueEbbb
FNDA:0,_ZN5neml217ConstantParameterINS_3WR2EE9set_valueEbbb
FNDA:0,_ZN5neml217ConstantParameterINS_4SFR3EE9set_valueEbbb
FNDA:0,_ZN5neml217ConstantParameterINS_4SSR4EE9set_valueEbbb
FNDA:0,_ZN5neml217ConstantParameterINS_4SWR4EE9set_valueEbbb
FNDA:0,_ZN5neml217ConstantParameterINS_4WSR4EE9set_valueEbbb
FNDA:0,_ZN5neml217ConstantParameterINS_4WWR4EE9set_valueEbbb
FNDA:0,_ZN5neml217ConstantParameterINS_5SFFR4EE9set_valueEbbb
FNDA:0,_ZN5neml217ConstantParameterINS_5SSFR5EE9set_valueEbbb
FNDA:0,_ZN5neml217ConstantParameterINS_6SSSSR8EE9set_valueEbbb
FNDA:2,_ZN5neml217ConstantParameterINS_6ScalarEE9set_valueEbbb
FNF:60
FNH:24
DA:34,120
DA:36,120
DA:37,120
DA:40,240
DA:41,120
DA:42,120
DA:43,0
DA:46,5
DA:48,20
DA:50,5
DA:54,4
DA:56,4
DA:57,2
DA:59,4
DA:60,6
DA:61,0
DA:65,4
LF:17
LH:15
end_of_record
TN:
SF:/home/runner/work/neml2/neml2/src/neml2/models/CopyVariable.cxx
FN:34,46,_ZN5neml212CopyVariableINS_10QuaternionEE16expected_optionsEv
FN:34,46,_ZN5neml212CopyVariableINS_11MillerIndexEE16expected_optionsEv
FN:34,46,_ZN5neml212CopyVariableINS_2R2EE16expected_optionsEv
FN:34,46,_ZN5neml212CopyVariableINS_2R3EE16expected_optionsEv
FN:34,46,_ZN5neml212CopyVariableINS_2R4EE16expected_optionsEv
FN:34,46,_ZN5neml212CopyVariableINS_2R5EE16expected_optionsEv
FN:34,46,_ZN5neml212CopyVariableINS_2R8EE16expected_optionsEv
FN:34,46,_ZN5neml212CopyVariableINS_3RotEE16expected_optionsEv
FN:34,46,_ZN5neml212CopyVariableINS_3SR2EE16expected_optionsEv
FN:34,46,_ZN5neml212CopyVariableINS_3VecEE16expected_optionsEv
FN:34,46,_ZN5neml212CopyVariableINS_3WR2EE16expected_optionsEv
FN:34,46,_ZN5neml212CopyVariableINS_4SFR3EE16expected_optionsEv
FN:34,46,_ZN5neml212CopyVariableINS_4SSR4EE16expected_optionsEv
FN:34,46,_ZN5neml212CopyVariableINS_4SWR4EE16expected_optionsEv
FN:34,46,_ZN5neml212CopyVariableINS_4WSR4EE16expected_optionsEv
FN:34,46,_ZN5neml212CopyVariableINS_4WWR4EE16expected_optionsEv
FN:34,46,_ZN5neml212CopyVariableINS_5SFFR4EE16expected_optionsEv
FN:34,46,_ZN5neml212CopyVariableINS_5SSFR5EE16expected_optionsEv
FN:34,46,_ZN5neml212CopyVariableINS_6SSSSR8EE16expected_optionsEv
FN:34,46,_ZN5neml212CopyVariableINS_6ScalarEE16expected_optionsEv
FN:49,54,_ZN5neml212CopyVariableINS_10QuaternionEEC2ERKNS_9OptionSetE
FN:49,54,_ZN5neml212CopyVariableINS_11MillerIndexEEC2ERKNS_9OptionSetE
FN:49,54,_ZN5neml212CopyVariableINS_2R2EEC2ERKNS_9OptionSetE
FN:49,54,_ZN5neml212CopyVariableINS_2R3EEC2ERKNS_9OptionSetE
FN:49,54,_ZN5neml212CopyVariableINS_2R4EEC2ERKNS_9OptionSetE
FN:49,54,_ZN5neml212CopyVariableINS_2R5EEC2ERKNS_9OptionSetE
FN:49,54,_ZN5neml212CopyVariableINS_2R8EEC2ERKNS_9OptionSetE
FN:49,54,_ZN5neml212CopyVariableINS_3RotEEC2ERKNS_9OptionSetE
FN:49,54,_ZN5neml212CopyVariableINS_3SR2EEC2ERKNS_9OptionSetE
FN:49,54,_ZN5neml212CopyVariableINS_3VecEEC2ERKNS_9OptionSetE
FN:49,54,_ZN5neml212CopyVariableINS_3WR2EEC2ERKNS_9OptionSetE
FN:49,54,_ZN5neml212CopyVariableINS_4SFR3EEC2ERKNS_9OptionSetE
FN:49,54,_ZN5neml212CopyVariableINS_4SSR4EEC2ERKNS_9OptionSetE
FN:49,54,_ZN5neml212CopyVariableINS_4SWR4EEC2ERKNS_9OptionSetE
FN:49,54,_ZN5neml212CopyVariableINS_4WSR4EEC2ERKNS_9OptionSetE
FN:49,54,_ZN5neml212CopyVariableINS_4WWR4EEC2ERKNS_9OptionSetE
FN:49,54,_ZN5neml212CopyVariableINS_5SFFR4EEC2ERKNS_9OptionSetE
FN:49,54,_ZN5neml212CopyVariableINS_5SSFR5EEC2ERKNS_9OptionSetE
FN:49,54,_ZN5neml212CopyVariableINS_6SSSSR8EEC2ERKNS_9OptionSetE
FN:49,54,_ZN5neml212CopyVariableINS_6ScalarEEC2ERKNS_9OptionSetE
FN:58,71,_ZN5neml212CopyVariableINS_10QuaternionEE9set_valueEbbb
FN:58,71,_ZN5neml212CopyVariableINS_11MillerIndexEE9set_valueEbbb
FN:58,71,_ZN5neml212CopyVariableINS_2R2EE9set_valueEbbb
FN:58,71,_ZN5neml212CopyVariableINS_2R3EE9set_valueEbbb
FN:58,71,_ZN5neml212CopyVariableINS_2R4EE9set_valueEbbb
FN:58,71,_ZN5neml212CopyVariableINS_2R5EE9set_valueEbbb
FN:58,71,_ZN5neml212CopyVariableINS_2R8EE9set_valueEbbb
FN:58,71,_ZN5neml212CopyVariableINS_3RotEE9set_valueEbbb
FN:58,71,_ZN5neml212CopyVariableINS_3SR2EE9set_valueEbbb
FN:58,71,_ZN5neml212CopyVariableINS_3VecEE9set_valueEbbb
FN:58,71,_ZN5neml212CopyVariableINS_3WR2EE9set_valueEbbb
FN:58,71,_ZN5neml212CopyVariableINS_4SFR3EE9set_valueEbbb
FN:58,71,_ZN5neml212CopyVariableINS_4SSR4EE9set_valueEbbb
FN:58,71,_ZN5neml212CopyVariableINS_4SWR4EE9set_valueEbbb
FN:58,71,_ZN5neml212CopyVariableINS_4WSR4EE9set_valueEbbb
FN:58,71,_ZN5neml212CopyVariableINS_4WWR4EE9set_valueEbbb
FN:58,71,_ZN5neml212CopyVariableINS_5SFFR4EE9set_valueEbbb
FN:58,71,_ZN5neml212CopyVariableINS_5SSFR5EE9set_valueEbbb
FN:58,71,_ZN5neml212CopyVariableINS_6SSSSR8EE9set_valueEbbb
FN:58,71,_ZN5neml212CopyVariableINS_6ScalarEE9set_valueEbbb
FNDA:6,_ZN5neml212CopyVariableINS_10QuaternionEE16expected_optionsEv
FNDA:6,_ZN5neml212CopyVariableINS_11MillerIndexEE16expected_optionsEv
FNDA:6,_ZN5neml212CopyVariableINS_2R2EE16expected_optionsEv
FNDA:6,_ZN5neml212CopyVariableINS_2R3EE16expected_optionsEv
FNDA:6,_ZN5neml212CopyVariableINS_2R4EE16expected_optionsEv
FNDA:6,_ZN5neml212CopyVariableINS_2R5EE16expected_optionsEv
FNDA:6,_ZN5neml212CopyVariableINS_2R8EE16expected_optionsEv
FNDA:6,_ZN5neml212CopyVariableINS_3RotEE16expected_optionsEv
FNDA:6,_ZN5neml212CopyVariableINS_3SR2EE16expected_optionsEv
FNDA:6,_ZN5neml212CopyVariableINS_3VecEE16expected_optionsEv
FNDA:6,_ZN5neml212CopyVariableINS_3WR2EE16expected_optionsEv
FNDA:6,_ZN5neml212CopyVariableINS_4SFR3EE16expected_optionsEv
FNDA:6,_ZN5neml212CopyVariableINS_4SSR4EE16expected_optionsEv
FNDA:6,_ZN5neml212CopyVariableINS_4SWR4EE16expected_optionsEv
FNDA:6,_ZN5neml212CopyVariableINS_4WSR4EE16expected_optionsEv
FNDA:6,_ZN5neml212CopyVariableINS_4WWR4EE16expected_optionsEv
FNDA:6,_ZN5neml212CopyVariableINS_5SFFR4EE16expected_optionsEv
FNDA:6,_ZN5neml212CopyVariableINS_5SSFR5EE16expected_optionsEv
FNDA:6,_ZN5neml212CopyVariableINS_6SSSSR8EE16expected_optionsEv
FNDA:6,_ZN5neml212CopyVariableINS_6ScalarEE16expected_optionsEv
FNDA:0,_ZN5neml212CopyVariableINS_10QuaternionEEC2ERKNS_9OptionSetE
FNDA:0,_ZN5neml212CopyVariableINS_11MillerIndexEEC2ERKNS_9OptionSetE
FNDA:0,_ZN5neml212CopyVariableINS_2R2EEC2ERKNS_9OptionSetE
FNDA:0,_ZN5neml212CopyVariableINS_2R3EEC2ERKNS_9OptionSetE
FNDA:0,_ZN5neml212CopyVariableINS_2R4EEC2ERKNS_9OptionSetE
FNDA:0,_ZN5neml212CopyVariableINS_2R5EEC2ERKNS_9OptionSetE
FNDA:0,_ZN5neml212CopyVariableINS_2R8EEC2ERKNS_9OptionSetE
FNDA:0,_ZN5neml212CopyVariableINS_3RotEEC2ERKNS_9OptionSetE
FNDA:1,_ZN5neml212CopyVariableINS_3SR2EEC2ERKNS_9OptionSetE
FNDA:0,_ZN5neml212CopyVariableINS_3VecEEC2ERKNS_9OptionSetE
FNDA:0,_ZN5neml212CopyVariableINS_3WR2EEC2ERKNS_9OptionSetE
FNDA:0,_ZN5neml212CopyVariableINS_4SFR3EEC2ERKNS_9OptionSetE
FNDA:0,_ZN5neml212CopyVariableINS_4SSR4EEC2ERKNS_9OptionSetE
FNDA:0,_ZN5neml212CopyVariableINS_4SWR4EEC2ERKNS_9OptionSetE
FNDA:0,_ZN5neml212CopyVariableINS_4WSR4EEC2ERKNS_9OptionSetE
FNDA:0,_ZN5neml212CopyVariableINS_4WWR4EEC2ERKNS_9OptionSetE
FNDA:0,_ZN5neml212CopyVariableINS_5SFFR4EEC2ERKNS_9OptionSetE
FNDA:0,_ZN5neml212CopyVariableINS_5SSFR5EEC2ERKNS_9OptionSetE
FNDA:0,_ZN5neml212CopyVariableINS_6SSSSR8EEC2ERKNS_9OptionSetE
FNDA:3,_ZN5neml212CopyVariableINS_6ScalarEEC2ERKNS_9OptionSetE
FNDA:0,_ZN5neml212CopyVariableINS_10QuaternionEE9set_valueEbbb
FNDA:0,_ZN5neml212CopyVariableINS_11MillerIndexEE9set_valueEbbb
FNDA:0,_ZN5neml212CopyVariableINS_2R2EE9set_valueEbbb
FNDA:0,_ZN5neml212CopyVariableINS_2R3EE9set_valueEbbb
FNDA:0,_ZN5neml212CopyVariableINS_2R4EE9set_valueEbbb
FNDA:0,_ZN5neml212CopyVariableINS_2R5EE9set_valueEbbb
FNDA:0,_ZN5neml212CopyVariableINS_2R8EE9set_valueEbbb
FNDA:0,_ZN5neml212CopyVariableINS_3RotEE9set_valueEbbb
FNDA:171,_ZN5neml212CopyVariableINS_3SR2EE9set_valueEbbb
FNDA:0,_ZN5neml212CopyVariableINS_3VecEE9set_valueEbbb
FNDA:0,_ZN5neml212CopyVariableINS_3WR2EE9set_valueEbbb
FNDA:0,_ZN5neml212CopyVariableINS_4SFR3EE9set_valueEbbb
FNDA:0,_ZN5neml212CopyVariableINS_4SSR4EE9set_valueEbbb
FNDA:0,_ZN5neml212CopyVariableINS_4SWR4EE9set_valueEbbb
FNDA:0,_ZN5neml212CopyVariableINS_4WSR4EE9set_valueEbbb
FNDA:0,_ZN5neml212CopyVariableINS_4WWR4EE9set_valueEbbb
FNDA:0,_ZN5neml212CopyVariableINS_5SFFR4EE9set_valueEbbb
FNDA:0,_ZN5neml212CopyVariableINS_5SSFR5EE9set_valueEbbb
FNDA:0,_ZN5neml212CopyVariableINS_6SSSSR8EE9set_valueEbbb
FNDA:0,_ZN5neml212CopyVariableINS_6ScalarEE9set_valueEbbb
FNF:60
FNH:23
DA:34,120
DA:36,120
DA:37,120
DA:39,240
DA:40,240
DA:42,240
DA:43,120
DA:45,120
DA:46,0
DA:49,4
DA:51,4
DA:52,8
DA:54,4
DA:58,171
DA:60,171
DA:61,171
DA:63,171
DA:64,171
DA:65,81
DA:71,171
LF:20
LH:19
end_of_record
TN:
SF:/home/runner/work/neml2/neml2/src/neml2/models/Data.cxx
FN:30,35,_ZN5neml24Data16expected_optionsEv
FN:37,41,_ZN5neml24DataC2ERKNS_9OptionSetE
FNDA:793,_ZN5neml24Data16expected_optionsEv
FNDA:381,_ZN5neml24DataC2ERKNS_9OptionSetE
FNF:2
FNH:2
DA:30,793
DA:32,793
DA:33,793
DA:34,793
DA:35,0
DA:37,381
DA:39,381
DA:41,381
LF:8
LH:7
end_of_record
TN:
SF:/home/runner/work/neml2/neml2/src/neml2/models/ForwardEulerTimeIntegration.cxx
FN:36,55,_ZN5neml227ForwardEulerTimeIntegrationINS_3SR2EE16expected_optionsEv
FN:36,55,_ZN5neml227ForwardEulerTimeIntegrationINS_3VecEE16expected_optionsEv
FN:36,55,_ZN5neml227ForwardEulerTimeIntegrationINS_6ScalarEE16expected_optionsEv
FN:58,68,_ZN5neml227ForwardEulerTimeIntegrationINS_3SR2EEC2ERKNS_9OptionSetE
FN:58,68,_ZN5neml227ForwardEulerTimeIntegrationINS_3VecEEC2ERKNS_9OptionSetE
FN:58,68,_ZN5neml227ForwardEulerTimeIntegrationINS_6ScalarEEC2ERKNS_9OptionSetE
FN:72,78,_ZNK5neml227ForwardEulerTimeIntegrationINS_3SR2EE8diagnoseERSt6vectorINS_9DiagnosisESaIS4_EE
FN:72,78,_ZNK5neml227ForwardEulerTimeIntegrationINS_3VecEE8diagnoseERSt6vectorINS_9DiagnosisESaIS4_EE
FN:72,78,_ZNK5neml227ForwardEulerTimeIntegrationINS_6ScalarEE8diagnoseERSt6vectorINS_9DiagnosisESaIS4_EE
FN:82,102,_ZN5neml227ForwardEulerTimeIntegrationINS_3SR2EE9set_valueEbbb
FN:82,102,_ZN5neml227ForwardEulerTimeIntegrationINS_3VecEE9set_valueEbbb
FN:82,102,_ZN5neml227ForwardEulerTimeIntegrationINS_6ScalarEE9set_valueEbbb
FNDA:6,_ZN5neml227ForwardEulerTimeIntegrationINS_3SR2EE16expected_optionsEv
FNDA:6,_ZN5neml227ForwardEulerTimeIntegrationINS_3VecEE16expected_optionsEv
FNDA:6,_ZN5neml227ForwardEulerTimeIntegrationINS_6ScalarEE16expected_optionsEv
FNDA:3,_ZN5neml227ForwardEulerTimeIntegrationINS_3SR2EEC2ERKNS_9OptionSetE
FNDA:0,_ZN5neml227ForwardEulerTimeIntegrationINS_3VecEEC2ERKNS_9OptionSetE
FNDA:1,_ZN5neml227ForwardEulerTimeIntegrationINS_6ScalarEEC2ERKNS_9OptionSetE
FNDA:3,_ZNK5neml227ForwardEulerTimeIntegrationINS_3SR2EE8diagnoseERSt6vectorINS_9DiagnosisESaIS4_EE
FNDA:0,_ZNK5neml227ForwardEulerTimeIntegrationINS_3VecEE8diagnoseERSt6vectorINS_9DiagnosisESaIS4_EE
FNDA:0,_ZNK5neml227ForwardEulerTimeIntegrationINS_6ScalarEE8diagnoseERSt6vectorINS_9DiagnosisESaIS4_EE
FNDA:27,_ZN5neml227ForwardEulerTimeIntegrationINS_3SR2EE9set_valueEbbb
FNDA:0,_ZN5neml227ForwardEulerTimeIntegrationINS_3VecEE9set_valueEbbb
FNDA:10,_ZN5neml227ForwardEulerTimeIntegrationINS_6ScalarEE9set_valueEbbb
FNF:12
FNH:8
DA:36,18
DA:38,18
DA:39,18
DA:45,36
DA:46,36
DA:48,36
DA:49,18
DA:51,54
DA:52,18
DA:54,18
DA:55,0
DA:58,4
DA:60,4
DA:61,4
DA:62,4
DA:63,16
DA:64,4
DA:65,4
DA:66,8
DA:68,4
DA:72,3
DA:74,3
DA:75,3
DA:76,3
DA:77,3
DA:78,3
DA:82,37
DA:84,37
DA:86,37
DA:87,36
DA:89,37
DA:91,1
DA:93,1
DA:95,1
DA:96,0
DA:98,1
DA:99,1
DA:100,1
DA:101,1
LF:39
LH:37
end_of_record
TN:
SF:/home/runner/work/neml2/neml2/src/neml2/models/ImplicitUpdate.cxx
FN:107,168,_ZN5neml214ImplicitUpdate9set_valueEbbb
FN:35,49,_ZN5neml214ImplicitUpdate16expected_optionsEv
FN:51,70,_ZN5neml214ImplicitUpdateC2ERKNS_9OptionSetE
FN:73,96,_ZNK5neml214ImplicitUpdate8diagnoseERSt6vectorINS_9DiagnosisESaIS2_EE
FN:99,104,_ZN5neml214ImplicitUpdate21link_output_variablesEv
FNDA:152,_ZN5neml214ImplicitUpdate9set_valueEbbb
FNDA:6,_ZN5neml214ImplicitUpdate16expected_optionsEv
FNDA:8,_ZN5neml214ImplicitUpdateC2ERKNS_9OptionSetE
FNDA:5,_ZNK5neml214ImplicitUpdate8diagnoseERSt6vectorINS_9DiagnosisESaIS2_EE
FNDA:8,_ZN5neml214ImplicitUpdate21link_output_variablesEv
FNF:5
FNH:5
DA:35,6
DA:37,6
DA:38,6
DA:39,6
DA:41,12
DA:42,18
DA:43,6
DA:45,12
DA:46,6
DA:48,6
DA:49,0
DA:51,8
DA:53,8
DA:55,48
DA:57,8
DA:59,8
DA:61,8
DA:68,27
DA:69,19
DA:70,8
DA:73,5
DA:75,5
DA:76,10
DA:77,5
DA:79,5
DA:80,5
DA:81,5
DA:83,5
DA:84,10
DA:85,5
DA:87,5
DA:88,15
DA:90,5
DA:93,5
DA:95,5
DA:96,5
DA:99,8
DA:101,8
DA:102,27
DA:103,19
DA:104,8
DA:107,152
DA:109,152
DA:112,152
DA:113,152
DA:118,152
DA:121,152
DA:123,152
DA:124,152
DA:125,152
DA:126,152
DA:128,152
DA:140,151
DA:141,0
DA:145,152
DA:148,2
DA:149,2
DA:150,2
DA:151,2
DA:152,2
DA:155,2
DA:158,10
DA:160,8
DA:161,2
DA:163,6
DA:164,6
DA:165,12
DA:167,2
DA:168,152
LF:69
LH:67
end_of_record
TN:
SF:/home/runner/work/neml2/neml2/src/neml2/models/InputParameter.cxx
FN:34,42,_ZN5neml214InputParameterINS_10QuaternionEE16expected_optionsEv
FN:34,42,_ZN5neml214InputParameterINS_11MillerIndexEE16expected_optionsEv
FN:34,42,_ZN5neml214InputParameterINS_2R2EE16expected_optionsEv
FN:34,42,_ZN5neml214InputParameterINS_2R3EE16expected_optionsEv
FN:34,42,_ZN5neml214InputParameterINS_2R4EE16expected_optionsEv
FN:34,42,_ZN5neml214InputParameterINS_2R5EE16expected_optionsEv
FN:34,42,_ZN5neml214InputParameterINS_2R8EE16expected_optionsEv
FN:34,42,_ZN5neml214InputParameterINS_3RotEE16expected_optionsEv
FN:34,42,_ZN5neml214InputParameterINS_3SR2EE16expected_optionsEv
FN:34,42,_ZN5neml214InputParameterINS_3VecEE16expected_optionsEv
FN:34,42,_ZN5neml214InputParameterINS_3WR2EE16expected_optionsEv
FN:34,42,_ZN5neml214InputParameterINS_4SFR3EE16expected_optionsEv
FN:34,42,_ZN5neml214InputParameterINS_4SSR4EE16expected_optionsEv
FN:34,42,_ZN5neml214InputParameterINS_4SWR4EE16expected_optionsEv
FN:34,42,_ZN5neml214InputParameterINS_4WSR4EE16expected_optionsEv
FN:34,42,_ZN5neml214InputParameterINS_4WWR4EE16expected_optionsEv
FN:34,42,_ZN5neml214InputParameterINS_5SFFR4EE16expected_optionsEv
FN:34,42,_ZN5neml214InputParameterINS_5SSFR5EE16expected_optionsEv
FN:34,42,_ZN5neml214InputParameterINS_6SSSSR8EE16expected_optionsEv
FN:34,42,_ZN5neml214InputParameterINS_6ScalarEE16expected_optionsEv
FN:45,54,_ZN5neml214InputParameterINS_10QuaternionEEC2ERKNS_9OptionSetE
FN:45,54,_ZN5neml214InputParameterINS_11MillerIndexEEC2ERKNS_9OptionSetE
FN:45,54,_ZN5neml214InputParameterINS_2R2EEC2ERKNS_9OptionSetE
FN:45,54,_ZN5neml214InputParameterINS_2R3EEC2ERKNS_9OptionSetE
FN:45,54,_ZN5neml214InputParameterINS_2R4EEC2ERKNS_9OptionSetE
FN:45,54,_ZN5neml214InputParameterINS_2R5EEC2ERKNS_9OptionSetE
FN:45,54,_ZN5neml214InputParameterINS_2R8EEC2ERKNS_9OptionSetE
FN:45,54,_ZN5neml214InputParameterINS_3RotEEC2ERKNS_9OptionSetE
FN:45,54,_ZN5neml214InputParameterINS_3SR2EEC2ERKNS_9OptionSetE
FN:45,54,_ZN5neml214InputParameterINS_3VecEEC2ERKNS_9OptionSetE
FN:45,54,_ZN5neml214InputParameterINS_3WR2EEC2ERKNS_9OptionSetE
FN:45,54,_ZN5neml214InputParameterINS_4SFR3EEC2ERKNS_9OptionSetE
FN:45,54,_ZN5neml214InputParameterINS_4SSR4EEC2ERKNS_9OptionSetE
FN:45,54,_ZN5neml214InputParameterINS_4SWR4EEC2ERKNS_9OptionSetE
FN:45,54,_ZN5neml214InputParameterINS_4WSR4EEC2ERKNS_9OptionSetE
FN:45,54,_ZN5neml214InputParameterINS_4WWR4EEC2ERKNS_9OptionSetE
FN:45,54,_ZN5neml214InputParameterINS_5SFFR4EEC2ERKNS_9OptionSetE
FN:45,54,_ZN5neml214InputParameterINS_5SSFR5EEC2ERKNS_9OptionSetE
FN:45,54,_ZN5neml214InputParameterINS_6SSSSR8EEC2ERKNS_9OptionSetE
FN:45,54,_ZN5neml214InputParameterINS_6ScalarEEC2ERKNS_9OptionSetE
FN:58,69,_ZN5neml214InputParameterINS_10QuaternionEE9set_valueEbbb
FN:58,69,_ZN5neml214InputParameterINS_11MillerIndexEE9set_valueEbbb
FN:58,69,_ZN5neml214InputParameterINS_2R2EE9set_valueEbbb
FN:58,69,_ZN5neml214InputParameterINS_2R3EE9set_valueEbbb
FN:58,69,_ZN5neml214InputParameterINS_2R4EE9set_valueEbbb
FN:58,69,_ZN5neml214InputParameterINS_2R5EE9set_valueEbbb
FN:58,69,_ZN5neml214InputParameterINS_2R8EE9set_valueEbbb
FN:58,69,_ZN5neml214InputParameterINS_3RotEE9set_valueEbbb
FN:58,69,_ZN5neml214InputParameterINS_3SR2EE9set_valueEbbb
FN:58,69,_ZN5neml214InputParameterINS_3VecEE9set_valueEbbb
FN:58,69,_ZN5neml214InputParameterINS_3WR2EE9set_valueEbbb
FN:58,69,_ZN5neml214InputParameterINS_4SFR3EE9set_valueEbbb
FN:58,69,_ZN5neml214InputParameterINS_4SSR4EE9set_valueEbbb
FN:58,69,_ZN5neml214InputParameterINS_4SWR4EE9set_valueEbbb
FN:58,69,_ZN5neml214InputParameterINS_4WSR4EE9set_valueEbbb
FN:58,69,_ZN5neml214InputParameterINS_4WWR4EE9set_valueEbbb
FN:58,69,_ZN5neml214InputParameterINS_5SFFR4EE9set_valueEbbb
FN:58,69,_ZN5neml214InputParameterINS_5SSFR5EE9set_valueEbbb
FN:58,69,_ZN5neml214InputParameterINS_6SSSSR8EE9set_valueEbbb
FN:58,69,_ZN5neml214InputParameterINS_6ScalarEE9set_valueEbbb
FNDA:6,_ZN5neml214InputParameterINS_10QuaternionEE16expected_optionsEv
FNDA:6,_ZN5neml214InputParameterINS_11MillerIndexEE16expected_optionsEv
FNDA:6,_ZN5neml214InputParameterINS_2R2EE16expected_optionsEv
FNDA:6,_ZN5neml214InputParameterINS_2R3EE16expected_optionsEv
FNDA:6,_ZN5neml214InputParameterINS_2R4EE16expected_optionsEv
FNDA:6,_ZN5neml214InputParameterINS_2R5EE16expected_optionsEv
FNDA:6,_ZN5neml214InputParameterINS_2R8EE16expected_optionsEv
FNDA:6,_ZN5neml214InputParameterINS_3RotEE16expected_optionsEv
FNDA:6,_ZN5neml214InputParameterINS_3SR2EE16expected_optionsEv
FNDA:6,_ZN5neml214InputParameterINS_3VecEE16expected_optionsEv
FNDA:6,_ZN5neml214InputParameterINS_3WR2EE16expected_optionsEv
FNDA:6,_ZN5neml214InputParameterINS_4SFR3EE16expected_optionsEv
FNDA:6,_ZN5neml214InputParameterINS_4SSR4EE16expected_optionsEv
FNDA:6,_ZN5neml214InputParameterINS_4SWR4EE16expected_optionsEv
FNDA:6,_ZN5neml214InputParameterINS_4WSR4EE16expected_optionsEv
FNDA:6,_ZN5neml214InputParameterINS_4WWR4EE16expected_optionsEv
FNDA:6,_ZN5neml214InputParameterINS_5SFFR4EE16expected_optionsEv
FNDA:6,_ZN5neml214InputParameterINS_5SSFR5EE16expected_optionsEv
FNDA:6,_ZN5neml214InputParameterINS_6SSSSR8EE16expected_optionsEv
FNDA:6,_ZN5neml214InputParameterINS_6ScalarEE16expected_optionsEv
FNDA:0,_ZN5neml214InputParameterINS_10QuaternionEEC2ERKNS_9OptionSetE
FNDA:0,_ZN5neml214InputParameterINS_11MillerIndexEEC2ERKNS_9OptionSetE
FNDA:0,_ZN5neml214InputParameterINS_2R2EEC2ERKNS_9OptionSetE
FNDA:0,_ZN5neml214InputParameterINS_2R3EEC2ERKNS_9OptionSetE
FNDA:0,_ZN5neml214InputParameterINS_2R4EEC2ERKNS_9OptionSetE
FNDA:0,_ZN5neml214InputParameterINS_2R5EEC2ERKNS_9OptionSetE
FNDA:0,_ZN5neml214InputParameterINS_2R8EEC2ERKNS_9OptionSetE
FNDA:0,_ZN5neml214InputParameterINS_3RotEEC2ERKNS_9OptionSetE
FNDA:0,_ZN5neml214InputParameterINS_3SR2EEC2ERKNS_9OptionSetE
FNDA:0,_ZN5neml214InputParameterINS_3VecEEC2ERKNS_9OptionSetE
FNDA:0,_ZN5neml214InputParameterINS_3WR2EEC2ERKNS_9OptionSetE
FNDA:0,_ZN5neml214InputParameterINS_4SFR3EEC2ERKNS_9OptionSetE
FNDA:2,_ZN5neml214InputParameterINS_4SSR4EEC2ERKNS_9OptionSetE
FNDA:0,_ZN5neml214InputParameterINS_4SWR4EEC2ERKNS_9OptionSetE
FNDA:0,_ZN5neml214InputParameterINS_4WSR4EEC2ERKNS_9OptionSetE
FNDA:0,_ZN5neml214InputParameterINS_4WWR4EEC2ERKNS_9OptionSetE
FNDA:0,_ZN5neml214InputParameterINS_5SFFR4EEC2ERKNS_9OptionSetE
FNDA:0,_ZN5neml214InputParameterINS_5SSFR5EEC2ERKNS_9OptionSetE
FNDA:0,_ZN5neml214InputParameterINS_6SSSSR8EEC2ERKNS_9OptionSetE
FNDA:45,_ZN5neml214InputParameterINS_6ScalarEEC2ERKNS_9OptionSetE
FNDA:0,_ZN5neml214InputParameterINS_10QuaternionEE9set_valueEbbb
FNDA:0,_ZN5neml214InputParameterINS_11MillerIndexEE9set_valueEbbb
FNDA:0,_ZN5neml214InputParameterINS_2R2EE9set_valueEbbb
FNDA:0,_ZN5neml214InputParameterINS_2R3EE9set_valueEbbb
FNDA:0,_ZN5neml214InputParameterINS_2R4EE9set_valueEbbb
FNDA:0,_ZN5neml214InputParameterINS_2R5EE9set_valueEbbb
FNDA:0,_ZN5neml214InputParameterINS_2R8EE9set_valueEbbb
FNDA:0,_ZN5neml214InputParameterINS_3RotEE9set_valueEbbb
FNDA:0,_ZN5neml214InputParameterINS_3SR2EE9set_valueEbbb
FNDA:0,_ZN5neml214InputParameterINS_3VecEE9set_valueEbbb
FNDA:0,_ZN5neml214InputParameterINS_3WR2EE9set_valueEbbb
FNDA:0,_ZN5neml214InputParameterINS_4SFR3EE9set_valueEbbb
FNDA:100,_ZN5neml214InputParameterINS_4SSR4EE9set_valueEbbb
FNDA:0,_ZN5neml214InputParameterINS_4SWR4EE9set_valueEbbb
FNDA:0,_ZN5neml214InputParameterINS_4WSR4EE9set_valueEbbb
FNDA:0,_ZN5neml214InputParameterINS_4WWR4EE9set_valueEbbb
FNDA:0,_ZN5neml214InputParameterINS_5SFFR4EE9set_valueEbbb
FNDA:0,_ZN5neml214InputParameterINS_5SSFR5EE9set_valueEbbb
FNDA:0,_ZN5neml214InputParameterINS_6SSSSR8EE9set_valueEbbb
FNDA:1278,_ZN5neml214InputParameterINS_6ScalarEE9set_valueEbbb
FNF:60
FNH:24
DA:34,120
DA:36,120
DA:37,120
DA:39,240
DA:40,120
DA:41,120
DA:42,0
DA:45,47
DA:47,47
DA:49,47
DA:52,47
DA:54,47
DA:58,1378
DA:60,1378
DA:61,1378
DA:63,1378
DA:64,794
DA:65,794
DA:69,1378
LF:19
LH:18
end_of_record
TN:
SF:/home/runner/work/neml2/neml2/src/neml2/models/LabeledAxis.cxx
FN:132,145,_ZNK5neml211LabeledAxis4sizeEv
FN:148,176,_ZNK5neml211LabeledAxis4sizeERKNS_19LabeledAxisAccessorE
FN:179,195,_ZNK5neml211LabeledAxis5sliceERKNS_19LabeledAxisAccessorE
FN:198,209,_ZNK5neml211LabeledAxis9nvariableEv
FN:212,227,_ZNK5neml211LabeledAxis12has_variableERKNS_19LabeledAxisAccessorE
FN:230,241,_ZNK5neml211LabeledAxis11variable_idERKNS_19LabeledAxisAccessorE
FN:244,248,_ZNK5neml211LabeledAxis14variable_namesEv
FN:251,255,_ZNK5neml211LabeledAxis15variable_slicesEv
FN:258,262,_ZNK5neml211LabeledAxis14variable_sliceERKNS_19LabeledAxisAccessorE
FN:265,269,_ZNK5neml211LabeledAxis14variable_sizesEv
FN:272,291,_ZNK5neml211LabeledAxis13variable_sizeERKNS_19LabeledAxisAccessorE
FN:29,32,_ZN5neml211LabeledAxisC2ERKNS_19LabeledAxisAccessorE
FN:294,297,_ZNK5neml211LabeledAxis8nsubaxisEv
FN:300,310,_ZNK5neml211LabeledAxis11has_subaxisERKNS_19LabeledAxisAccessorE
FN:313,323,_ZNK5neml211LabeledAxis10subaxis_idERKSs
FN:326,330,_ZNK5neml211LabeledAxis7subaxesEv
FN:333,345,_ZNK5neml211LabeledAxis7subaxisERKNS_19LabeledAxisAccessorE
FN:348,352,_ZN5neml211LabeledAxis7subaxisERKNS_19LabeledAxisAccessorE
FN:35,38,_ZNK5neml211LabeledAxis7qualifyERKNS_19LabeledAxisAccessorE
FN:355,359,_ZNK5neml211LabeledAxis13subaxis_namesEv
FN:362,366,_ZNK5neml211LabeledAxis14subaxis_slicesEv
FN:369,384,_ZNK5neml211LabeledAxis13subaxis_sliceERKNS_19LabeledAxisAccessorE
FN:387,391,_ZNK5neml211LabeledAxis13subaxis_sizesEv
FN:394,404,_ZNK5neml211LabeledAxis12subaxis_sizeERKNS_19LabeledAxisAccessorE
FN:407,428,_ZNK5neml211LabeledAxis6equalsERKS0_
FN:41,51,_ZN5neml211LabeledAxis11add_subaxisERKSs
FN:431,445,_ZN5neml211LabeledAxis22cache_reserved_subaxisERKSs
FN:448,451,_ZNK5neml211LabeledAxis16ensure_setup_dbgEv
FN:454,481,_ZN5neml2lsERSoRKNS_11LabeledAxisE
FN:484,487,_ZN5neml2eqERKNS_11LabeledAxisES2_
FN:490,493,_ZN5neml2neERKNS_11LabeledAxisES2_
FN:54,69,_ZN5neml211LabeledAxis12add_variableERKNS_19LabeledAxisAccessorEl
FN:72,129,_ZN5neml211LabeledAxis12setup_layoutEv
FNDA:1344,_ZNK5neml211LabeledAxis4sizeEv
FNDA:78,_ZNK5neml211LabeledAxis4sizeERKNS_19LabeledAxisAccessorE
FNDA:27,_ZNK5neml211LabeledAxis5sliceERKNS_19LabeledAxisAccessorE
FNDA:13,_ZNK5neml211LabeledAxis9nvariableEv
FNDA:821,_ZNK5neml211LabeledAxis12has_variableERKNS_19LabeledAxisAccessorE
FNDA:88,_ZNK5neml211LabeledAxis11variable_idERKNS_19LabeledAxisAccessorE
FNDA:5834,_ZNK5neml211LabeledAxis14variable_namesEv
FNDA:16,_ZNK5neml211LabeledAxis15variable_slicesEv
FNDA:40,_ZNK5neml211LabeledAxis14variable_sliceERKNS_19LabeledAxisAccessorE
FNDA:47187,_ZNK5neml211LabeledAxis14variable_sizesEv
FNDA:62,_ZNK5neml211LabeledAxis13variable_sizeERKNS_19LabeledAxisAccessorE
FNDA:1862,_ZN5neml211LabeledAxisC2ERKNS_19LabeledAxisAccessorE
FNDA:13,_ZNK5neml211LabeledAxis8nsubaxisEv
FNDA:27,_ZNK5neml211LabeledAxis11has_subaxisERKNS_19LabeledAxisAccessorE
FNDA:17,_ZNK5neml211LabeledAxis10subaxis_idERKSs
FNDA:2,_ZNK5neml211LabeledAxis7subaxesEv
FNDA:5716,_ZNK5neml211LabeledAxis7subaxisERKNS_19LabeledAxisAccessorE
FNDA:5619,_ZN5neml211LabeledAxis7subaxisERKNS_19LabeledAxisAccessorE
FNDA:20669,_ZNK5neml211LabeledAxis7qualifyERKNS_19LabeledAxisAccessorE
FNDA:7,_ZNK5neml211LabeledAxis13subaxis_namesEv
FNDA:3,_ZNK5neml211LabeledAxis14subaxis_slicesEv
FNDA:14,_ZNK5neml211LabeledAxis13subaxis_sliceERKNS_19LabeledAxisAccessorE
FNDA:7,_ZNK5neml211LabeledAxis13subaxis_sizesEv
FNDA:14,_ZNK5neml211LabeledAxis12subaxis_sizeERKNS_19LabeledAxisAccessorE
FNDA:10,_ZNK5neml211LabeledAxis6equalsERKS0_
FNDA:1862,_ZN5neml211LabeledAxis11add_subaxisERKSs
FNDA:1370,_ZN5neml211LabeledAxis22cache_reserved_subaxisERKSs
FNDA:53242,_ZNK5neml211LabeledAxis16ensure_setup_dbgEv
FNDA:0,_ZN5neml2lsERSoRKNS_11LabeledAxisE
FNDA:6,_ZN5neml2eqERKNS_11LabeledAxisES2_
FNDA:4,_ZN5neml2neERKNS_11LabeledAxisES2_
FNDA:3415,_ZN5neml211LabeledAxis12add_variableERKNS_19LabeledAxisAccessorEl
FNDA:2025,_ZN5neml211LabeledAxis12setup_layoutEv
FNF:33
FNH:32
DA:29,1862
DA:30,1862
DA:32,1862
DA:35,20669
DA:37,20669
DA:41,1862
DA:43,1862
DA:44,1862
DA:45,1862
DA:46,1862
DA:47,1862
DA:48,1862
DA:49,1370
DA:50,3724
DA:54,3415
DA:56,3415
DA:57,3415
DA:59,3415
DA:61,1679
DA:63,1679
DA:65,1679
DA:68,1736
DA:69,3415
DA:72,2025
DA:75,2025
DA:77,2025
DA:78,2025
DA:79,2025
DA:80,2025
DA:82,2025
DA:83,2025
DA:84,2025
DA:85,2025
DA:86,2025
DA:89,3536
DA:91,1511
DA:92,1511
DA:93,1511
DA:94,1511
DA:95,1511
DA:99,3332
DA:101,1307
DA:102,1307
DA:103,1307
DA:104,1307
DA:105,1307
DA:106,1307
DA:107,1307
DA:108,1307
DA:111,3253
DA:113,1946
DA:114,1946
DA:115,1946
DA:116,1946
DA:117,1946
DA:120,1946
DA:121,1946
DA:122,1946
DA:123,1946
DA:124,1946
DA:128,2025
DA:129,2025
DA:132,1344
DA:135,1344
DA:136,1321
DA:139,23
DA:140,69
DA:141,46
DA:142,32
DA:143,9
DA:144,23
DA:148,78
DA:150,78
DA:153,78
DA:155,46
DA:156,46
DA:157,36
DA:159,10
DA:160,10
DA:165,10
DA:169,32
DA:170,32
DA:175,32
DA:179,27
DA:181,27
DA:182,27
DA:185,27
DA:186,22
DA:189,5
DA:194,5
DA:198,13
DA:201,13
DA:202,4
DA:205,9
DA:206,14
DA:207,5
DA:208,9
DA:212,821
DA:214,821
DA:217,821
DA:218,202
DA:219,404
DA:222,619
DA:223,198
DA:225,421
DA:226,421
DA:230,88
DA:232,88
DA:233,88
DA:234,88
DA:235,88
DA:240,176
DA:244,5834
DA:246,5834
DA:247,5834
DA:251,16
DA:253,16
DA:254,16
DA:258,40
DA:260,40
DA:261,40
DA:265,47187
DA:267,47187
DA:268,47187
DA:272,62
DA:275,62
DA:276,30
DA:279,32
DA:281,18
DA:282,18
DA:283,18
DA:284,18
DA:287,14
DA:288,14
DA:289,14
DA:290,14
DA:294,13
DA:296,13
DA:300,27
DA:302,27
DA:304,27
DA:306,27
DA:307,23
DA:309,4
DA:313,17
DA:315,17
DA:316,17
DA:317,17
DA:322,34
DA:326,2
DA:328,2
DA:329,2
DA:333,5716
DA:335,5716
DA:337,5716
DA:338,5716
DA:339,5716
DA:341,5716
DA:342,5712
DA:344,4
DA:348,5619
DA:351,5619
DA:355,7
DA:357,7
DA:358,7
DA:362,3
DA:364,3
DA:365,3
DA:369,14
DA:371,14
DA:374,14
DA:375,10
DA:378,4
DA:379,4
DA:380,4
DA:381,4
DA:382,4
DA:383,4
DA:384,4
DA:387,7
DA:389,7
DA:390,7
DA:394,14
DA:396,14
DA:397,14
DA:398,14
DA:400,14
DA:401,10
DA:403,4
DA:407,10
DA:410,10
DA:411,2
DA:414,8
DA:415,0
DA:418,10
DA:420,2
DA:421,0
DA:423,2
DA:424,0
DA:427,8
DA:431,1370
DA:433,1370
DA:434,449
DA:435,921
DA:436,59
DA:437,862
DA:438,128
DA:439,734
DA:440,64
DA:441,670
DA:442,48
DA:443,622
DA:444,110
DA:445,1370
DA:448,53242
DA:450,53242
DA:451,53242
DA:454,0
DA:457,0
DA:460,0
DA:461,0
DA:463,0
DA:464,0
DA:465,0
DA:466,0
DA:469,0
DA:471,0
DA:472,0
DA:473,0
DA:474,0
DA:475,0
DA:476,0
DA:477,0
DA:480,0
DA:481,0
DA:484,6
DA:486,6
DA:490,4
DA:492,4
LF:239
LH:218
end_of_record
TN:
SF:/home/runner/work/neml2/neml2/src/neml2/models/LabeledAxisAccessor.cxx
FN:104,107,_ZNK5neml219LabeledAxisAccessor10start_withERKS0_
FN:110,120,_ZNK5neml219LabeledAxisAccessor3oldEv
FN:123,131,_ZNK5neml219LabeledAxisAccessor18validate_item_nameERKSs
FN:134,137,_ZN5neml2neERKNS_19LabeledAxisAccessorES2_
FN:140,143,_ZN5neml2eqERKNS_19LabeledAxisAccessorES2_
FN:146,149,_ZN5neml2ltERKNS_19LabeledAxisAccessorES2_
FN:152,161,_ZN5neml2lsERSoRKNS_19LabeledAxisAccessorE
FN:31,35,_ZNK5neml219LabeledAxisAccessorcvSt6vectorISsSaISsEEEv
FN:38,41,_ZNK5neml219LabeledAxisAccessor5emptyEv
FN:44,47,_ZNK5neml219LabeledAxisAccessor4sizeEv
FN:50,53,_ZNK5neml219LabeledAxisAccessorixEm
FN:56,61,_ZNK5neml219LabeledAxisAccessor11with_suffixERKSs
FN:64,67,_ZNK5neml219LabeledAxisAccessor6appendERKS0_
FN:70,75,_ZNK5neml219LabeledAxisAccessor7prependERKS0_
FN:78,84,_ZNK5neml219LabeledAxisAccessor5sliceEl
FN:87,95,_ZNK5neml219LabeledAxisAccessor5sliceEll
FN:98,101,_ZNK5neml219LabeledAxisAccessor7remountERKS0_l
FNDA:7852,_ZNK5neml219LabeledAxisAccessor10start_withERKS0_
FNDA:81,_ZNK5neml219LabeledAxisAccessor3oldEv
FNDA:89479,_ZNK5neml219LabeledAxisAccessor18validate_item_nameERKSs
FNDA:7125,_ZN5neml2neERKNS_19LabeledAxisAccessorES2_
FNDA:15541,_ZN5neml2eqERKNS_19LabeledAxisAccessorES2_
FNDA:784080,_ZN5neml2ltERKNS_19LabeledAxisAccessorES2_
FNDA:1026,_ZN5neml2lsERSoRKNS_19LabeledAxisAccessorE
FNDA:1,_ZNK5neml219LabeledAxisAccessorcvSt6vectorISsSaISsEEEv
FNDA:11106,_ZNK5neml219LabeledAxisAccessor5emptyEv
FNDA:35641,_ZNK5neml219LabeledAxisAccessor4sizeEv
FNDA:14971,_ZNK5neml219LabeledAxisAccessorixEm
FNDA:92,_ZNK5neml219LabeledAxisAccessor11with_suffixERKSs
FNDA:1863,_ZNK5neml219LabeledAxisAccessor6appendERKS0_
FNDA:25451,_ZNK5neml219LabeledAxisAccessor7prependERKS0_
FNDA:2166,_ZNK5neml219LabeledAxisAccessor5sliceEl
FNDA:7854,_ZNK5neml219LabeledAxisAccessor5sliceEll
FNDA:128,_ZNK5neml219LabeledAxisAccessor7remountERKS0_l
FNF:17
FNH:17
DA:31,1
DA:33,1
DA:34,1
DA:38,11106
DA:40,11106
DA:44,35641
DA:46,35641
DA:50,14971
DA:52,14971
DA:56,92
DA:58,92
DA:59,92
DA:60,184
DA:61,92
DA:64,1863
DA:66,1863
DA:70,25451
DA:72,25451
DA:73,25451
DA:74,50902
DA:75,25451
DA:78,2166
DA:80,2166
DA:81,2166
DA:82,2166
DA:83,4332
DA:84,2166
DA:87,7854
DA:89,7854
DA:90,7854
DA:91,7854
DA:92,7854
DA:93,7854
DA:94,15708
DA:95,7854
DA:98,128
DA:100,128
DA:104,7852
DA:106,7852
DA:110,81
DA:113,81
DA:114,81
DA:115,35
DA:116,46
DA:117,46
DA:118,0
DA:119,0
DA:123,89479
DA:125,89479
DA:126,89479
DA:127,89479
DA:131,89478
DA:134,7125
DA:136,7125
DA:140,15541
DA:142,15541
DA:146,784080
DA:148,784080
DA:152,1026
DA:154,2903
DA:156,1877
DA:157,1067
DA:158,1877
DA:160,1026
LF:64
LH:62
end_of_record
TN:
SF:/home/runner/work/neml2/neml2/src/neml2/models/LinearCombination.cxx
FN:37,63,_ZN5neml217LinearCombinationINS_3SR2EE16expected_optionsEv
FN:37,63,_ZN5neml217LinearCombinationINS_3VecEE16expected_optionsEv
FN:37,63,_ZN5neml217LinearCombinationINS_6ScalarEE16expected_optionsEv
FN:66,75,_ZN5neml217LinearCombinationINS_3SR2EEC2ERKNS_9OptionSetE
FN:66,75,_ZN5neml217LinearCombinationINS_3VecEEC2ERKNS_9OptionSetE
FN:66,75,_ZN5neml217LinearCombinationINS_6ScalarEEC2ERKNS_9OptionSetE
FN:79,85,_ZNK5neml217LinearCombinationINS_3SR2EE9make_coefERKNS_9OptionSetE
FN:79,85,_ZNK5neml217LinearCombinationINS_3VecEE9make_coefERKNS_9OptionSetE
FN:79,85,_ZNK5neml217LinearCombinationINS_6ScalarEE9make_coefERKNS_9OptionSetE
FN:89,119,_ZN5neml217LinearCombinationINS_3SR2EE9set_valueEbbb
FN:89,119,_ZN5neml217LinearCombinationINS_3VecEE9set_valueEbbb
FN:89,119,_ZN5neml217LinearCombinationINS_6ScalarEE9set_valueEbbb
FNDA:6,_ZN5neml217LinearCombinationINS_3SR2EE16expected_optionsEv
FNDA:6,_ZN5neml217LinearCombinationINS_3VecEE16expected_optionsEv
FNDA:8,_ZN5neml217LinearCombinationINS_6ScalarEE16expected_optionsEv
FNDA:10,_ZN5neml217LinearCombinationINS_3SR2EEC2ERKNS_9OptionSetE
FNDA:0,_ZN5neml217LinearCombinationINS_3VecEEC2ERKNS_9OptionSetE
FNDA:7,_ZN5neml217LinearCombinationINS_6ScalarEEC2ERKNS_9OptionSetE
FNDA:10,_ZNK5neml217LinearCombinationINS_3SR2EE9make_coefERKNS_9OptionSetE
FNDA:0,_ZNK5neml217LinearCombinationINS_3VecEE9make_coefERKNS_9OptionSetE
FNDA:7,_ZNK5neml217LinearCombinationINS_6ScalarEE9make_coefERKNS_9OptionSetE
FNDA:1020,_ZN5neml217LinearCombinationINS_3SR2EE9set_valueEbbb
FNDA:0,_ZN5neml217LinearCombinationINS_3VecEE9set_valueEbbb
FNDA:102,_ZN5neml217LinearCombinationINS_6ScalarEE9set_valueEbbb
FNF:12
FNH:9
DA:37,20
DA:41,20
DA:43,20
DA:44,20
DA:48,20
DA:49,60
DA:51,40
DA:52,20
DA:54,60
DA:55,40
DA:57,40
DA:58,20
DA:62,40
DA:63,100
DA:66,17
DA:68,17
DA:69,17
DA:70,51
DA:71,85
DA:73,70
DA:74,36
DA:75,17
DA:79,17
DA:81,34
DA:82,34
DA:83,17
DA:84,34
DA:85,17
DA:89,1122
DA:91,1122
DA:93,1122
DA:95,1120
DA:96,3390
DA:97,2270
DA:100,1120
DA:101,3390
DA:102,2270
DA:104,1120
DA:105,1120
DA:107,1122
DA:109,620
DA:110,1861
DA:111,1241
DA:112,3513
DA:113,620
DA:119,2293
LF:46
LH:46
end_of_record
TN:
SF:/home/runner/work/neml2/neml2/src/neml2/models/LinearInterpolation.cxx
FN:36,41,_ZN5neml219LinearInterpolationINS_3SR2EE16expected_optionsEv
FN:36,41,_ZN5neml219LinearInterpolationINS_3VecEE16expected_optionsEv
FN:36,41,_ZN5neml219LinearInterpolationINS_6ScalarEE16expected_optionsEv
FN:44,47,_ZN5neml219LinearInterpolationINS_3SR2EEC2ERKNS_9OptionSetE
FN:44,47,_ZN5neml219LinearInterpolationINS_3VecEEC2ERKNS_9OptionSetE
FN:44,47,_ZN5neml219LinearInterpolationINS_6ScalarEEC2ERKNS_9OptionSetE
FN:51,82,_ZN5neml219LinearInterpolationINS_3SR2EE9set_valueEbbb
FN:51,82,_ZN5neml219LinearInterpolationINS_3VecEE9set_valueEbbb
FN:51,82,_ZN5neml219LinearInterpolationINS_6ScalarEE9set_valueEbbb
FNDA:6,_ZN5neml219LinearInterpolationINS_3SR2EE16expected_optionsEv
FNDA:6,_ZN5neml219LinearInterpolationINS_3VecEE16expected_optionsEv
FNDA:6,_ZN5neml219LinearInterpolationINS_6ScalarEE16expected_optionsEv
FNDA:4,_ZN5neml219LinearInterpolationINS_3SR2EEC2ERKNS_9OptionSetE
FNDA:0,_ZN5neml219LinearInterpolationINS_3VecEEC2ERKNS_9OptionSetE
FNDA:5,_ZN5neml219LinearInterpolationINS_6ScalarEEC2ERKNS_9OptionSetE
FNDA:28,_ZN5neml219LinearInterpolationINS_3SR2EE9set_valueEbbb
FNDA:0,_ZN5neml219LinearInterpolationINS_3VecEE9set_valueEbbb
FNDA:58,_ZN5neml219LinearInterpolationINS_6ScalarEE9set_valueEbbb
FNF:9
FNH:7
DA:36,18
DA:38,18
DA:39,18
DA:40,18
DA:41,0
DA:44,9
DA:45,9
DA:47,9
DA:51,86
DA:53,86
DA:54,86
DA:55,344
DA:57,344
DA:59,344
DA:62,86
DA:63,86
DA:65,86
DA:67,86
DA:69,54
DA:70,54
DA:71,54
DA:72,54
DA:74,86
DA:75,44
DA:76,44
DA:82,602
LF:26
LH:25
end_of_record
TN:
SF:/home/runner/work/neml2/neml2/src/neml2/models/Model.cxx
FN:119,133,_ZN5neml25Model5setupEv
FN:136,143,_ZN5neml25Model20link_input_variablesEv
FN:146,150,_ZN5neml25Model20link_input_variablesEPS0_
FN:153,160,_ZN5neml25Model21link_output_variablesEv
FN:163,165,_ZN5neml25Model21link_output_variablesEPS0_
FN:168,173,_ZN5neml25Model10request_ADERNS_12VariableBaseERKS1_
FN:176,181,_ZN5neml25Model10request_ADERNS_12VariableBaseERKS1_S4_
FN:184,189,_ZN5neml25Model11clear_inputEv
FN:192,197,_ZN5neml25Model12clear_outputEv
FN:200,205,_ZN5neml25Model10zero_inputEv
FN:208,213,_ZN5neml25Model11zero_outputEv
FN:216,223,_ZN5neml25Model5valueERKSt3mapINS_19LabeledAxisAccessorENS_6TensorESt4lessIS2_ESaISt4pairIKS2_S3_EEE
FN:226,233,_ZN5neml25Model16value_and_dvalueERKSt3mapINS_19LabeledAxisAccessorENS_6TensorESt4lessIS2_ESaISt4pairIKS2_S3_EEE
FN:236,243,_ZN5neml25Model6dvalueERKSt3mapINS_19LabeledAxisAccessorENS_6TensorESt4lessIS2_ESaISt4pairIKS2_S3_EEE
FN:248,255,_ZN5neml25Model28value_and_dvalue_and_d2valueERKSt3mapINS_19LabeledAxisAccessorENS_6TensorESt4lessIS2_ESaISt4pairIKS2_S3_EEE
FN:259,266,_ZN5neml25Model18dvalue_and_d2valueERKSt3mapINS_19LabeledAxisAccessorENS_6TensorESt4lessIS2_ESaISt4pairIKS2_S3_EEE
FN:269,276,_ZN5neml25Model7d2valueERKSt3mapINS_19LabeledAxisAccessorENS_6TensorESt4lessIS2_ESaISt4pairIKS2_S3_EEE
FN:279,282,_ZN5neml25Model5valueEv
FN:285,290,_ZN5neml25Model16value_and_dvalueEv
FN:293,298,_ZN5neml25Model6dvalueEv
FN:301,306,_ZN5neml25Model28value_and_dvalue_and_d2valueEv
FN:309,314,_ZN5neml25Model18dvalue_and_d2valueEv
FN:317,322,_ZN5neml25Model7d2valueEv
FN:325,333,_ZNK5neml25Model16registered_modelERKSs
FN:33,45,_ZN5neml25Model16expected_optionsEv
FN:336,340,_ZNK5neml25Model14consumed_itemsEv
FN:343,347,_ZNK5neml25Model14provided_itemsEv
FN:350,354,_ZN5neml25Model9set_guessERKNS_15NonlinearSystem3SOLILb0EEE
FN:357,377,_ZN5neml25Model8assembleEPNS_15NonlinearSystem3RESILb0EEEPNS1_3JACILb0EEE
FN:380,393,_ZNK5neml25Model13AD_need_valueEbb
FN:396,400,_ZN5neml25Model9enable_ADEv
FN:403,456,_ZN5neml25Model22extract_AD_derivativesEbb
FN:47,55,_ZN5neml25ModelC2ERKNS_9OptionSetE
FN:58,65,_ZN5neml25Model2toERKN3c1013TensorOptionsE
FN:68,91,_ZNK5neml25Model8diagnoseERSt6vectorINS_9DiagnosisESaIS2_EE
FN:94,116,_ZNK5neml25Model15diagnose_nl_sysERSt6vectorINS_9DiagnosisESaIS2_EE
FNDA:346,_ZN5neml25Model5setupEv
FNDA:347,_ZN5neml25Model20link_input_variablesEv
FNDA:12,_ZN5neml25Model20link_input_variablesEPS0_
FNDA:347,_ZN5neml25Model21link_output_variablesEv
FNDA:12,_ZN5neml25Model21link_output_variablesEPS0_
FNDA:12,_ZN5neml25Model10request_ADERNS_12VariableBaseERKS1_
FNDA:48,_ZN5neml25Model10request_ADERNS_12VariableBaseERKS1_S4_
FNDA:0,_ZN5neml25Model11clear_inputEv
FNDA:0,_ZN5neml25Model12clear_outputEv
FNDA:6641,_ZN5neml25Model10zero_inputEv
FNDA:6641,_ZN5neml25Model11zero_outputEv
FNDA:1349,_ZN5neml25Model5valueERKSt3mapINS_19LabeledAxisAccessorENS_6TensorESt4lessIS2_ESaISt4pairIKS2_S3_EEE
FNDA:0,_ZN5neml25Model16value_and_dvalueERKSt3mapINS_19LabeledAxisAccessorENS_6TensorESt4lessIS2_ESaISt4pairIKS2_S3_EEE
FNDA:720,_ZN5neml25Model6dvalueERKSt3mapINS_19LabeledAxisAccessorENS_6TensorESt4lessIS2_ESaISt4pairIKS2_S3_EEE
FNDA:0,_ZN5neml25Model28value_and_dvalue_and_d2valueERKSt3mapINS_19LabeledAxisAccessorENS_6TensorESt4lessIS2_ESaISt4pairIKS2_S3_EEE
FNDA:0,_ZN5neml25Model18dvalue_and_d2valueERKSt3mapINS_19LabeledAxisAccessorENS_6TensorESt4lessIS2_ESaISt4pairIKS2_S3_EEE
FNDA:32,_ZN5neml25Model7d2valueERKSt3mapINS_19LabeledAxisAccessorENS_6TensorESt4lessIS2_ESaISt4pairIKS2_S3_EEE
FNDA:13935,_ZN5neml25Model5valueEv
FNDA:8626,_ZN5neml25Model16value_and_dvalueEv
FNDA:1974,_ZN5neml25Model6dvalueEv
FNDA:424,_ZN5neml25Model28value_and_dvalue_and_d2valueEv
FNDA:152,_ZN5neml25Model18dvalue_and_d2valueEv
FNDA:32,_ZN5neml25Model7d2valueEv
FNDA:0,_ZNK5neml25Model16registered_modelERKSs
FNDA:781,_ZN5neml25Model16expected_optionsEv
FNDA:211,_ZNK5neml25Model14consumed_itemsEv
FNDA:211,_ZNK5neml25Model14provided_itemsEv
FNDA:1333,_ZN5neml25Model9set_guessERKNS_15NonlinearSystem3SOLILb0EEE
FNDA:2358,_ZN5neml25Model8assembleEPNS_15NonlinearSystem3RESILb0EEEPNS1_3JACILb0EEE
FNDA:2158,_ZNK5neml25Model13AD_need_valueEbb
FNDA:11208,_ZN5neml25Model9enable_ADEv
FNDA:11208,_ZN5neml25Model22extract_AD_derivativesEbb
FNDA:346,_ZN5neml25ModelC2ERKNS_9OptionSetE
FNDA:0,_ZN5neml25Model2toERKN3c1013TensorOptionsE
FNDA:97,_ZNK5neml25Model8diagnoseERSt6vectorINS_9DiagnosisESaIS2_EE
FNDA:72,_ZNK5neml25Model15diagnose_nl_sysERSt6vectorINS_9DiagnosisESaIS2_EE
FNF:36
FNH:29
DA:33,781
DA:35,781
DA:36,781
DA:37,781
DA:39,781
DA:41,1562
DA:42,781
DA:44,781
DA:45,0
DA:47,346
DA:53,1038
DA:55,346
DA:58,0
DA:60,0
DA:61,0
DA:63,0
DA:64,0
DA:65,0
DA:68,97
DA:70,183
DA:71,86
DA:74,397
DA:75,300
DA:76,215
DA:77,118
DA:79,97
DA:80,5
DA:83,97
DA:84,11
DA:85,24
DA:86,30
DA:87,15
DA:90,15
DA:91,97
DA:94,72
DA:96,139
DA:97,67
DA:100,72
DA:101,253
DA:102,181
DA:103,181
DA:106,72
DA:107,145
DA:108,152
DA:110,76
DA:115,76
DA:116,72
DA:119,346
DA:121,346
DA:123,346
DA:125,124
DA:126,124
DA:130,346
DA:131,346
DA:132,346
DA:133,346
DA:136,347
DA:138,570
DA:140,223
DA:141,223
DA:143,347
DA:146,12
DA:148,83
DA:149,71
DA:150,12
DA:153,347
DA:155,570
DA:157,223
DA:158,223
DA:160,347
DA:163,12
DA:165,12
DA:168,12
DA:170,12
DA:172,12
DA:173,12
DA:176,48
DA:178,48
DA:180,48
DA:181,48
DA:184,0
DA:186,0
DA:187,0
DA:188,0
DA:189,0
DA:192,0
DA:194,0
DA:195,0
DA:196,0
DA:197,0
DA:200,6641
DA:202,6641
DA:203,11181
DA:204,4540
DA:205,6641
DA:208,6641
DA:210,6641
DA:211,11181
DA:212,4540
DA:213,6641
DA:216,1349
DA:218,1349
DA:219,1349
DA:220,1349
DA:221,1349
DA:222,1349
DA:226,0
DA:228,0
DA:229,0
DA:230,0
DA:231,0
DA:232,0
DA:236,720
DA:238,720
DA:239,720
DA:240,720
DA:241,720
DA:242,720
DA:248,0
DA:250,0
DA:251,0
DA:252,0
DA:253,0
DA:254,0
DA:259,0
DA:261,0
DA:262,0
DA:263,0
DA:264,0
DA:265,0
DA:269,32
DA:271,32
DA:272,32
DA:273,32
DA:274,32
DA:275,32
DA:279,13935
DA:281,13935
DA:282,13935
DA:285,8626
DA:287,8626
DA:288,8626
DA:289,8626
DA:290,8626
DA:293,1974
DA:295,1974
DA:296,1974
DA:297,1974
DA:298,1974
DA:301,424
DA:303,424
DA:304,424
DA:305,424
DA:306,424
DA:309,152
DA:311,152
DA:312,152
DA:313,152
DA:314,152
DA:317,32
DA:319,32
DA:320,32
DA:321,32
DA:322,32
DA:325,0
DA:327,0
DA:328,0
DA:329,0
DA:331,0
DA:332,0
DA:336,211
DA:338,211
DA:339,422
DA:340,211
DA:343,211
DA:345,211
DA:346,422
DA:347,211
DA:350,1333
DA:352,1333
DA:353,1333
DA:354,1333
DA:357,2358
DA:359,2358
DA:360,1333
DA:361,1025
DA:362,1025
DA:363,0
DA:364,0
DA:366,2358
DA:368,1333
DA:369,1333
DA:371,2358
DA:374,1025
DA:375,1025
DA:377,2358
DA:380,2158
DA:382,2158
DA:383,2126
DA:384,156
DA:386,2002
DA:387,184
DA:388,1
DA:389,1
DA:390,1
DA:392,2001
DA:396,11208
DA:398,11836
DA:399,628
DA:400,11208
DA:403,11208
DA:405,11208
DA:407,11208
DA:409,11679
DA:411,471
DA:412,3
DA:413,0
DA:415,2355
DA:417,1884
DA:419,12
DA:420,0
DA:421,12
DA:424,3768
DA:425,1884
DA:428,3768
DA:429,1884
DA:430,1884
DA:431,1884
DA:434,11208
DA:436,611
DA:437,15
DA:439,12
DA:441,12
DA:442,5
DA:444,35
DA:447,56
DA:450,28
DA:451,28
DA:452,28
DA:453,28
DA:456,11208
LF:241
LH:196
end_of_record
TN:
SF:/home/runner/work/neml2/neml2/src/neml2/models/NonlinearParameter.cxx
FN:31,35,_ZN5neml218NonlinearParameterINS_10QuaternionEE16expected_optionsEv
FN:31,35,_ZN5neml218NonlinearParameterINS_11MillerIndexEE16expected_optionsEv
FN:31,35,_ZN5neml218NonlinearParameterINS_2R2EE16expected_optionsEv
FN:31,35,_ZN5neml218NonlinearParameterINS_2R3EE16expected_optionsEv
FN:31,35,_ZN5neml218NonlinearParameterINS_2R4EE16expected_optionsEv
FN:31,35,_ZN5neml218NonlinearParameterINS_2R5EE16expected_optionsEv
FN:31,35,_ZN5neml218NonlinearParameterINS_2R8EE16expected_optionsEv
FN:31,35,_ZN5neml218NonlinearParameterINS_3RotEE16expected_optionsEv
FN:31,35,_ZN5neml218NonlinearParameterINS_3SR2EE16expected_optionsEv
FN:31,35,_ZN5neml218NonlinearParameterINS_3VecEE16expected_optionsEv
FN:31,35,_ZN5neml218NonlinearParameterINS_3WR2EE16expected_optionsEv
FN:31,35,_ZN5neml218NonlinearParameterINS_4SFR3EE16expected_optionsEv
FN:31,35,_ZN5neml218NonlinearParameterINS_4SSR4EE16expected_optionsEv
FN:31,35,_ZN5neml218NonlinearParameterINS_4SWR4EE16expected_optionsEv
FN:31,35,_ZN5neml218NonlinearParameterINS_4WSR4EE16expected_optionsEv
FN:31,35,_ZN5neml218NonlinearParameterINS_4WWR4EE16expected_optionsEv
FN:31,35,_ZN5neml218NonlinearParameterINS_5SFFR4EE16expected_optionsEv
FN:31,35,_ZN5neml218NonlinearParameterINS_5SSFR5EE16expected_optionsEv
FN:31,35,_ZN5neml218NonlinearParameterINS_6SSSSR8EE16expected_optionsEv
FN:31,35,_ZN5neml218NonlinearParameterINS_6ScalarEE16expected_optionsEv
FN:38,42,_ZN5neml218NonlinearParameterINS_10QuaternionEEC2ERKNS_9OptionSetE
FN:38,42,_ZN5neml218NonlinearParameterINS_11MillerIndexEEC2ERKNS_9OptionSetE
FN:38,42,_ZN5neml218NonlinearParameterINS_2R2EEC2ERKNS_9OptionSetE
FN:38,42,_ZN5neml218NonlinearParameterINS_2R3EEC2ERKNS_9OptionSetE
FN:38,42,_ZN5neml218NonlinearParameterINS_2R4EEC2ERKNS_9OptionSetE
FN:38,42,_ZN5neml218NonlinearParameterINS_2R5EEC2ERKNS_9OptionSetE
FN:38,42,_ZN5neml218NonlinearParameterINS_2R8EEC2ERKNS_9OptionSetE
FN:38,42,_ZN5neml218NonlinearParameterINS_3RotEEC2ERKNS_9OptionSetE
FN:38,42,_ZN5neml218NonlinearParameterINS_3SR2EEC2ERKNS_9OptionSetE
FN:38,42,_ZN5neml218NonlinearParameterINS_3VecEEC2ERKNS_9OptionSetE
FN:38,42,_ZN5neml218NonlinearParameterINS_3WR2EEC2ERKNS_9OptionSetE
FN:38,42,_ZN5neml218NonlinearParameterINS_4SFR3EEC2ERKNS_9OptionSetE
FN:38,42,_ZN5neml218NonlinearParameterINS_4SSR4EEC2ERKNS_9OptionSetE
FN:38,42,_ZN5neml218NonlinearParameterINS_4SWR4EEC2ERKNS_9OptionSetE
FN:38,42,_ZN5neml218NonlinearParameterINS_4WSR4EEC2ERKNS_9OptionSetE
FN:38,42,_ZN5neml218NonlinearParameterINS_4WWR4EEC2ERKNS_9OptionSetE
FN:38,42,_ZN5neml218NonlinearParameterINS_5SFFR4EEC2ERKNS_9OptionSetE
FN:38,42,_ZN5neml218NonlinearParameterINS_5SSFR5EEC2ERKNS_9OptionSetE
FN:38,42,_ZN5neml218NonlinearParameterINS_6SSSSR8EEC2ERKNS_9OptionSetE
FN:38,42,_ZN5neml218NonlinearParameterINS_6ScalarEEC2ERKNS_9OptionSetE
FNDA:12,_ZN5neml218NonlinearParameterINS_10QuaternionEE16expected_optionsEv
FNDA:12,_ZN5neml218NonlinearParameterINS_11MillerIndexEE16expected_optionsEv
FNDA:12,_ZN5neml218NonlinearParameterINS_2R2EE16expected_optionsEv
FNDA:12,_ZN5neml218NonlinearParameterINS_2R3EE16expected_optionsEv
FNDA:12,_ZN5neml218NonlinearParameterINS_2R4EE16expected_optionsEv
FNDA:12,_ZN5neml218NonlinearParameterINS_2R5EE16expected_optionsEv
FNDA:12,_ZN5neml218NonlinearParameterINS_2R8EE16expected_optionsEv
FNDA:12,_ZN5neml218NonlinearParameterINS_3RotEE16expected_optionsEv
FNDA:18,_ZN5neml218NonlinearParameterINS_3SR2EE16expected_optionsEv
FNDA:18,_ZN5neml218NonlinearParameterINS_3VecEE16expected_optionsEv
FNDA:12,_ZN5neml218NonlinearParameterINS_3WR2EE16expected_optionsEv
FNDA:12,_ZN5neml218NonlinearParameterINS_4SFR3EE16expected_optionsEv
FNDA:24,_ZN5neml218NonlinearParameterINS_4SSR4EE16expected_optionsEv
FNDA:12,_ZN5neml218NonlinearParameterINS_4SWR4EE16expected_optionsEv
FNDA:12,_ZN5neml218NonlinearParameterINS_4WSR4EE16expected_optionsEv
FNDA:12,_ZN5neml218NonlinearParameterINS_4WWR4EE16expected_optionsEv
FNDA:12,_ZN5neml218NonlinearParameterINS_5SFFR4EE16expected_optionsEv
FNDA:12,_ZN5neml218NonlinearParameterINS_5SSFR5EE16expected_optionsEv
FNDA:12,_ZN5neml218NonlinearParameterINS_6SSSSR8EE16expected_optionsEv
FNDA:48,_ZN5neml218NonlinearParameterINS_6ScalarEE16expected_optionsEv
FNDA:0,_ZN5neml218NonlinearParameterINS_10QuaternionEEC2ERKNS_9OptionSetE
FNDA:0,_ZN5neml218NonlinearParameterINS_11MillerIndexEEC2ERKNS_9OptionSetE
FNDA:0,_ZN5neml218NonlinearParameterINS_2R2EEC2ERKNS_9OptionSetE
FNDA:0,_ZN5neml218NonlinearParameterINS_2R3EEC2ERKNS_9OptionSetE
FNDA:0,_ZN5neml218NonlinearParameterINS_2R4EEC2ERKNS_9OptionSetE
FNDA:0,_ZN5neml218NonlinearParameterINS_2R5EEC2ERKNS_9OptionSetE
FNDA:0,_ZN5neml218NonlinearParameterINS_2R8EEC2ERKNS_9OptionSetE
FNDA:0,_ZN5neml218NonlinearParameterINS_3RotEEC2ERKNS_9OptionSetE
FNDA:5,_ZN5neml218NonlinearParameterINS_3SR2EEC2ERKNS_9OptionSetE
FNDA:0,_ZN5neml218NonlinearParameterINS_3VecEEC2ERKNS_9OptionSetE
FNDA:0,_ZN5neml218NonlinearParameterINS_3WR2EEC2ERKNS_9OptionSetE
FNDA:0,_ZN5neml218NonlinearParameterINS_4SFR3EEC2ERKNS_9OptionSetE
FNDA:5,_ZN5neml218NonlinearParameterINS_4SSR4EEC2ERKNS_9OptionSetE
FNDA:0,_ZN5neml218NonlinearParameterINS_4SWR4EEC2ERKNS_9OptionSetE
FNDA:0,_ZN5neml218NonlinearParameterINS_4WSR4EEC2ERKNS_9OptionSetE
FNDA:0,_ZN5neml218NonlinearParameterINS_4WWR4EEC2ERKNS_9OptionSetE
FNDA:0,_ZN5neml218NonlinearParameterINS_5SFFR4EEC2ERKNS_9OptionSetE
FNDA:0,_ZN5neml218NonlinearParameterINS_5SSFR5EEC2ERKNS_9OptionSetE
FNDA:0,_ZN5neml218NonlinearParameterINS_6SSSSR8EEC2ERKNS_9OptionSetE
FNDA:64,_ZN5neml218NonlinearParameterINS_6ScalarEEC2ERKNS_9OptionSetE
FNF:40
FNH:23
DA:31,300
DA:33,300
DA:34,300
DA:38,74
DA:40,74
DA:42,74
LF:6
LH:6
end_of_record
TN:
SF:/home/runner/work/neml2/neml2/src/neml2/models/ParameterStore.cxx
FN:115,135,_ZNK5neml214ParameterStore32named_nonlinear_parameter_modelsEb
FN:139,205,_ZN5neml214ParameterStore17declare_parameterINS_10QuaternionEvEERKT_RKSsS7_b
FN:139,205,_ZN5neml214ParameterStore17declare_parameterINS_11MillerIndexEvEERKT_RKSsS7_b
FN:139,205,_ZN5neml214ParameterStore17declare_parameterINS_2R2EvEERKT_RKSsS7_b
FN:139,205,_ZN5neml214ParameterStore17declare_parameterINS_2R3EvEERKT_RKSsS7_b
FN:139,205,_ZN5neml214ParameterStore17declare_parameterINS_2R4EvEERKT_RKSsS7_b
FN:139,205,_ZN5neml214ParameterStore17declare_parameterINS_2R5EvEERKT_RKSsS7_b
FN:139,205,_ZN5neml214ParameterStore17declare_parameterINS_2R8EvEERKT_RKSsS7_b
FN:139,205,_ZN5neml214ParameterStore17declare_parameterINS_3RotEvEERKT_RKSsS7_b
FN:139,205,_ZN5neml214ParameterStore17declare_parameterINS_3SR2EvEERKT_RKSsS7_b
FN:139,205,_ZN5neml214ParameterStore17declare_parameterINS_3VecEvEERKT_RKSsS7_b
FN:139,205,_ZN5neml214ParameterStore17declare_parameterINS_3WR2EvEERKT_RKSsS7_b
FN:139,205,_ZN5neml214ParameterStore17declare_parameterINS_4SFR3EvEERKT_RKSsS7_b
FN:139,205,_ZN5neml214ParameterStore17declare_parameterINS_4SSR4EvEERKT_RKSsS7_b
FN:139,205,_ZN5neml214ParameterStore17declare_parameterINS_4SWR4EvEERKT_RKSsS7_b
FN:139,205,_ZN5neml214ParameterStore17declare_parameterINS_4WSR4EvEERKT_RKSsS7_b
FN:139,205,_ZN5neml214ParameterStore17declare_parameterINS_4WWR4EvEERKT_RKSsS7_b
FN:139,205,_ZN5neml214ParameterStore17declare_parameterINS_5SFFR4EvEERKT_RKSsS7_b
FN:139,205,_ZN5neml214ParameterStore17declare_parameterINS_5SSFR5EvEERKT_RKSsS7_b
FN:139,205,_ZN5neml214ParameterStore17declare_parameterINS_6SSSSR8EvEERKT_RKSsS7_b
FN:139,205,_ZN5neml214ParameterStore17declare_parameterINS_6ScalarEvEERKT_RKSsS7_b
FN:32,36,_ZN5neml214ParameterStoreC2ERKNS_9OptionSetEPNS_11NEML2ObjectE
FN:39,43,_ZN5neml214ParameterStore18send_parameters_toERKN3c1013TensorOptionsE
FN:46,52,_ZN5neml214ParameterStore13set_parameterERKSsRKNS_6TensorE
FN:55,59,_ZN5neml214ParameterStore14set_parametersERKSt3mapISsNS_6TensorESt4lessISsESaISt4pairIKSsS2_EEE
FN:62,67,_ZN5neml214ParameterStore13get_parameterERKSs
FN:70,75,_ZNK5neml214ParameterStore13get_parameterERKSs
FN:78,81,_ZNK5neml214ParameterStore8nl_paramERKSs
FN:84,89,_ZN5neml214ParameterStore16named_parametersEv
FN:92,112,_ZNK5neml214ParameterStore26named_nonlinear_parametersEb
FNDA:416,_ZNK5neml214ParameterStore32named_nonlinear_parameter_modelsEb
FNDA:0,_ZN5neml214ParameterStore17declare_parameterINS_10QuaternionEvEERKT_RKSsS7_b
FNDA:0,_ZN5neml214ParameterStore17declare_parameterINS_11MillerIndexEvEERKT_RKSsS7_b
FNDA:0,_ZN5neml214ParameterStore17declare_parameterINS_2R2EvEERKT_RKSsS7_b
FNDA:0,_ZN5neml214ParameterStore17declare_parameterINS_2R3EvEERKT_RKSsS7_b
FNDA:0,_ZN5neml214ParameterStore17declare_parameterINS_2R4EvEERKT_RKSsS7_b
FNDA:0,_ZN5neml214ParameterStore17declare_parameterINS_2R5EvEERKT_RKSsS7_b
FNDA:0,_ZN5neml214ParameterStore17declare_parameterINS_2R8EvEERKT_RKSsS7_b
FNDA:0,_ZN5neml214ParameterStore17declare_parameterINS_3RotEvEERKT_RKSsS7_b
FNDA:5,_ZN5neml214ParameterStore17declare_parameterINS_3SR2EvEERKT_RKSsS7_b
FNDA:0,_ZN5neml214ParameterStore17declare_parameterINS_3VecEvEERKT_RKSsS7_b
FNDA:0,_ZN5neml214ParameterStore17declare_parameterINS_3WR2EvEERKT_RKSsS7_b
FNDA:0,_ZN5neml214ParameterStore17declare_parameterINS_4SFR3EvEERKT_RKSsS7_b
FNDA:5,_ZN5neml214ParameterStore17declare_parameterINS_4SSR4EvEERKT_RKSsS7_b
FNDA:0,_ZN5neml214ParameterStore17declare_parameterINS_4SWR4EvEERKT_RKSsS7_b
FNDA:0,_ZN5neml214ParameterStore17declare_parameterINS_4WSR4EvEERKT_RKSsS7_b
FNDA:0,_ZN5neml214ParameterStore17declare_parameterINS_4WWR4EvEERKT_RKSsS7_b
FNDA:0,_ZN5neml214ParameterStore17declare_parameterINS_5SFFR4EvEERKT_RKSsS7_b
FNDA:0,_ZN5neml214ParameterStore17declare_parameterINS_5SSFR5EvEERKT_RKSsS7_b
FNDA:0,_ZN5neml214ParameterStore17declare_parameterINS_6SSSSR8EvEERKT_RKSsS7_b
FNDA:187,_ZN5neml214ParameterStore17declare_parameterINS_6ScalarEvEERKT_RKSsS7_b
FNDA:346,_ZN5neml214ParameterStoreC2ERKNS_9OptionSetEPNS_11NEML2ObjectE
FNDA:0,_ZN5neml214ParameterStore18send_parameters_toERKN3c1013TensorOptionsE
FNDA:0,_ZN5neml214ParameterStore13set_parameterERKSsRKNS_6TensorE
FNDA:0,_ZN5neml214ParameterStore14set_parametersERKSt3mapISsNS_6TensorESt4lessISsESaISt4pairIKSsS2_EEE
FNDA:7,_ZN5neml214ParameterStore13get_parameterERKSs
FNDA:0,_ZNK5neml214ParameterStore13get_parameterERKSs
FNDA:4356,_ZNK5neml214ParameterStore8nl_paramERKSs
FNDA:3,_ZN5neml214ParameterStore16named_parametersEv
FNDA:208,_ZNK5neml214ParameterStore26named_nonlinear_parametersEb
FNF:30
FNH:9
DA:32,346
DA:33,346
DA:34,346
DA:36,346
DA:39,0
DA:41,0
DA:42,0
DA:43,0
DA:46,0
DA:48,0
DA:50,0
DA:51,0
DA:52,0
DA:55,0
DA:57,0
DA:58,0
DA:59,0
DA:62,7
DA:64,7
DA:65,7
DA:66,7
DA:70,0
DA:72,0
DA:73,0
DA:74,0
DA:78,4356
DA:80,4356
DA:84,3
DA:86,3
DA:88,3
DA:92,208
DA:94,208
DA:95,0
DA:97,208
DA:98,208
DA:100,208
DA:101,215
DA:103,7
DA:104,7
DA:105,7
DA:106,261
DA:108,53
DA:109,53
DA:110,53
DA:111,208
DA:112,208
DA:115,416
DA:117,416
DA:118,0
DA:120,416
DA:121,416
DA:123,416
DA:124,430
DA:126,14
DA:127,14
DA:128,14
DA:129,522
DA:131,106
DA:132,106
DA:133,106
DA:134,416
DA:135,416
DA:139,197
DA:143,197
DA:144,0
DA:146,197
DA:150,197
DA:152,106
DA:158,53
DA:159,53
DA:161,53
DA:169,53
DA:171,53
DA:173,53
DA:180,53
DA:181,106
DA:182,53
DA:183,53
DA:185,53
DA:186,53
DA:187,53
DA:188,53
DA:189,53
DA:190,0
DA:192,0
DA:193,0
DA:196,0
DA:197,0
DA:204,0
LF:89
LH:63
end_of_record
TN:
SF:/home/runner/work/neml2/neml2/src/neml2/models/RotationMatrix.cxx
FN:32,45,_ZN5neml214RotationMatrix16expected_optionsEv
FN:47,52,_ZN5neml214RotationMatrixC2ERKNS_9OptionSetE
FN:55,65,_ZN5neml214RotationMatrix9set_valueEbbb
FNDA:6,_ZN5neml214RotationMatrix16expected_optionsEv
FNDA:4,_ZN5neml214RotationMatrixC2ERKNS_9OptionSetE
FNDA:340,_ZN5neml214RotationMatrix9set_valueEbbb
FNF:3
FNH:3
DA:32,6
DA:34,6
DA:35,6
DA:36,6
DA:38,12
DA:39,12
DA:41,12
DA:42,6
DA:44,6
DA:45,0
DA:47,4
DA:49,4
DA:50,8
DA:52,4
DA:55,340
DA:57,340
DA:59,340
DA:60,340
DA:62,340
DA:63,65
DA:64,65
DA:65,340
LF:22
LH:21
end_of_record
TN:
SF:/home/runner/work/neml2/neml2/src/neml2/models/SR2Invariant.cxx
FN:33,56,_ZN5neml212SR2Invariant16expected_optionsEv
FN:58,64,_ZN5neml212SR2InvariantC2ERKNS_9OptionSetE
FN:67,161,_ZN5neml212SR2Invariant9set_valueEbbb
FNDA:6,_ZN5neml212SR2Invariant16expected_optionsEv
FNDA:21,_ZN5neml212SR2InvariantC2ERKNS_9OptionSetE
FNDA:1119,_ZN5neml212SR2Invariant9set_valueEbbb
FNF:3
FNH:3
DA:33,6
DA:35,6
DA:36,6
DA:38,12
DA:39,12
DA:41,12
DA:42,12
DA:50,36
DA:51,6
DA:52,12
DA:53,18
DA:55,12
DA:56,6
DA:58,21
DA:60,21
DA:61,21
DA:62,42
DA:64,21
DA:67,1119
DA:69,1119
DA:71,1119
DA:73,94
DA:74,85
DA:76,94
DA:77,0
DA:79,94
DA:80,44
DA:87,1025
DA:89,17
DA:90,8
DA:92,17
DA:93,0
DA:95,17
DA:97,9
DA:99,9
DA:100,8
DA:102,9
DA:104,1
DA:105,1
DA:106,1
DA:107,1
DA:108,9
DA:110,1008
DA:112,991
DA:113,991
DA:115,991
DA:116,982
DA:118,991
DA:119,0
DA:121,991
DA:123,723
DA:125,723
DA:126,722
DA:128,723
DA:130,160
DA:131,160
DA:132,160
DA:133,160
DA:134,723
DA:135,991
DA:136,17
DA:138,17
DA:140,17
DA:141,8
DA:143,17
DA:144,0
DA:146,17
DA:148,9
DA:150,9
DA:151,8
DA:153,9
DA:154,1
DA:155,2
DA:156,9
DA:157,17
DA:159,0
DA:160,0
DA:161,1119
LF:78
LH:72
end_of_record
TN:
SF:/home/runner/work/neml2/neml2/src/neml2/models/Variable.cxx
FN:101,110,_ZN5neml212VariableBase1dERKS0_
FN:113,125,_ZN5neml212VariableBase1dERKS0_S2_
FN:128,131,_ZN5neml212VariableBase10request_ADERKS0_
FN:134,141,_ZN5neml212VariableBase10request_ADERKSt6vectorIPKS0_SaIS3_EE
FN:144,147,_ZN5neml212VariableBase10request_ADERKS0_S2_
FN:150,160,_ZN5neml212VariableBase10request_ADERKSt6vectorIPKS0_SaIS3_EES7_
FN:163,168,_ZN5neml212VariableBase5clearEv
FN:171,179,_ZN5neml212VariableBase16apply_chain_ruleERKNS_18DependencyResolverINS_5ModelENS_19LabeledAxisAccessorEEE
FN:182,190,_ZN5neml212VariableBase29apply_second_order_chain_ruleERKNS_18DependencyResolverINS_5ModelENS_19LabeledAxisAccessorEEE
FN:193,199,_ZN5neml213assign_or_addERNS_6TensorERKS0_
FN:202,219,_ZNK5neml212VariableBase17total_derivativesERKNS_18DependencyResolverINS_5ModelENS_19LabeledAxisAccessorEEEPS2_RKS3_
FN:222,266,_ZNK5neml212VariableBase24total_second_derivativesERKNS_18DependencyResolverINS_5ModelENS_19LabeledAxisAccessorEEEPS2_RKS3_
FN:270,273,_ZNK5neml28VariableINS_10QuaternionEE4typeEv
FN:270,273,_ZNK5neml28VariableINS_11MillerIndexEE4typeEv
FN:270,273,_ZNK5neml28VariableINS_2R2EE4typeEv
FN:270,273,_ZNK5neml28VariableINS_2R3EE4typeEv
FN:270,273,_ZNK5neml28VariableINS_2R4EE4typeEv
FN:270,273,_ZNK5neml28VariableINS_2R5EE4typeEv
FN:270,273,_ZNK5neml28VariableINS_2R8EE4typeEv
FN:270,273,_ZNK5neml28VariableINS_3RotEE4typeEv
FN:270,273,_ZNK5neml28VariableINS_3SR2EE4typeEv
FN:270,273,_ZNK5neml28VariableINS_3VecEE4typeEv
FN:270,273,_ZNK5neml28VariableINS_3WR2EE4typeEv
FN:270,273,_ZNK5neml28VariableINS_4SFR3EE4typeEv
FN:270,273,_ZNK5neml28VariableINS_4SSR4EE4typeEv
FN:270,273,_ZNK5neml28VariableINS_4SWR4EE4typeEv
FN:270,273,_ZNK5neml28VariableINS_4WSR4EE4typeEv
FN:270,273,_ZNK5neml28VariableINS_4WWR4EE4typeEv
FN:270,273,_ZNK5neml28VariableINS_5SFFR4EE4typeEv
FN:270,273,_ZNK5neml28VariableINS_5SSFR5EE4typeEv
FN:270,273,_ZNK5neml28VariableINS_6SSSSR8EE4typeEv
FN:270,273,_ZNK5neml28VariableINS_6ScalarEE4typeEv
FN:270,273,_ZNK5neml28VariableINS_6TensorEE4typeEv
FN:277,289,_ZNK5neml28VariableINS_10QuaternionEE5cloneERKNS_19LabeledAxisAccessorEPNS_5ModelE
FN:277,289,_ZNK5neml28VariableINS_11MillerIndexEE5cloneERKNS_19LabeledAxisAccessorEPNS_5ModelE
FN:277,289,_ZNK5neml28VariableINS_2R2EE5cloneERKNS_19LabeledAxisAccessorEPNS_5ModelE
FN:277,289,_ZNK5neml28VariableINS_2R3EE5cloneERKNS_19LabeledAxisAccessorEPNS_5ModelE
FN:277,289,_ZNK5neml28VariableINS_2R4EE5cloneERKNS_19LabeledAxisAccessorEPNS_5ModelE
FN:277,289,_ZNK5neml28VariableINS_2R5EE5cloneERKNS_19LabeledAxisAccessorEPNS_5ModelE
FN:277,289,_ZNK5neml28VariableINS_2R8EE5cloneERKNS_19LabeledAxisAccessorEPNS_5ModelE
FN:277,289,_ZNK5neml28VariableINS_3RotEE5cloneERKNS_19LabeledAxisAccessorEPNS_5ModelE
FN:277,289,_ZNK5neml28VariableINS_3SR2EE5cloneERKNS_19LabeledAxisAccessorEPNS_5ModelE
FN:277,289,_ZNK5neml28VariableINS_3VecEE5cloneERKNS_19LabeledAxisAccessorEPNS_5ModelE
FN:277,289,_ZNK5neml28VariableINS_3WR2EE5cloneERKNS_19LabeledAxisAccessorEPNS_5ModelE
FN:277,289,_ZNK5neml28VariableINS_4SFR3EE5cloneERKNS_19LabeledAxisAccessorEPNS_5ModelE
FN:277,289,_ZNK5neml28VariableINS_4SSR4EE5cloneERKNS_19LabeledAxisAccessorEPNS_5ModelE
FN:277,289,_ZNK5neml28VariableINS_4SWR4EE5cloneERKNS_19LabeledAxisAccessorEPNS_5ModelE
FN:277,289,_ZNK5neml28VariableINS_4WSR4EE5cloneERKNS_19LabeledAxisAccessorEPNS_5ModelE
FN:277,289,_ZNK5neml28VariableINS_4WWR4EE5cloneERKNS_19LabeledAxisAccessorEPNS_5ModelE
FN:277,289,_ZNK5neml28VariableINS_5SFFR4EE5cloneERKNS_19LabeledAxisAccessorEPNS_5ModelE
FN:277,289,_ZNK5neml28VariableINS_5SSFR5EE5cloneERKNS_19LabeledAxisAccessorEPNS_5ModelE
FN:277,289,_ZNK5neml28VariableINS_6SSSSR8EE5cloneERKNS_19LabeledAxisAccessorEPNS_5ModelE
FN:277,289,_ZNK5neml28VariableINS_6ScalarEE5cloneERKNS_19LabeledAxisAccessorEPNS_5ModelE
FN:277,289,_ZNK5neml28VariableINS_6TensorEE5cloneERKNS_19LabeledAxisAccessorEPNS_5ModelE
FN:293,317,_ZN5neml28VariableINS_10QuaternionEE3refERKNS_12VariableBaseEb
FN:293,317,_ZN5neml28VariableINS_11MillerIndexEE3refERKNS_12VariableBaseEb
FN:293,317,_ZN5neml28VariableINS_2R2EE3refERKNS_12VariableBaseEb
FN:293,317,_ZN5neml28VariableINS_2R3EE3refERKNS_12VariableBaseEb
FN:293,317,_ZN5neml28VariableINS_2R4EE3refERKNS_12VariableBaseEb
FN:293,317,_ZN5neml28VariableINS_2R5EE3refERKNS_12VariableBaseEb
FN:293,317,_ZN5neml28VariableINS_2R8EE3refERKNS_12VariableBaseEb
FN:293,317,_ZN5neml28VariableINS_3RotEE3refERKNS_12VariableBaseEb
FN:293,317,_ZN5neml28VariableINS_3SR2EE3refERKNS_12VariableBaseEb
FN:293,317,_ZN5neml28VariableINS_3VecEE3refERKNS_12VariableBaseEb
FN:293,317,_ZN5neml28VariableINS_3WR2EE3refERKNS_12VariableBaseEb
FN:293,317,_ZN5neml28VariableINS_4SFR3EE3refERKNS_12VariableBaseEb
FN:293,317,_ZN5neml28VariableINS_4SSR4EE3refERKNS_12VariableBaseEb
FN:293,317,_ZN5neml28VariableINS_4SWR4EE3refERKNS_12VariableBaseEb
FN:293,317,_ZN5neml28VariableINS_4WSR4EE3refERKNS_12VariableBaseEb
FN:293,317,_ZN5neml28VariableINS_4WWR4EE3refERKNS_12VariableBaseEb
FN:293,317,_ZN5neml28VariableINS_5SFFR4EE3refERKNS_12VariableBaseEb
FN:293,317,_ZN5neml28VariableINS_5SSFR5EE3refERKNS_12VariableBaseEb
FN:293,317,_ZN5neml28VariableINS_6SSSSR8EE3refERKNS_12VariableBaseEb
FN:293,317,_ZN5neml28VariableINS_6ScalarEE3refERKNS_12VariableBaseEb
FN:293,317,_ZN5neml28VariableINS_6TensorEE3refERKNS_12VariableBaseEb
FN:31,36,_ZN5neml212VariableBaseC2ERKNS_19LabeledAxisAccessorEPNS_5ModelEN3c108ArrayRefIlEE
FN:321,338,_ZN5neml28VariableINS_10QuaternionEE4zeroERKN3c1013TensorOptionsE
FN:321,338,_ZN5neml28VariableINS_11MillerIndexEE4zeroERKN3c1013TensorOptionsE
FN:321,338,_ZN5neml28VariableINS_2R2EE4zeroERKN3c1013TensorOptionsE
FN:321,338,_ZN5neml28VariableINS_2R3EE4zeroERKN3c1013TensorOptionsE
FN:321,338,_ZN5neml28VariableINS_2R4EE4zeroERKN3c1013TensorOptionsE
FN:321,338,_ZN5neml28VariableINS_2R5EE4zeroERKN3c1013TensorOptionsE
FN:321,338,_ZN5neml28VariableINS_2R8EE4zeroERKN3c1013TensorOptionsE
FN:321,338,_ZN5neml28VariableINS_3RotEE4zeroERKN3c1013TensorOptionsE
FN:321,338,_ZN5neml28VariableINS_3SR2EE4zeroERKN3c1013TensorOptionsE
FN:321,338,_ZN5neml28VariableINS_3VecEE4zeroERKN3c1013TensorOptionsE
FN:321,338,_ZN5neml28VariableINS_3WR2EE4zeroERKN3c1013TensorOptionsE
FN:321,338,_ZN5neml28VariableINS_4SFR3EE4zeroERKN3c1013TensorOptionsE
FN:321,338,_ZN5neml28VariableINS_4SSR4EE4zeroERKN3c1013TensorOptionsE
FN:321,338,_ZN5neml28VariableINS_4SWR4EE4zeroERKN3c1013TensorOptionsE
FN:321,338,_ZN5neml28VariableINS_4WSR4EE4zeroERKN3c1013TensorOptionsE
FN:321,338,_ZN5neml28VariableINS_4WWR4EE4zeroERKN3c1013TensorOptionsE
FN:321,338,_ZN5neml28VariableINS_5SFFR4EE4zeroERKN3c1013TensorOptionsE
FN:321,338,_ZN5neml28VariableINS_5SSFR5EE4zeroERKN3c1013TensorOptionsE
FN:321,338,_ZN5neml28VariableINS_6SSSSR8EE4zeroERKN3c1013TensorOptionsE
FN:321,338,_ZN5neml28VariableINS_6ScalarEE4zeroERKN3c1013TensorOptionsE
FN:321,338,_ZN5neml28VariableINS_6TensorEE4zeroERKN3c1013TensorOptionsE
FN:342,355,_ZN5neml28VariableINS_10QuaternionEE3setERKNS_6TensorE
FN:342,355,_ZN5neml28VariableINS_11MillerIndexEE3setERKNS_6TensorE
FN:342,355,_ZN5neml28VariableINS_2R2EE3setERKNS_6TensorE
FN:342,355,_ZN5neml28VariableINS_2R3EE3setERKNS_6TensorE
FN:342,355,_ZN5neml28VariableINS_2R4EE3setERKNS_6TensorE
FN:342,355,_ZN5neml28VariableINS_2R5EE3setERKNS_6TensorE
FN:342,355,_ZN5neml28VariableINS_2R8EE3setERKNS_6TensorE
FN:342,355,_ZN5neml28VariableINS_3RotEE3setERKNS_6TensorE
FN:342,355,_ZN5neml28VariableINS_3SR2EE3setERKNS_6TensorE
FN:342,355,_ZN5neml28VariableINS_3VecEE3setERKNS_6TensorE
FN:342,355,_ZN5neml28VariableINS_3WR2EE3setERKNS_6TensorE
FN:342,355,_ZN5neml28VariableINS_4SFR3EE3setERKNS_6TensorE
FN:342,355,_ZN5neml28VariableINS_4SSR4EE3setERKNS_6TensorE
FN:342,355,_ZN5neml28VariableINS_4SWR4EE3setERKNS_6TensorE
FN:342,355,_ZN5neml28VariableINS_4WSR4EE3setERKNS_6TensorE
FN:342,355,_ZN5neml28VariableINS_4WWR4EE3setERKNS_6TensorE
FN:342,355,_ZN5neml28VariableINS_5SFFR4EE3setERKNS_6TensorE
FN:342,355,_ZN5neml28VariableINS_5SSFR5EE3setERKNS_6TensorE
FN:342,355,_ZN5neml28VariableINS_6SSSSR8EE3setERKNS_6TensorE
FN:342,355,_ZN5neml28VariableINS_6ScalarEE3setERKNS_6TensorE
FN:342,355,_ZN5neml28VariableINS_6TensorEE3setERKS1_
FN:359,369,_ZNK5neml28VariableINS_10QuaternionEE6tensorEv
FN:359,369,_ZNK5neml28VariableINS_11MillerIndexEE6tensorEv
FN:359,369,_ZNK5neml28VariableINS_2R2EE6tensorEv
FN:359,369,_ZNK5neml28VariableINS_2R3EE6tensorEv
FN:359,369,_ZNK5neml28VariableINS_2R4EE6tensorEv
FN:359,369,_ZNK5neml28VariableINS_2R5EE6tensorEv
FN:359,369,_ZNK5neml28VariableINS_2R8EE6tensorEv
FN:359,369,_ZNK5neml28VariableINS_3RotEE6tensorEv
FN:359,369,_ZNK5neml28VariableINS_3SR2EE6tensorEv
FN:359,369,_ZNK5neml28VariableINS_3VecEE6tensorEv
FN:359,369,_ZNK5neml28VariableINS_3WR2EE6tensorEv
FN:359,369,_ZNK5neml28VariableINS_4SFR3EE6tensorEv
FN:359,369,_ZNK5neml28VariableINS_4SSR4EE6tensorEv
FN:359,369,_ZNK5neml28VariableINS_4SWR4EE6tensorEv
FN:359,369,_ZNK5neml28VariableINS_4WSR4EE6tensorEv
FN:359,369,_ZNK5neml28VariableINS_4WWR4EE6tensorEv
FN:359,369,_ZNK5neml28VariableINS_5SFFR4EE6tensorEv
FN:359,369,_ZNK5neml28VariableINS_5SSFR5EE6tensorEv
FN:359,369,_ZNK5neml28VariableINS_6SSSSR8EE6tensorEv
FN:359,369,_ZNK5neml28VariableINS_6ScalarEE6tensorEv
FN:359,369,_ZNK5neml28VariableINS_6TensorEE6tensorEv
FN:373,380,_ZN5neml28VariableINS_10QuaternionEE14requires_grad_Eb
FN:373,380,_ZN5neml28VariableINS_11MillerIndexEE14requires_grad_Eb
FN:373,380,_ZN5neml28VariableINS_2R2EE14requires_grad_Eb
FN:373,380,_ZN5neml28VariableINS_2R3EE14requires_grad_Eb
FN:373,380,_ZN5neml28VariableINS_2R4EE14requires_grad_Eb
FN:373,380,_ZN5neml28VariableINS_2R5EE14requires_grad_Eb
FN:373,380,_ZN5neml28VariableINS_2R8EE14requires_grad_Eb
FN:373,380,_ZN5neml28VariableINS_3RotEE14requires_grad_Eb
FN:373,380,_ZN5neml28VariableINS_3SR2EE14requires_grad_Eb
FN:373,380,_ZN5neml28VariableINS_3VecEE14requires_grad_Eb
FN:373,380,_ZN5neml28VariableINS_3WR2EE14requires_grad_Eb
FN:373,380,_ZN5neml28VariableINS_4SFR3EE14requires_grad_Eb
FN:373,380,_ZN5neml28VariableINS_4SSR4EE14requires_grad_Eb
FN:373,380,_ZN5neml28VariableINS_4SWR4EE14requires_grad_Eb
FN:373,380,_ZN5neml28VariableINS_4WSR4EE14requires_grad_Eb
FN:373,380,_ZN5neml28VariableINS_4WWR4EE14requires_grad_Eb
FN:373,380,_ZN5neml28VariableINS_5SFFR4EE14requires_grad_Eb
FN:373,380,_ZN5neml28VariableINS_5SSFR5EE14requires_grad_Eb
FN:373,380,_ZN5neml28VariableINS_6SSSSR8EE14requires_grad_Eb
FN:373,380,_ZN5neml28VariableINS_6ScalarEE14requires_grad_Eb
FN:373,380,_ZN5neml28VariableINS_6TensorEE14requires_grad_Eb
FN:384,396,_ZN5neml28VariableINS_10QuaternionEEaSERKNS_6TensorE
FN:384,396,_ZN5neml28VariableINS_11MillerIndexEEaSERKNS_6TensorE
FN:384,396,_ZN5neml28VariableINS_2R2EEaSERKNS_6TensorE
FN:384,396,_ZN5neml28VariableINS_2R3EEaSERKNS_6TensorE
FN:384,396,_ZN5neml28VariableINS_2R4EEaSERKNS_6TensorE
FN:384,396,_ZN5neml28VariableINS_2R5EEaSERKNS_6TensorE
FN:384,396,_ZN5neml28VariableINS_2R8EEaSERKNS_6TensorE
FN:384,396,_ZN5neml28VariableINS_3RotEEaSERKNS_6TensorE
FN:384,396,_ZN5neml28VariableINS_3SR2EEaSERKNS_6TensorE
FN:384,396,_ZN5neml28VariableINS_3VecEEaSERKNS_6TensorE
FN:384,396,_ZN5neml28VariableINS_3WR2EEaSERKNS_6TensorE
FN:384,396,_ZN5neml28VariableINS_4SFR3EEaSERKNS_6TensorE
FN:384,396,_ZN5neml28VariableINS_4SSR4EEaSERKNS_6TensorE
FN:384,396,_ZN5neml28VariableINS_4SWR4EEaSERKNS_6TensorE
FN:384,396,_ZN5neml28VariableINS_4WSR4EEaSERKNS_6TensorE
FN:384,396,_ZN5neml28VariableINS_4WWR4EEaSERKNS_6TensorE
FN:384,396,_ZN5neml28VariableINS_5SFFR4EEaSERKNS_6TensorE
FN:384,396,_ZN5neml28VariableINS_5SSFR5EEaSERKNS_6TensorE
FN:384,396,_ZN5neml28VariableINS_6SSSSR8EEaSERKNS_6TensorE
FN:384,396,_ZN5neml28VariableINS_6ScalarEEaSERKNS_6TensorE
FN:384,396,_ZN5neml28VariableINS_6TensorEEaSERKS1_
FN:39,43,_ZNK5neml212VariableBase5ownerEv
FN:400,415,_ZN5neml28VariableINS_10QuaternionEE5clearEv
FN:400,415,_ZN5neml28VariableINS_11MillerIndexEE5clearEv
FN:400,415,_ZN5neml28VariableINS_2R2EE5clearEv
FN:400,415,_ZN5neml28VariableINS_2R3EE5clearEv
FN:400,415,_ZN5neml28VariableINS_2R4EE5clearEv
FN:400,415,_ZN5neml28VariableINS_2R5EE5clearEv
FN:400,415,_ZN5neml28VariableINS_2R8EE5clearEv
FN:400,415,_ZN5neml28VariableINS_3RotEE5clearEv
FN:400,415,_ZN5neml28VariableINS_3SR2EE5clearEv
FN:400,415,_ZN5neml28VariableINS_3VecEE5clearEv
FN:400,415,_ZN5neml28VariableINS_3WR2EE5clearEv
FN:400,415,_ZN5neml28VariableINS_4SFR3EE5clearEv
FN:400,415,_ZN5neml28VariableINS_4SSR4EE5clearEv
FN:400,415,_ZN5neml28VariableINS_4SWR4EE5clearEv
FN:400,415,_ZN5neml28VariableINS_4WSR4EE5clearEv
FN:400,415,_ZN5neml28VariableINS_4WWR4EE5clearEv
FN:400,415,_ZN5neml28VariableINS_5SFFR4EE5clearEv
FN:400,415,_ZN5neml28VariableINS_5SSFR5EE5clearEv
FN:400,415,_ZN5neml28VariableINS_6SSSSR8EE5clearEv
FN:400,415,_ZN5neml28VariableINS_6ScalarEE5clearEv
FN:400,415,_ZN5neml28VariableINS_6TensorEE5clearEv
FN:421,424,_ZN5neml210DerivativeaSERKNS_6TensorE
FN:46,50,_ZN5neml212VariableBase5ownerEv
FN:53,56,_ZNK5neml212VariableBase8is_stateEv
FN:59,62,_ZNK5neml212VariableBase12is_old_stateEv
FN:65,68,_ZNK5neml212VariableBase8is_forceEv
FN:71,74,_ZNK5neml212VariableBase12is_old_forceEv
FN:77,80,_ZNK5neml212VariableBase11is_residualEv
FN:83,86,_ZNK5neml212VariableBase12is_parameterEv
FN:89,92,_ZNK5neml212VariableBase18is_solve_dependentEv
FN:95,98,_ZNK5neml212VariableBase12is_dependentEv
FNDA:24180,_ZN5neml212VariableBase1dERKS0_
FNDA:292,_ZN5neml212VariableBase1dERKS0_S2_
FNDA:0,_ZN5neml212VariableBase10request_ADERKS0_
FNDA:3,_ZN5neml212VariableBase10request_ADERKSt6vectorIPKS0_SaIS3_EE
FNDA:0,_ZN5neml212VariableBase10request_ADERKS0_S2_
FNDA:3,_ZN5neml212VariableBase10request_ADERKSt6vectorIPKS0_SaIS3_EES7_
FNDA:0,_ZN5neml212VariableBase5clearEv
FNDA:3811,_ZN5neml212VariableBase16apply_chain_ruleERKNS_18DependencyResolverINS_5ModelENS_19LabeledAxisAccessorEEE
FNDA:164,_ZN5neml212VariableBase29apply_second_order_chain_ruleERKNS_18DependencyResolverINS_5ModelENS_19LabeledAxisAccessorEEE
FNDA:54004,_ZN5neml213assign_or_addERNS_6TensorERKS0_
FNDA:15247,_ZNK5neml212VariableBase17total_derivativesERKNS_18DependencyResolverINS_5ModelENS_19LabeledAxisAccessorEEEPS2_RKS3_
FNDA:424,_ZNK5neml212VariableBase24total_second_derivativesERKNS_18DependencyResolverINS_5ModelENS_19LabeledAxisAccessorEEEPS2_RKS3_
FNDA:0,_ZNK5neml28VariableINS_10QuaternionEE4typeEv
FNDA:0,_ZNK5neml28VariableINS_11MillerIndexEE4typeEv
FNDA:12,_ZNK5neml28VariableINS_2R2EE4typeEv
FNDA:0,_ZNK5neml28VariableINS_2R3EE4typeEv
FNDA:0,_ZNK5neml28VariableINS_2R4EE4typeEv
FNDA:0,_ZNK5neml28VariableINS_2R5EE4typeEv
FNDA:0,_ZNK5neml28VariableINS_2R8EE4typeEv
FNDA:30,_ZNK5neml28VariableINS_3RotEE4typeEv
FNDA:458,_ZNK5neml28VariableINS_3SR2EE4typeEv
FNDA:0,_ZNK5neml28VariableINS_3VecEE4typeEv
FNDA:14,_ZNK5neml28VariableINS_3WR2EE4typeEv
FNDA:0,_ZNK5neml28VariableINS_4SFR3EE4typeEv
FNDA:14,_ZNK5neml28VariableINS_4SSR4EE4typeEv
FNDA:0,_ZNK5neml28VariableINS_4SWR4EE4typeEv
FNDA:0,_ZNK5neml28VariableINS_4WSR4EE4typeEv
FNDA:0,_ZNK5neml28VariableINS_4WWR4EE4typeEv
FNDA:0,_ZNK5neml28VariableINS_5SFFR4EE4typeEv
FNDA:0,_ZNK5neml28VariableINS_5SSFR5EE4typeEv
FNDA:0,_ZNK5neml28VariableINS_6SSSSR8EE4typeEv
FNDA:818,_ZNK5neml28VariableINS_6ScalarEE4typeEv
FNDA:0,_ZNK5neml28VariableINS_6TensorEE4typeEv
FNDA:0,_ZNK5neml28VariableINS_10QuaternionEE5cloneERKNS_19LabeledAxisAccessorEPNS_5ModelE
FNDA:0,_ZNK5neml28VariableINS_11MillerIndexEE5cloneERKNS_19LabeledAxisAccessorEPNS_5ModelE
FNDA:0,_ZNK5neml28VariableINS_2R2EE5cloneERKNS_19LabeledAxisAccessorEPNS_5ModelE
FNDA:0,_ZNK5neml28VariableINS_2R3EE5cloneERKNS_19LabeledAxisAccessorEPNS_5ModelE
FNDA:0,_ZNK5neml28VariableINS_2R4EE5cloneERKNS_19LabeledAxisAccessorEPNS_5ModelE
FNDA:0,_ZNK5neml28VariableINS_2R5EE5cloneERKNS_19LabeledAxisAccessorEPNS_5ModelE
FNDA:0,_ZNK5neml28VariableINS_2R8EE5cloneERKNS_19LabeledAxisAccessorEPNS_5ModelE
FNDA:14,_ZNK5neml28VariableINS_3RotEE5cloneERKNS_19LabeledAxisAccessorEPNS_5ModelE
FNDA:161,_ZNK5neml28VariableINS_3SR2EE5cloneERKNS_19LabeledAxisAccessorEPNS_5ModelE
FNDA:0,_ZNK5neml28VariableINS_3VecEE5cloneERKNS_19LabeledAxisAccessorEPNS_5ModelE
FNDA:4,_ZNK5neml28VariableINS_3WR2EE5cloneERKNS_19LabeledAxisAccessorEPNS_5ModelE
FNDA:0,_ZNK5neml28VariableINS_4SFR3EE5cloneERKNS_19LabeledAxisAccessorEPNS_5ModelE
FNDA:5,_ZNK5neml28VariableINS_4SSR4EE5cloneERKNS_19LabeledAxisAccessorEPNS_5ModelE
FNDA:0,_ZNK5neml28VariableINS_4SWR4EE5cloneERKNS_19LabeledAxisAccessorEPNS_5ModelE
FNDA:0,_ZNK5neml28VariableINS_4WSR4EE5cloneERKNS_19LabeledAxisAccessorEPNS_5ModelE
FNDA:0,_ZNK5neml28VariableINS_4WWR4EE5cloneERKNS_19LabeledAxisAccessorEPNS_5ModelE
FNDA:0,_ZNK5neml28VariableINS_5SFFR4EE5cloneERKNS_19LabeledAxisAccessorEPNS_5ModelE
FNDA:0,_ZNK5neml28VariableINS_5SSFR5EE5cloneERKNS_19LabeledAxisAccessorEPNS_5ModelE
FNDA:0,_ZNK5neml28VariableINS_6SSSSR8EE5cloneERKNS_19LabeledAxisAccessorEPNS_5ModelE
FNDA:249,_ZNK5neml28VariableINS_6ScalarEE5cloneERKNS_19LabeledAxisAccessorEPNS_5ModelE
FNDA:0,_ZNK5neml28VariableINS_6TensorEE5cloneERKNS_19LabeledAxisAccessorEPNS_5ModelE
FNDA:0,_ZN5neml28VariableINS_10QuaternionEE3refERKNS_12VariableBaseEb
FNDA:0,_ZN5neml28VariableINS_11MillerIndexEE3refERKNS_12VariableBaseEb
FNDA:6,_ZN5neml28VariableINS_2R2EE3refERKNS_12VariableBaseEb
FNDA:0,_ZN5neml28VariableINS_2R3EE3refERKNS_12VariableBaseEb
FNDA:0,_ZN5neml28VariableINS_2R4EE3refERKNS_12VariableBaseEb
FNDA:0,_ZN5neml28VariableINS_2R5EE3refERKNS_12VariableBaseEb
FNDA:0,_ZN5neml28VariableINS_2R8EE3refERKNS_12VariableBaseEb
FNDA:15,_ZN5neml28VariableINS_3RotEE3refERKNS_12VariableBaseEb
FNDA:227,_ZN5neml28VariableINS_3SR2EE3refERKNS_12VariableBaseEb
FNDA:0,_ZN5neml28VariableINS_3VecEE3refERKNS_12VariableBaseEb
FNDA:7,_ZN5neml28VariableINS_3WR2EE3refERKNS_12VariableBaseEb
FNDA:0,_ZN5neml28VariableINS_4SFR3EE3refERKNS_12VariableBaseEb
FNDA:7,_ZN5neml28VariableINS_4SSR4EE3refERKNS_12VariableBaseEb
FNDA:0,_ZN5neml28VariableINS_4SWR4EE3refERKNS_12VariableBaseEb
FNDA:0,_ZN5neml28VariableINS_4WSR4EE3refERKNS_12VariableBaseEb
FNDA:0,_ZN5neml28VariableINS_4WWR4EE3refERKNS_12VariableBaseEb
FNDA:0,_ZN5neml28VariableINS_5SFFR4EE3refERKNS_12VariableBaseEb
FNDA:0,_ZN5neml28VariableINS_5SSFR5EE3refERKNS_12VariableBaseEb
FNDA:0,_ZN5neml28VariableINS_6SSSSR8EE3refERKNS_12VariableBaseEb
FNDA:401,_ZN5neml28VariableINS_6ScalarEE3refERKNS_12VariableBaseEb
FNDA:0,_ZN5neml28VariableINS_6TensorEE3refERKNS_12VariableBaseEb
FNDA:1320,_ZN5neml212VariableBaseC2ERKNS_19LabeledAxisAccessorEPNS_5ModelEN3c108ArrayRefIlEE
FNDA:0,_ZN5neml28VariableINS_10QuaternionEE4zeroERKN3c1013TensorOptionsE
FNDA:0,_ZN5neml28VariableINS_11MillerIndexEE4zeroERKN3c1013TensorOptionsE
FNDA:60,_ZN5neml28VariableINS_2R2EE4zeroERKN3c1013TensorOptionsE
FNDA:0,_ZN5neml28VariableINS_2R3EE4zeroERKN3c1013TensorOptionsE
FNDA:0,_ZN5neml28VariableINS_2R4EE4zeroERKN3c1013TensorOptionsE
FNDA:0,_ZN5neml28VariableINS_2R5EE4zeroERKN3c1013TensorOptionsE
FNDA:0,_ZN5neml28VariableINS_2R8EE4zeroERKN3c1013TensorOptionsE
FNDA:311,_ZN5neml28VariableINS_3RotEE4zeroERKN3c1013TensorOptionsE
FNDA:3841,_ZN5neml28VariableINS_3SR2EE4zeroERKN3c1013TensorOptionsE
FNDA:0,_ZN5neml28VariableINS_3VecEE4zeroERKN3c1013TensorOptionsE
FNDA:177,_ZN5neml28VariableINS_3WR2EE4zeroERKN3c1013TensorOptionsE
FNDA:0,_ZN5neml28VariableINS_4SFR3EE4zeroERKN3c1013TensorOptionsE
FNDA:220,_ZN5neml28VariableINS_4SSR4EE4zeroERKN3c1013TensorOptionsE
FNDA:0,_ZN5neml28VariableINS_4SWR4EE4zeroERKN3c1013TensorOptionsE
FNDA:0,_ZN5neml28VariableINS_4WSR4EE4zeroERKN3c1013TensorOptionsE
FNDA:0,_ZN5neml28VariableINS_4WWR4EE4zeroERKN3c1013TensorOptionsE
FNDA:0,_ZN5neml28VariableINS_5SFFR4EE4zeroERKN3c1013TensorOptionsE
FNDA:0,_ZN5neml28VariableINS_5SSFR5EE4zeroERKN3c1013TensorOptionsE
FNDA:0,_ZN5neml28VariableINS_6SSSSR8EE4zeroERKN3c1013TensorOptionsE
FNDA:9255,_ZN5neml28VariableINS_6ScalarEE4zeroERKN3c1013TensorOptionsE
FNDA:0,_ZN5neml28VariableINS_6TensorEE4zeroERKN3c1013TensorOptionsE
FNDA:0,_ZN5neml28VariableINS_10QuaternionEE3setERKNS_6TensorE
FNDA:0,_ZN5neml28VariableINS_11MillerIndexEE3setERKNS_6TensorE
FNDA:0,_ZN5neml28VariableINS_2R2EE3setERKNS_6TensorE
FNDA:0,_ZN5neml28VariableINS_2R3EE3setERKNS_6TensorE
FNDA:0,_ZN5neml28VariableINS_2R4EE3setERKNS_6TensorE
FNDA:0,_ZN5neml28VariableINS_2R5EE3setERKNS_6TensorE
FNDA:0,_ZN5neml28VariableINS_2R8EE3setERKNS_6TensorE
FNDA:718,_ZN5neml28VariableINS_3RotEE3setERKNS_6TensorE
FNDA:5034,_ZN5neml28VariableINS_3SR2EE3setERKNS_6TensorE
FNDA:0,_ZN5neml28VariableINS_3VecEE3setERKNS_6TensorE
FNDA:116,_ZN5neml28VariableINS_3WR2EE3setERKNS_6TensorE
FNDA:0,_ZN5neml28VariableINS_4SFR3EE3setERKNS_6TensorE
FNDA:100,_ZN5neml28VariableINS_4SSR4EE3setERKNS_6TensorE
FNDA:0,_ZN5neml28VariableINS_4SWR4EE3setERKNS_6TensorE
FNDA:0,_ZN5neml28VariableINS_4WSR4EE3setERKNS_6TensorE
FNDA:0,_ZN5neml28VariableINS_4WWR4EE3setERKNS_6TensorE
FNDA:0,_ZN5neml28VariableINS_5SFFR4EE3setERKNS_6TensorE
FNDA:0,_ZN5neml28VariableINS_5SSFR5EE3setERKNS_6TensorE
FNDA:0,_ZN5neml28VariableINS_6SSSSR8EE3setERKNS_6TensorE
FNDA:9341,_ZN5neml28VariableINS_6ScalarEE3setERKNS_6TensorE
FNDA:0,_ZN5neml28VariableINS_6TensorEE3setERKS1_
FNDA:0,_ZNK5neml28VariableINS_10QuaternionEE6tensorEv
FNDA:0,_ZNK5neml28VariableINS_11MillerIndexEE6tensorEv
FNDA:604,_ZNK5neml28VariableINS_2R2EE6tensorEv
FNDA:0,_ZNK5neml28VariableINS_2R3EE6tensorEv
FNDA:0,_ZNK5neml28VariableINS_2R4EE6tensorEv
FNDA:0,_ZNK5neml28VariableINS_2R5EE6tensorEv
FNDA:0,_ZNK5neml28VariableINS_2R8EE6tensorEv
FNDA:669,_ZNK5neml28VariableINS_3RotEE6tensorEv
FNDA:12074,_ZNK5neml28VariableINS_3SR2EE6tensorEv
FNDA:0,_ZNK5neml28VariableINS_3VecEE6tensorEv
FNDA:202,_ZNK5neml28VariableINS_3WR2EE6tensorEv
FNDA:0,_ZNK5neml28VariableINS_4SFR3EE6tensorEv
FNDA:38,_ZNK5neml28VariableINS_4SSR4EE6tensorEv
FNDA:0,_ZNK5neml28VariableINS_4SWR4EE6tensorEv
FNDA:0,_ZNK5neml28VariableINS_4WSR4EE6tensorEv
FNDA:0,_ZNK5neml28VariableINS_4WWR4EE6tensorEv
FNDA:0,_ZNK5neml28VariableINS_5SFFR4EE6tensorEv
FNDA:0,_ZNK5neml28VariableINS_5SSFR5EE6tensorEv
FNDA:0,_ZNK5neml28VariableINS_6SSSSR8EE6tensorEv
FNDA:21661,_ZNK5neml28VariableINS_6ScalarEE6tensorEv
FNDA:0,_ZNK5neml28VariableINS_6TensorEE6tensorEv
FNDA:0,_ZN5neml28VariableINS_10QuaternionEE14requires_grad_Eb
FNDA:0,_ZN5neml28VariableINS_11MillerIndexEE14requires_grad_Eb
FNDA:0,_ZN5neml28VariableINS_2R2EE14requires_grad_Eb
FNDA:0,_ZN5neml28VariableINS_2R3EE14requires_grad_Eb
FNDA:0,_ZN5neml28VariableINS_2R4EE14requires_grad_Eb
FNDA:0,_ZN5neml28VariableINS_2R5EE14requires_grad_Eb
FNDA:0,_ZN5neml28VariableINS_2R8EE14requires_grad_Eb
FNDA:0,_ZN5neml28VariableINS_3RotEE14requires_grad_Eb
FNDA:157,_ZN5neml28VariableINS_3SR2EE14requires_grad_Eb
FNDA:0,_ZN5neml28VariableINS_3VecEE14requires_grad_Eb
FNDA:0,_ZN5neml28VariableINS_3WR2EE14requires_grad_Eb
FNDA:0,_ZN5neml28VariableINS_4SFR3EE14requires_grad_Eb
FNDA:0,_ZN5neml28VariableINS_4SSR4EE14requires_grad_Eb
FNDA:0,_ZN5neml28VariableINS_4SWR4EE14requires_grad_Eb
FNDA:0,_ZN5neml28VariableINS_4WSR4EE14requires_grad_Eb
FNDA:0,_ZN5neml28VariableINS_4WWR4EE14requires_grad_Eb
FNDA:0,_ZN5neml28VariableINS_5SFFR4EE14requires_grad_Eb
FNDA:0,_ZN5neml28VariableINS_5SSFR5EE14requires_grad_Eb
FNDA:0,_ZN5neml28VariableINS_6SSSSR8EE14requires_grad_Eb
FNDA:471,_ZN5neml28VariableINS_6ScalarEE14requires_grad_Eb
FNDA:0,_ZN5neml28VariableINS_6TensorEE14requires_grad_Eb
FNDA:0,_ZN5neml28VariableINS_10QuaternionEEaSERKNS_6TensorE
FNDA:0,_ZN5neml28VariableINS_11MillerIndexEEaSERKNS_6TensorE
FNDA:340,_ZN5neml28VariableINS_2R2EEaSERKNS_6TensorE
FNDA:0,_ZN5neml28VariableINS_2R3EEaSERKNS_6TensorE
FNDA:0,_ZN5neml28VariableINS_2R4EEaSERKNS_6TensorE
FNDA:0,_ZN5neml28VariableINS_2R5EEaSERKNS_6TensorE
FNDA:0,_ZN5neml28VariableINS_2R8EEaSERKNS_6TensorE
FNDA:324,_ZN5neml28VariableINS_3RotEEaSERKNS_6TensorE
FNDA:9810,_ZN5neml28VariableINS_3SR2EEaSERKNS_6TensorE
FNDA:0,_ZN5neml28VariableINS_3VecEEaSERKNS_6TensorE
FNDA:620,_ZN5neml28VariableINS_3WR2EEaSERKNS_6TensorE
FNDA:0,_ZN5neml28VariableINS_4SFR3EEaSERKNS_6TensorE
FNDA:120,_ZN5neml28VariableINS_4SSR4EEaSERKNS_6TensorE
FNDA:0,_ZN5neml28VariableINS_4SWR4EEaSERKNS_6TensorE
FNDA:0,_ZN5neml28VariableINS_4WSR4EEaSERKNS_6TensorE
FNDA:0,_ZN5neml28VariableINS_4WWR4EEaSERKNS_6TensorE
FNDA:0,_ZN5neml28VariableINS_5SFFR4EEaSERKNS_6TensorE
FNDA:0,_ZN5neml28VariableINS_5SSFR5EEaSERKNS_6TensorE
FNDA:0,_ZN5neml28VariableINS_6SSSSR8EEaSERKNS_6TensorE
FNDA:14253,_ZN5neml28VariableINS_6ScalarEEaSERKNS_6TensorE
FNDA:0,_ZN5neml28VariableINS_6TensorEEaSERKS1_
FNDA:433,_ZNK5neml212VariableBase5ownerEv
FNDA:0,_ZN5neml28VariableINS_10QuaternionEE5clearEv
FNDA:0,_ZN5neml28VariableINS_11MillerIndexEE5clearEv
FNDA:0,_ZN5neml28VariableINS_2R2EE5clearEv
FNDA:0,_ZN5neml28VariableINS_2R3EE5clearEv
FNDA:0,_ZN5neml28VariableINS_2R4EE5clearEv
FNDA:0,_ZN5neml28VariableINS_2R5EE5clearEv
FNDA:0,_ZN5neml28VariableINS_2R8EE5clearEv
FNDA:0,_ZN5neml28VariableINS_3RotEE5clearEv
FNDA:0,_ZN5neml28VariableINS_3SR2EE5clearEv
FNDA:0,_ZN5neml28VariableINS_3VecEE5clearEv
FNDA:0,_ZN5neml28VariableINS_3WR2EE5clearEv
FNDA:0,_ZN5neml28VariableINS_4SFR3EE5clearEv
FNDA:0,_ZN5neml28VariableINS_4SSR4EE5clearEv
FNDA:0,_ZN5neml28VariableINS_4SWR4EE5clearEv
FNDA:0,_ZN5neml28VariableINS_4WSR4EE5clearEv
FNDA:0,_ZN5neml28VariableINS_4WWR4EE5clearEv
FNDA:0,_ZN5neml28VariableINS_5SFFR4EE5clearEv
FNDA:0,_ZN5neml28VariableINS_5SSFR5EE5clearEv
FNDA:0,_ZN5neml28VariableINS_6SSSSR8EE5clearEv
FNDA:0,_ZN5neml28VariableINS_6ScalarEE5clearEv
FNDA:0,_ZN5neml28VariableINS_6TensorEE5clearEv
FNDA:24472,_ZN5neml210DerivativeaSERKNS_6TensorE
FNDA:60,_ZN5neml212VariableBase5ownerEv
FNDA:5848,_ZNK5neml212VariableBase8is_stateEv
FNDA:167,_ZNK5neml212VariableBase12is_old_stateEv
FNDA:172,_ZNK5neml212VariableBase8is_forceEv
FNDA:49,_ZNK5neml212VariableBase12is_old_forceEv
FNDA:852,_ZNK5neml212VariableBase11is_residualEv
FNDA:636,_ZNK5neml212VariableBase12is_parameterEv
FNDA:5402,_ZNK5neml212VariableBase18is_solve_dependentEv
FNDA:8741,_ZNK5neml212VariableBase12is_dependentEv
FNF:213
FNH:63
DA:31,1320
DA:32,1320
DA:33,1320
DA:34,1320
DA:36,1320
DA:39,433
DA:41,433
DA:42,433
DA:46,60
DA:48,60
DA:49,60
DA:53,5848
DA:55,5848
DA:59,167
DA:61,167
DA:65,172
DA:67,172
DA:71,49
DA:73,49
DA:77,852
DA:79,852
DA:83,636
DA:85,636
DA:89,5402
DA:91,5402
DA:95,8741
DA:97,8741
DA:101,24180
DA:103,24180
DA:105,24180
DA:107,24180
DA:109,24180
DA:113,292
DA:115,292
DA:117,292
DA:119,292
DA:121,292
DA:123,1168
DA:124,292
DA:128,0
DA:130,0
DA:131,0
DA:134,3
DA:136,15
DA:138,12
DA:139,12
DA:141,3
DA:144,0
DA:146,0
DA:147,0
DA:150,3
DA:153,15
DA:154,60
DA:156,48
DA:157,48
DA:158,48
DA:160,3
DA:163,0
DA:165,0
DA:166,0
DA:167,0
DA:168,0
DA:171,3811
DA:173,6925
DA:174,6925
DA:176,3811
DA:177,3811
DA:182,164
DA:184,164
DA:185,164
DA:187,164
DA:188,164
DA:193,54004
DA:195,54004
DA:196,4678
DA:198,49326
DA:199,54004
DA:202,15247
DA:206,15247
DA:208,52932
DA:210,37685
DA:211,26598
DA:213,22174
DA:214,37586
DA:215,37586
DA:218,15247
DA:219,0
DA:222,424
DA:226,424
DA:228,607
DA:229,427
DA:231,244
DA:232,93
DA:233,151
DA:234,38
DA:235,38
DA:236,19
DA:237,95
DA:238,19
DA:239,132
DA:240,36
DA:241,36
DA:242,18
DA:243,90
DA:244,18
DA:246,228
DA:247,312
DA:248,396
DA:249,564
DA:250,366
DA:251,366
DA:252,2196
DA:253,312
DA:256,1036
DA:257,612
DA:258,520
DA:259,503
DA:260,654
DA:261,411
DA:262,2055
DA:263,260
DA:265,424
DA:266,814
DA:270,1346
DA:272,1346
DA:277,433
DA:281,0
DA:282,0
DA:286,1299
DA:287,1732
DA:293,663
DA:295,663
DA:297,663
DA:299,663
DA:300,663
DA:302,663
DA:304,663
DA:305,663
DA:307,663
DA:309,663
DA:311,663
DA:313,663
DA:315,663
DA:316,663
DA:317,663
DA:321,13864
DA:323,13864
DA:326,0
DA:328,13864
DA:332,0
DA:333,0
DA:336,0
DA:338,13864
DA:342,15309
DA:344,15309
DA:345,11396
DA:346,22792
DA:349,3913
DA:353,3913
DA:355,15309
DA:359,35248
DA:361,35248
DA:363,20045
DA:364,20045
DA:365,20045
DA:366,20045
DA:368,15203
DA:373,628
DA:375,628
DA:376,628
DA:379,0
DA:380,628
DA:384,25467
DA:386,25467
DA:387,25467
DA:390,0
DA:394,0
DA:396,25467
DA:400,0
DA:402,0
DA:404,0
DA:405,0
DA:409,0
DA:410,0
DA:413,0
DA:415,0
DA:421,24472
DA:423,24472
DA:424,24472
LF:189
LH:160
end_of_record
TN:
SF:/home/runner/work/neml2/neml2/src/neml2/models/VariableRate.cxx
FN:36,53,_ZN5neml212VariableRateINS_3SR2EE16expected_optionsEv
FN:36,53,_ZN5neml212VariableRateINS_3VecEE16expected_optionsEv
FN:36,53,_ZN5neml212VariableRateINS_6ScalarEE16expected_optionsEv
FN:56,66,_ZN5neml212VariableRateINS_3SR2EEC2ERKNS_9OptionSetE
FN:56,66,_ZN5neml212VariableRateINS_3VecEEC2ERKNS_9OptionSetE
FN:56,66,_ZN5neml212VariableRateINS_6ScalarEEC2ERKNS_9OptionSetE
FN:70,74,_ZNK5neml212VariableRateINS_3SR2EE8diagnoseERSt6vectorINS_9DiagnosisESaIS4_EE
FN:70,74,_ZNK5neml212VariableRateINS_3VecEE8diagnoseERSt6vectorINS_9DiagnosisESaIS4_EE
FN:70,74,_ZNK5neml212VariableRateINS_6ScalarEE8diagnoseERSt6vectorINS_9DiagnosisESaIS4_EE
FN:78,104,_ZN5neml212VariableRateINS_3SR2EE9set_valueEbbb
FN:78,104,_ZN5neml212VariableRateINS_3VecEE9set_valueEbbb
FN:78,104,_ZN5neml212VariableRateINS_6ScalarEE9set_valueEbbb
FNDA:6,_ZN5neml212VariableRateINS_3SR2EE16expected_optionsEv
FNDA:6,_ZN5neml212VariableRateINS_3VecEE16expected_optionsEv
FNDA:6,_ZN5neml212VariableRateINS_6ScalarEE16expected_optionsEv
FNDA:6,_ZN5neml212VariableRateINS_3SR2EEC2ERKNS_9OptionSetE
FNDA:0,_ZN5neml212VariableRateINS_3VecEEC2ERKNS_9OptionSetE
FNDA:2,_ZN5neml212VariableRateINS_6ScalarEEC2ERKNS_9OptionSetE
FNDA:6,_ZNK5neml212VariableRateINS_3SR2EE8diagnoseERSt6vectorINS_9DiagnosisESaIS4_EE
FNDA:0,_ZNK5neml212VariableRateINS_3VecEE8diagnoseERSt6vectorINS_9DiagnosisESaIS4_EE
FNDA:0,_ZNK5neml212VariableRateINS_6ScalarEE8diagnoseERSt6vectorINS_9DiagnosisESaIS4_EE
FNDA:356,_ZN5neml212VariableRateINS_3SR2EE9set_valueEbbb
FNDA:0,_ZN5neml212VariableRateINS_3VecEE9set_valueEbbb
FNDA:20,_ZN5neml212VariableRateINS_6ScalarEE9set_valueEbbb
FNF:12
FNH:8
DA:36,18
DA:38,18
DA:39,18
DA:43,36
DA:44,36
DA:46,36
DA:47,18
DA:49,54
DA:50,18
DA:52,18
DA:53,0
DA:56,8
DA:58,8
DA:59,8
DA:60,8
DA:61,8
DA:62,8
DA:63,18
DA:64,16
DA:66,8
DA:70,6
DA:72,6
DA:73,6
DA:74,6
DA:78,376
DA:80,376
DA:82,376
DA:83,376
DA:85,376
DA:86,374
DA:88,376
DA:90,153
DA:92,153
DA:93,83
DA:95,153
DA:96,2
DA:98,153
DA:99,151
DA:101,2
DA:102,2
DA:103,153
DA:104,527
LF:42
LH:41
end_of_record
TN:
SF:/home/runner/work/neml2/neml2/src/neml2/models/VariableStore.cxx
FN:107,112,_ZN5neml213VariableStore10zero_inputEv
FN:115,120,_ZN5neml213VariableStore11zero_outputEv
FN:123,127,_ZN5neml213VariableStore12assign_inputERKSt3mapINS_19LabeledAxisAccessorENS_6TensorESt4lessIS2_ESaISt4pairIKS2_S3_EEE
FN:130,134,_ZN5neml213VariableStore13assign_outputERKSt3mapINS_19LabeledAxisAccessorENS_6TensorESt4lessIS2_ESaISt4pairIKS2_S3_EEE
FN:137,142,_ZN5neml213VariableStore25assign_output_derivativesERKSt3mapINS_19LabeledAxisAccessorES1_IS2_NS_6TensorESt4lessIS2_ESaISt4pairIKS2_S3_EEES5_SaIS6_IS7_SA_EEE
FN:145,151,_ZNK5neml213VariableStore13collect_inputEv
FN:154,160,_ZNK5neml213VariableStore14collect_outputEv
FN:163,169,_ZNK5neml213VariableStore26collect_output_derivativesEv
FN:172,178,_ZNK5neml213VariableStore33collect_output_second_derivativesEv
FN:30,37,_ZN5neml213VariableStoreC2ERKNS_9OptionSetEPNS_5ModelE
FN:40,49,_ZN5neml213VariableStore12declare_axisERKSs
FN:52,56,_ZN5neml213VariableStore12setup_layoutEv
FN:59,64,_ZN5neml213VariableStore14input_variableERKNS_19LabeledAxisAccessorE
FN:67,72,_ZNK5neml213VariableStore14input_variableERKNS_19LabeledAxisAccessorE
FN:75,80,_ZN5neml213VariableStore15output_variableERKNS_19LabeledAxisAccessorE
FN:83,88,_ZNK5neml213VariableStore15output_variableERKNS_19LabeledAxisAccessorE
FN:91,96,_ZN5neml213VariableStore11clear_inputEv
FN:99,104,_ZN5neml213VariableStore12clear_outputEv
FNDA:6641,_ZN5neml213VariableStore10zero_inputEv
FNDA:6641,_ZN5neml213VariableStore11zero_outputEv
FNDA:3434,_ZN5neml213VariableStore12assign_inputERKSt3mapINS_19LabeledAxisAccessorENS_6TensorESt4lessIS2_ESaISt4pairIKS2_S3_EEE
FNDA:0,_ZN5neml213VariableStore13assign_outputERKSt3mapINS_19LabeledAxisAccessorENS_6TensorESt4lessIS2_ESaISt4pairIKS2_S3_EEE
FNDA:6,_ZN5neml213VariableStore25assign_output_derivativesERKSt3mapINS_19LabeledAxisAccessorES1_IS2_NS_6TensorESt4lessIS2_ESaISt4pairIKS2_S3_EEES5_SaIS6_IS7_SA_EEE
FNDA:152,_ZNK5neml213VariableStore13collect_inputEv
FNDA:2682,_ZNK5neml213VariableStore14collect_outputEv
FNDA:1747,_ZNK5neml213VariableStore26collect_output_derivativesEv
FNDA:32,_ZNK5neml213VariableStore33collect_output_second_derivativesEv
FNDA:346,_ZN5neml213VariableStoreC2ERKNS_9OptionSetEPNS_5ModelE
FNDA:692,_ZN5neml213VariableStore12declare_axisERKSs
FNDA:346,_ZN5neml213VariableStore12setup_layoutEv
FNDA:12582,_ZN5neml213VariableStore14input_variableERKNS_19LabeledAxisAccessorE
FNDA:0,_ZNK5neml213VariableStore14input_variableERKNS_19LabeledAxisAccessorE
FNDA:16905,_ZN5neml213VariableStore15output_variableERKNS_19LabeledAxisAccessorE
FNDA:0,_ZNK5neml213VariableStore15output_variableERKNS_19LabeledAxisAccessorE
FNDA:0,_ZN5neml213VariableStore11clear_inputEv
FNDA:0,_ZN5neml213VariableStore12clear_outputEv
FNF:18
FNH:13
DA:30,346
DA:31,346
DA:32,346
DA:33,692
DA:34,346
DA:35,692
DA:37,346
DA:40,692
DA:42,692
DA:47,692
DA:48,1384
DA:49,692
DA:52,346
DA:54,346
DA:55,346
DA:56,346
DA:59,12582
DA:61,12582
DA:62,12582
DA:63,12582
DA:67,0
DA:69,0
DA:70,0
DA:71,0
DA:75,16905
DA:77,16905
DA:78,16905
DA:79,16905
DA:83,0
DA:85,0
DA:86,0
DA:87,0
DA:91,0
DA:93,0
DA:94,0
DA:95,0
DA:96,0
DA:99,0
DA:101,0
DA:102,0
DA:103,0
DA:104,0
DA:107,6641
DA:109,26583
DA:110,19942
DA:111,19942
DA:112,6641
DA:115,6641
DA:117,14707
DA:118,8066
DA:119,8066
DA:120,6641
DA:123,3434
DA:125,14830
DA:126,11396
DA:127,3434
DA:130,0
DA:132,0
DA:133,0
DA:134,0
DA:137,6
DA:140,24
DA:141,18
DA:142,6
DA:145,152
DA:147,152
DA:148,1511
DA:149,1359
DA:150,152
DA:151,0
DA:154,2682
DA:156,2682
DA:157,8407
DA:158,5725
DA:159,2682
DA:160,0
DA:163,1747
DA:165,1747
DA:166,5808
DA:167,4061
DA:168,1747
DA:169,0
DA:172,32
DA:174,32
DA:175,66
DA:176,34
DA:177,32
DA:178,0
LF:88
LH:62
end_of_record
TN:
SF:/home/runner/work/neml2/neml2/src/neml2/models/WR2ExplicitExponentialTimeIntegration.cxx
FN:33,50,_ZN5neml237WR2ExplicitExponentialTimeIntegration16expected_optionsEv
FN:52,63,_ZN5neml237WR2ExplicitExponentialTimeIntegrationC2ERKNS_9OptionSetE
FN:66,72,_ZNK5neml237WR2ExplicitExponentialTimeIntegration8diagnoseERSt6vectorINS_9DiagnosisESaIS2_EE
FN:75,99,_ZN5neml237WR2ExplicitExponentialTimeIntegration9set_valueEbbb
FNDA:6,_ZN5neml237WR2ExplicitExponentialTimeIntegration16expected_optionsEv
FNDA:1,_ZN5neml237WR2ExplicitExponentialTimeIntegrationC2ERKNS_9OptionSetE
FNDA:0,_ZNK5neml237WR2ExplicitExponentialTimeIntegration8diagnoseERSt6vectorINS_9DiagnosisESaIS2_EE
FNDA:14,_ZN5neml237WR2ExplicitExponentialTimeIntegration9set_valueEbbb
FNF:4
FNH:3
DA:33,6
DA:35,6
DA:36,6
DA:38,6
DA:40,12
DA:41,12
DA:43,12
DA:44,6
DA:46,18
DA:47,6
DA:49,6
DA:50,0
DA:52,1
DA:53,1
DA:55,1
DA:56,1
DA:57,1
DA:58,4
DA:59,1
DA:60,1
DA:61,2
DA:63,1
DA:66,0
DA:68,0
DA:69,0
DA:70,0
DA:71,0
DA:72,0
DA:75,14
DA:77,14
DA:79,14
DA:82,14
DA:84,14
DA:85,13
DA:87,14
DA:89,1
DA:90,1
DA:92,1
DA:93,0
DA:95,1
DA:96,1
DA:97,1
DA:98,1
DA:99,14
LF:44
LH:36
end_of_record
TN:
SF:/home/runner/work/neml2/neml2/src/neml2/models/WR2ImplicitExponentialTimeIntegration.cxx
FN:37,57,_ZN5neml237WR2ImplicitExponentialTimeIntegration16expected_optionsEv
FN:59,71,_ZN5neml237WR2ImplicitExponentialTimeIntegrationC2ERKNS_9OptionSetE
FN:74,80,_ZNK5neml237WR2ImplicitExponentialTimeIntegration8diagnoseERSt6vectorINS_9DiagnosisESaIS2_EE
FN:83,106,_ZN5neml237WR2ImplicitExponentialTimeIntegration9set_valueEbbb
FNDA:6,_ZN5neml237WR2ImplicitExponentialTimeIntegration16expected_optionsEv
FNDA:2,_ZN5neml237WR2ImplicitExponentialTimeIntegrationC2ERKNS_9OptionSetE
FNDA:1,_ZNK5neml237WR2ImplicitExponentialTimeIntegration8diagnoseERSt6vectorINS_9DiagnosisESaIS2_EE
FNDA:307,_ZN5neml237WR2ImplicitExponentialTimeIntegration9set_valueEbbb
FNF:4
FNH:4
DA:37,6
DA:39,6
DA:40,6
DA:43,6
DA:45,6
DA:47,12
DA:48,12
DA:50,12
DA:51,6
DA:53,18
DA:54,6
DA:56,6
DA:57,0
DA:59,2
DA:60,2
DA:62,2
DA:63,2
DA:64,2
DA:65,8
DA:66,2
DA:67,2
DA:68,2
DA:69,4
DA:71,2
DA:74,1
DA:76,1
DA:77,1
DA:78,1
DA:79,1
DA:80,1
DA:83,307
DA:85,307
DA:87,307
DA:88,307
DA:90,307
DA:91,306
DA:93,307
DA:95,63
DA:96,63
DA:97,63
DA:99,63
DA:100,62
DA:102,1
DA:103,1
DA:104,1
DA:105,63
DA:106,369
LF:47
LH:46
end_of_record
TN:
SF:/home/runner/work/neml2/neml2/src/neml2/models/crystallography/CrystalGeometry.cxx
FN:104,107,_ZNK5neml215crystallography15CrystalGeometry2b1Ev
FN:110,113,_ZNK5neml215crystallography15CrystalGeometry2b2Ev
FN:116,119,_ZNK5neml215crystallography15CrystalGeometry2b3Ev
FN:122,125,_ZNK5neml215crystallography15CrystalGeometry5nslipEv
FN:128,132,_ZNK5neml215crystallography15CrystalGeometry12nslip_groupsEv
FN:135,139,_ZNK5neml215crystallography15CrystalGeometry14nslip_in_groupEl
FN:141,163,_ZN5neml215crystallography15CrystalGeometryC2ERKNS_9OptionSetERKNS_2R2ERKNS_3VecESt5tupleIJS8_S8_NS_6ScalarESt6vectorIlSaIlEEEE
FN:166,177,_ZN5neml215crystallography15CrystalGeometry23make_reciprocal_latticeERKNS_3VecE
FN:180,184,_ZN5neml215crystallography15CrystalGeometry19miller_to_cartesianERKNS_3VecERKNS_11MillerIndexE
FN:187,246,_ZN5neml215crystallography15CrystalGeometry20setup_schmid_tensorsERKNS_3VecERKNS_2R2ERKNS_11MillerIndexESA_
FN:38,59,_ZN5neml215crystallography15CrystalGeometry16expected_optionsEv
FN:61,70,_ZN5neml215crystallography15CrystalGeometryC2ERKNS_9OptionSetE
FN:72,83,_ZN5neml215crystallography15CrystalGeometryC2ERKNS_9OptionSetERKNS_2R2ERKNS_3VecE
FN:86,89,_ZNK5neml215crystallography15CrystalGeometry2a1Ev
FN:92,95,_ZNK5neml215crystallography15CrystalGeometry2a2Ev
FN:98,101,_ZNK5neml215crystallography15CrystalGeometry2a3Ev
FNDA:2,_ZNK5neml215crystallography15CrystalGeometry2b1Ev
FNDA:2,_ZNK5neml215crystallography15CrystalGeometry2b2Ev
FNDA:2,_ZNK5neml215crystallography15CrystalGeometry2b3Ev
FNDA:374,_ZNK5neml215crystallography15CrystalGeometry5nslipEv
FNDA:6,_ZNK5neml215crystallography15CrystalGeometry12nslip_groupsEv
FNDA:2,_ZNK5neml215crystallography15CrystalGeometry14nslip_in_groupEl
FNDA:35,_ZN5neml215crystallography15CrystalGeometryC2ERKNS_9OptionSetERKNS_2R2ERKNS_3VecESt5tupleIJS8_S8_NS_6ScalarESt6vectorIlSaIlEEEE
FNDA:70,_ZN5neml215crystallography15CrystalGeometry23make_reciprocal_latticeERKNS_3VecE
FNDA:70,_ZN5neml215crystallography15CrystalGeometry19miller_to_cartesianERKNS_3VecERKNS_11MillerIndexE
FNDA:35,_ZN5neml215crystallography15CrystalGeometry20setup_schmid_tensorsERKNS_3VecERKNS_2R2ERKNS_11MillerIndexESA_
FNDA:12,_ZN5neml215crystallography15CrystalGeometry16expected_optionsEv
FNDA:11,_ZN5neml215crystallography15CrystalGeometryC2ERKNS_9OptionSetE
FNDA:24,_ZN5neml215crystallography15CrystalGeometryC2ERKNS_9OptionSetERKNS_2R2ERKNS_3VecE
FNDA:2,_ZNK5neml215crystallography15CrystalGeometry2a1Ev
FNDA:2,_ZNK5neml215crystallography15CrystalGeometry2a2Ev
FNDA:2,_ZNK5neml215crystallography15CrystalGeometry2a3Ev
FNF:16
FNH:16
DA:38,12
DA:40,12
DA:42,12
DA:43,12
DA:45,24
DA:46,24
DA:48,24
DA:49,36
DA:50,12
DA:52,24
DA:53,24
DA:55,24
DA:56,12
DA:58,12
DA:59,0
DA:61,11
DA:63,22
DA:64,22
DA:65,33
DA:66,33
DA:67,33
DA:68,66
DA:70,11
DA:72,24
DA:74,24
DA:78,48
DA:80,72
DA:81,72
DA:83,24
DA:86,2
DA:88,6
DA:89,2
DA:92,2
DA:94,6
DA:95,2
DA:98,2
DA:100,6
DA:101,2
DA:104,2
DA:106,6
DA:107,2
DA:110,2
DA:112,6
DA:113,2
DA:116,2
DA:118,6
DA:119,2
DA:122,374
DA:124,374
DA:128,6
DA:131,6
DA:135,2
DA:137,2
DA:138,2
DA:141,35
DA:144,35
DA:146,35
DA:147,35
DA:148,35
DA:149,70
DA:150,140
DA:151,140
DA:152,35
DA:153,70
DA:154,70
DA:155,70
DA:156,35
DA:157,35
DA:158,70
DA:159,70
DA:160,105
DA:161,140
DA:163,35
DA:166,70
DA:168,140
DA:169,140
DA:170,140
DA:172,490
DA:173,140
DA:174,210
DA:176,140
DA:177,560
DA:180,70
DA:183,70
DA:187,35
DA:193,35
DA:196,35
DA:197,0
DA:199,35
DA:200,35
DA:203,35
DA:204,35
DA:205,35
DA:206,70
DA:208,70
DA:211,105
DA:212,105
DA:215,35
DA:216,35
DA:221,35
DA:222,245
DA:224,630
DA:225,210
DA:227,210
DA:229,630
DA:231,840
DA:232,1260
DA:233,420
DA:234,420
DA:235,420
DA:236,420
DA:237,420
DA:238,210
DA:239,35
DA:240,35
DA:242,70
DA:243,70
DA:244,70
DA:245,70
DA:246,1155
LF:120
LH:118
end_of_record
TN:
SF:/home/runner/work/neml2/neml2/src/neml2/models/crystallography/CubicCrystal.cxx
FN:38,51,_ZN5neml215crystallography12CubicCrystal16expected_optionsEv
FN:53,59,_ZN5neml215crystallography12CubicCrystalC2ERKNS_9OptionSetE
FNDA:6,_ZN5neml215crystallography12CubicCrystal16expected_optionsEv
FNDA:24,_ZN5neml215crystallography12CubicCrystalC2ERKNS_9OptionSetE
FNF:2
FNH:2
DA:38,6
DA:40,6
DA:41,6
DA:42,6
DA:44,12
DA:45,12
DA:47,12
DA:48,6
DA:50,6
DA:51,0
DA:53,24
DA:56,72
DA:57,96
DA:59,24
LF:14
LH:13
end_of_record
TN:
SF:/home/runner/work/neml2/neml2/src/neml2/models/crystallography/MillerIndex.cxx
FN:32,35,_ZN5neml211MillerIndex4fillEiiiRKN3c1013TensorOptionsE
FN:38,45,_ZNK5neml211MillerIndex6reduceEv
FN:48,51,_ZNK5neml211MillerIndex6to_vecERKN3c1013TensorOptionsE
FN:54,58,_ZNK5neml211MillerIndex17to_normalized_vecERKN3c1013TensorOptionsE
FNDA:10,_ZN5neml211MillerIndex4fillEiiiRKN3c1013TensorOptionsE
FNDA:73,_ZNK5neml211MillerIndex6reduceEv
FNDA:74,_ZNK5neml211MillerIndex6to_vecERKN3c1013TensorOptionsE
FNDA:2,_ZNK5neml211MillerIndex17to_normalized_vecERKN3c1013TensorOptionsE
FNF:4
FNH:4
DA:32,10
DA:34,40
DA:35,10
DA:38,73
DA:42,511
DA:43,73
DA:44,73
DA:45,219
DA:48,74
DA:50,74
DA:54,2
DA:56,2
DA:57,4
DA:58,2
LF:14
LH:14
end_of_record
TN:
SF:/home/runner/work/neml2/neml2/src/neml2/models/crystallography/crystallography.cxx
FN:131,155,_ZN5neml215crystallography20unique_bidirectionalERKNS_2R2ERKNS_3VecE
FN:145,146,_ZZN5neml215crystallography20unique_bidirectionalERKNS_2R2ERKNS_3VecEENKUlRKN2at6TensorESA_E_clESA_SA_
FN:37,48,_ZN5neml215crystallography26crystal_symmetry_operators10tetragonalERKN3c1013TensorOptionsE
FN:51,66,_ZN5neml215crystallography26crystal_symmetry_operators9hexagonalERKN3c1013TensorOptionsE
FN:69,78,_ZN5neml215crystallography26crystal_symmetry_operators5cubicERKN3c1013TensorOptionsE
FN:82,128,_ZN5neml215crystallography33symmetry_operations_from_orbifoldESsRKN3c1013TensorOptionsE
FNDA:70,_ZN5neml215crystallography20unique_bidirectionalERKNS_2R2ERKNS_3VecE
FNDA:2730,_ZZN5neml215crystallography20unique_bidirectionalERKNS_2R2ERKNS_3VecEENKUlRKN2at6TensorESA_E_clESA_SA_
FNDA:24,_ZN5neml215crystallography26crystal_symmetry_operators10tetragonalERKN3c1013TensorOptionsE
FNDA:20,_ZN5neml215crystallography26crystal_symmetry_operators9hexagonalERKN3c1013TensorOptionsE
FNDA:54,_ZN5neml215crystallography26crystal_symmetry_operators5cubicERKN3c1013TensorOptionsE
FNDA:90,_ZN5neml215crystallography33symmetry_operations_from_orbifoldESsRKN3c1013TensorOptionsE
FNF:6
FNH:6
DA:37,24
DA:39,1008
DA:47,264
DA:48,816
DA:51,20
DA:53,1240
DA:65,300
DA:66,1000
DA:69,54
DA:71,6588
DA:77,1458
DA:78,5292
DA:82,90
DA:84,90
DA:85,50
DA:87,40
DA:89,16
DA:91,36
DA:92,4
DA:94,32
DA:95,16
DA:96,16
DA:97,24
DA:99,28
DA:101,16
DA:103,24
DA:105,16
DA:107,20
DA:108,4
DA:110,16
DA:111,16
DA:112,16
DA:113,24
DA:115,12
DA:117,16
DA:119,8
DA:121,16
DA:123,4
DA:125,16
DA:127,0
DA:128,120
DA:131,70
DA:133,70
DA:135,70
DA:139,350
DA:140,70
DA:141,1680
DA:143,3220
DA:145,2730
DA:146,2730
DA:147,1610
DA:149,280
DA:150,280
DA:152,1610
DA:154,140
DA:155,1820
LF:56
LH:55
end_of_record
TN:
SF:/home/runner/work/neml2/neml2/src/neml2/models/crystallography/user_tensors/FillMillerIndex.cxx
FN:35,44,_ZN5neml215crystallography15FillMillerIndex16expected_optionsEv
FN:46,50,_ZN5neml215crystallography15FillMillerIndexC2ERKNS_9OptionSetE
FN:53,59,_ZNK5neml215crystallography15FillMillerIndex4fillERKSt6vectorIiSaIiEE
FNDA:6,_ZN5neml215crystallography15FillMillerIndex16expected_optionsEv
FNDA:143,_ZN5neml215crystallography15FillMillerIndexC2ERKNS_9OptionSetE
FNDA:143,_ZNK5neml215crystallography15FillMillerIndex4fillERKSt6vectorIiSaIiEE
FNF:3
FNH:3
DA:35,6
DA:37,6
DA:38,6
DA:39,6
DA:41,12
DA:42,6
DA:43,6
DA:44,0
DA:46,143
DA:48,286
DA:50,142
DA:53,143
DA:55,143
DA:56,1
DA:58,142
LF:15
LH:14
end_of_record
TN:
SF:/home/runner/work/neml2/neml2/src/neml2/models/crystallography/user_tensors/SymmetryFromOrbifold.cxx
FN:36,47,_ZN5neml215crystallography20SymmetryFromOrbifold16expected_optionsEv
FN:49,53,_ZN5neml215crystallography20SymmetryFromOrbifoldC2ERKNS_9OptionSetE
FNDA:6,_ZN5neml215crystallography20SymmetryFromOrbifold16expected_optionsEv
FNDA:66,_ZN5neml215crystallography20SymmetryFromOrbifoldC2ERKNS_9OptionSetE
FNF:2
FNH:2
DA:36,6
DA:38,6
DA:39,6
DA:40,6
DA:42,12
DA:43,12
DA:45,6
DA:46,6
DA:47,0
DA:49,66
DA:50,66
DA:51,132
DA:53,66
LF:13
LH:12
end_of_record
TN:
SF:/home/runner/work/neml2/neml2/src/neml2/models/solid_mechanics/AnisotropicElasticity.cxx
FN:30,39,_ZN5neml221AnisotropicElasticity16expected_optionsEv
FN:41,45,_ZN5neml221AnisotropicElasticityC2ERKNS_9OptionSetE
FNDA:6,_ZN5neml221AnisotropicElasticity16expected_optionsEv
FNDA:5,_ZN5neml221AnisotropicElasticityC2ERKNS_9OptionSetE
FNF:2
FNH:2
DA:30,6
DA:32,6
DA:33,6
DA:35,18
DA:36,6
DA:38,6
DA:39,0
DA:41,5
DA:43,5
DA:45,5
LF:10
LH:9
end_of_record
TN:
SF:/home/runner/work/neml2/neml2/src/neml2/models/solid_mechanics/AssociativeIsotropicPlasticHardening.cxx
FN:32,50,_ZN5neml236AssociativeIsotropicPlasticHardening16expected_optionsEv
FN:52,58,_ZN5neml236AssociativeIsotropicPlasticHardeningC2ERKNS_9OptionSetE
FN:61,81,_ZN5neml236AssociativeIsotropicPlasticHardening9set_valueEbbb
FNDA:6,_ZN5neml236AssociativeIsotropicPlasticHardening16expected_optionsEv
FNDA:2,_ZN5neml236AssociativeIsotropicPlasticHardeningC2ERKNS_9OptionSetE
FNDA:177,_ZN5neml236AssociativeIsotropicPlasticHardening9set_valueEbbb
FNF:3
FNH:3
DA:32,6
DA:34,6
DA:35,6
DA:39,6
DA:41,18
DA:42,12
DA:43,6
DA:45,12
DA:46,18
DA:47,6
DA:49,6
DA:50,0
DA:52,2
DA:53,2
DA:55,2
DA:56,4
DA:58,2
DA:61,177
DA:63,177
DA:70,177
DA:71,176
DA:73,177
DA:75,82
DA:76,82
DA:78,82
DA:79,82
DA:81,177
LF:27
LH:26
end_of_record
TN:
SF:/home/runner/work/neml2/neml2/src/neml2/models/solid_mechanics/AssociativeJ2FlowDirection.cxx
FN:33,45,_ZN5neml226AssociativeJ2FlowDirection16expected_optionsEv
FN:47,52,_ZN5neml226AssociativeJ2FlowDirectionC2ERKNS_9OptionSetE
FN:55,76,_ZN5neml226AssociativeJ2FlowDirection9set_valueEbbb
FNDA:6,_ZN5neml226AssociativeJ2FlowDirection16expected_optionsEv
FNDA:1,_ZN5neml226AssociativeJ2FlowDirectionC2ERKNS_9OptionSetE
FNDA:9,_ZN5neml226AssociativeJ2FlowDirection9set_valueEbbb
FNF:3
FNH:3
DA:33,6
DA:35,6
DA:36,6
DA:38,18
DA:39,6
DA:41,18
DA:42,6
DA:44,6
DA:45,0
DA:47,1
DA:49,1
DA:50,2
DA:52,1
DA:55,9
DA:57,9
DA:59,9
DA:60,9
DA:61,9
DA:63,9
DA:65,8
DA:68,9
DA:69,1
DA:71,1
DA:72,1
DA:74,1
DA:75,1
DA:76,9
LF:27
LH:26
end_of_record
TN:
SF:/home/runner/work/neml2/neml2/src/neml2/models/solid_mechanics/AssociativeKinematicPlasticHardening.cxx
FN:33,52,_ZN5neml236AssociativeKinematicPlasticHardening16expected_optionsEv
FN:54,60,_ZN5neml236AssociativeKinematicPlasticHardeningC2ERKNS_9OptionSetE
FN:63,85,_ZN5neml236AssociativeKinematicPlasticHardening9set_valueEbbb
FNDA:6,_ZN5neml236AssociativeKinematicPlasticHardening16expected_optionsEv
FNDA:1,_ZN5neml236AssociativeKinematicPlasticHardeningC2ERKNS_9OptionSetE
FNDA:11,_ZN5neml236AssociativeKinematicPlasticHardening9set_valueEbbb
FNF:3
FNH:3
DA:33,6
DA:35,6
DA:36,6
DA:41,6
DA:43,18
DA:44,12
DA:45,6
DA:47,12
DA:48,18
DA:49,6
DA:51,6
DA:52,0
DA:54,1
DA:55,1
DA:57,1
DA:58,2
DA:60,1
DA:63,11
DA:65,11
DA:72,11
DA:73,10
DA:75,11
DA:77,1
DA:79,1
DA:80,1
DA:82,1
DA:83,1
DA:84,1
DA:85,11
LF:29
LH:28
end_of_record
TN:
SF:/home/runner/work/neml2/neml2/src/neml2/models/solid_mechanics/AssociativePlasticFlow.cxx
FN:33,50,_ZN5neml222AssociativePlasticFlow16expected_optionsEv
FN:52,57,_ZN5neml222AssociativePlasticFlowC2ERKNS_9OptionSetE
FN:60,81,_ZN5neml222AssociativePlasticFlow9set_valueEbbb
FNDA:6,_ZN5neml222AssociativePlasticFlow16expected_optionsEv
FNDA:4,_ZN5neml222AssociativePlasticFlowC2ERKNS_9OptionSetE
FNDA:340,_ZN5neml222AssociativePlasticFlow9set_valueEbbb
FNF:3
FNH:3
DA:33,6
DA:35,6
DA:36,6
DA:41,6
DA:43,18
DA:44,6
DA:46,18
DA:47,6
DA:49,6
DA:50,0
DA:52,4
DA:54,4
DA:55,8
DA:57,4
DA:60,340
DA:62,340
DA:68,340
DA:69,339
DA:71,340
DA:73,152
DA:75,152
DA:76,152
DA:78,152
DA:79,152
DA:80,152
DA:81,340
LF:26
LH:25
end_of_record
TN:
SF:/home/runner/work/neml2/neml2/src/neml2/models/solid_mechanics/ChabochePlasticHardening.cxx
FN:34,50,_ZN5neml224ChabochePlasticHardening16expected_optionsEv
FN:52,57,_ZN5neml224ChabochePlasticHardeningC2ERKNS_9OptionSetE
FN:60,101,_ZN5neml224ChabochePlasticHardening9set_valueEbbb
FNDA:6,_ZN5neml224ChabochePlasticHardening16expected_optionsEv
FNDA:4,_ZN5neml224ChabochePlasticHardeningC2ERKNS_9OptionSetE
FNDA:386,_ZN5neml224ChabochePlasticHardening9set_valueEbbb
FNF:3
FNH:3
DA:34,6
DA:36,6
DA:37,6
DA:41,6
DA:43,12
DA:44,12
DA:46,12
DA:47,6
DA:49,6
DA:50,0
DA:52,4
DA:54,12
DA:55,20
DA:57,4
DA:60,386
DA:62,386
DA:66,386
DA:68,386
DA:70,386
DA:72,386
DA:73,385
DA:75,386
DA:77,164
DA:79,164
DA:80,164
DA:82,164
DA:83,164
DA:85,164
DA:86,164
DA:87,328
DA:89,492
DA:90,1
DA:92,492
DA:93,1
DA:95,492
DA:96,1
DA:98,492
DA:99,1
DA:100,164
DA:101,386
LF:40
LH:39
end_of_record
TN:
SF:/home/runner/work/neml2/neml2/src/neml2/models/solid_mechanics/CubicElasticityTensor.cxx
FN:110,123,_ZN5neml221CubicElasticityTensor13convert_to_C1Ev
FN:126,139,_ZN5neml221CubicElasticityTensor13convert_to_C2Ev
FN:142,152,_ZN5neml221CubicElasticityTensor13convert_to_C3Ev
FN:32,67,_ZN5neml221CubicElasticityTensor16expected_optionsEv
FN:69,78,_ZN5neml221CubicElasticityTensorC2ERKNS_9OptionSetE
FN:81,107,_ZN5neml221CubicElasticityTensor9set_valueEbbb
FNDA:8,_ZN5neml221CubicElasticityTensor13convert_to_C1Ev
FNDA:8,_ZN5neml221CubicElasticityTensor13convert_to_C2Ev
FNDA:8,_ZN5neml221CubicElasticityTensor13convert_to_C3Ev
FNDA:6,_ZN5neml221CubicElasticityTensor16expected_optionsEv
FNDA:1,_ZN5neml221CubicElasticityTensorC2ERKNS_9OptionSetE
FNDA:8,_ZN5neml221CubicElasticityTensor9set_valueEbbb
FNF:6
FNH:6
DA:32,6
DA:34,6
DA:35,6
DA:37,6
DA:39,12
DA:40,12
DA:47,36
DA:48,6
DA:49,12
DA:50,18
DA:52,12
DA:53,12
DA:55,6
DA:56,12
DA:57,18
DA:59,12
DA:60,12
DA:62,6
DA:63,12
DA:64,18
DA:66,12
DA:67,6
DA:69,1
DA:71,4
DA:72,1
DA:73,5
DA:74,1
DA:75,5
DA:76,2
DA:78,1
DA:81,8
DA:83,8
DA:85,8
DA:86,8
DA:87,8
DA:89,8
DA:90,8
DA:91,8
DA:93,8
DA:94,8
DA:96,8
DA:98,3
DA:99,1
DA:101,3
DA:102,1
DA:104,3
DA:105,1
DA:107,8
DA:110,8
DA:112,8
DA:113,8
DA:114,16
DA:115,16
DA:116,16
DA:117,16
DA:118,24
DA:119,0
DA:120,0
DA:121,0
DA:122,0
DA:126,8
DA:128,8
DA:129,8
DA:130,16
DA:131,16
DA:132,16
DA:133,16
DA:134,24
DA:135,0
DA:136,0
DA:137,0
DA:138,0
DA:142,8
DA:144,8
DA:145,8
DA:147,8
DA:148,0
DA:149,0
DA:150,0
DA:151,0
LF:80
LH:68
end_of_record
TN:
SF:/home/runner/work/neml2/neml2/src/neml2/models/solid_mechanics/Eigenstrain.cxx
FN:30,38,_ZN5neml211Eigenstrain16expected_optionsEv
FN:40,44,_ZN5neml211EigenstrainC2ERKNS_9OptionSetE
FNDA:6,_ZN5neml211Eigenstrain16expected_optionsEv
FNDA:2,_ZN5neml211EigenstrainC2ERKNS_9OptionSetE
FNF:2
FNH:2
DA:30,6
DA:32,6
DA:34,18
DA:35,6
DA:37,6
DA:38,0
DA:40,2
DA:42,2
DA:44,2
LF:9
LH:8
end_of_record
TN:
SF:/home/runner/work/neml2/neml2/src/neml2/models/solid_mechanics/Elasticity.cxx
FN:30,52,_ZN5neml210Elasticity16expected_optionsEv
FN:54,63,_ZN5neml210ElasticityC2ERKNS_9OptionSetE
FNDA:12,_ZN5neml210Elasticity16expected_optionsEv
FNDA:25,_ZN5neml210ElasticityC2ERKNS_9OptionSetE
FNF:2
FNH:2
DA:30,12
DA:32,12
DA:33,12
DA:35,36
DA:36,12
DA:38,36
DA:39,24
DA:41,24
DA:42,36
DA:44,12
DA:46,24
DA:47,24
DA:49,12
DA:51,12
DA:52,0
DA:54,25
DA:56,50
DA:57,50
DA:58,100
DA:59,75
DA:60,25
DA:61,50
DA:63,25
LF:23
LH:22
end_of_record
TN:
SF:/home/runner/work/neml2/neml2/src/neml2/models/solid_mechanics/ElasticityTensor.cxx
FN:31,37,_ZN5neml216ElasticityTensor16expected_optionsEv
FN:39,42,_ZN5neml216ElasticityTensorC2ERKNS_9OptionSetE
FNDA:12,_ZN5neml216ElasticityTensor16expected_optionsEv
FNDA:3,_ZN5neml216ElasticityTensorC2ERKNS_9OptionSetE
FNF:2
FNH:2
DA:31,12
DA:33,12
DA:34,12
DA:36,12
DA:37,0
DA:39,3
DA:40,3
DA:42,3
LF:8
LH:7
end_of_record
TN:
SF:/home/runner/work/neml2/neml2/src/neml2/models/solid_mechanics/FlowRule.cxx
FN:30,40,_ZN5neml28FlowRule16expected_optionsEv
FN:42,46,_ZN5neml28FlowRuleC2ERKNS_9OptionSetE
FNDA:36,_ZN5neml28FlowRule16expected_optionsEv
FNDA:15,_ZN5neml28FlowRuleC2ERKNS_9OptionSetE
FNF:2
FNH:2
DA:30,36
DA:32,36
DA:33,36
DA:34,36
DA:36,108
DA:37,36
DA:39,36
DA:40,0
DA:42,15
DA:44,15
DA:46,15
LF:11
LH:10
end_of_record
TN:
SF:/home/runner/work/neml2/neml2/src/neml2/models/solid_mechanics/FredrickArmstrongPlasticHardening.cxx
FN:34,62,_ZN5neml233FredrickArmstrongPlasticHardening16expected_optionsEv
FN:64,74,_ZN5neml233FredrickArmstrongPlasticHardeningC2ERKNS_9OptionSetE
FN:77,109,_ZN5neml233FredrickArmstrongPlasticHardening9set_valueEbbb
FNDA:12,_ZN5neml233FredrickArmstrongPlasticHardening16expected_optionsEv
FNDA:6,_ZN5neml233FredrickArmstrongPlasticHardeningC2ERKNS_9OptionSetE
FNDA:40,_ZN5neml233FredrickArmstrongPlasticHardening9set_valueEbbb
FNF:3
FNH:3
DA:34,12
DA:36,12
DA:37,12
DA:44,12
DA:46,36
DA:47,24
DA:49,24
DA:50,12
DA:52,36
DA:53,24
DA:55,24
DA:56,24
DA:58,24
DA:59,12
DA:61,12
DA:62,0
DA:64,6
DA:66,6
DA:67,6
DA:68,18
DA:69,24
DA:71,24
DA:72,30
DA:74,6
DA:77,40
DA:79,40
DA:83,40
DA:85,40
DA:87,40
DA:88,39
DA:90,40
DA:92,2
DA:94,2
DA:95,2
DA:97,2
DA:98,2
DA:100,2
DA:101,2
DA:103,6
DA:104,1
DA:106,6
DA:107,1
DA:108,2
DA:109,40
LF:44
LH:43
end_of_record
TN:
SF:/home/runner/work/neml2/neml2/src/neml2/models/solid_mechanics/GTNYieldFunction.cxx
FN:33,75,_ZN5neml216GTNYieldFunction16expected_optionsEv
FN:77,91,_ZN5neml216GTNYieldFunctionC2ERKNS_9OptionSetE
FN:94,403,_ZN5neml216GTNYieldFunction9set_valueEbbb
FNDA:6,_ZN5neml216GTNYieldFunction16expected_optionsEv
FNDA:3,_ZN5neml216GTNYieldFunctionC2ERKNS_9OptionSetE
FNDA:237,_ZN5neml216GTNYieldFunction9set_valueEbbb
FNF:3
FNH:3
DA:33,6
DA:35,6
DA:36,6
DA:44,6
DA:46,12
DA:47,12
DA:49,12
DA:50,18
DA:51,6
DA:53,12
DA:54,12
DA:56,12
DA:57,6
DA:59,18
DA:60,6
DA:62,18
DA:63,12
DA:65,12
DA:66,6
DA:68,18
DA:69,6
DA:71,18
DA:72,6
DA:74,6
DA:75,0
DA:77,3
DA:79,3
DA:80,3
DA:81,3
DA:82,3
DA:83,3
DA:84,3
DA:85,3
DA:86,12
DA:87,12
DA:88,15
DA:89,15
DA:91,3
DA:94,237
DA:97,237
DA:99,237
DA:100,406
DA:101,609
DA:103,237
DA:105,198
DA:106,198
DA:108,198
DA:109,198
DA:111,198
DA:112,198
DA:114,198
DA:115,198
DA:116,396
DA:119,594
DA:120,130
DA:121,260
DA:123,594
DA:124,130
DA:126,594
DA:127,130
DA:129,594
DA:130,130
DA:133,237
DA:135,6
DA:136,6
DA:137,6
DA:138,6
DA:169,3
DA:171,3
DA:173,3
DA:174,3
DA:176,3
DA:177,1
DA:187,3
DA:189,3
DA:190,6
DA:192,3
DA:193,3
DA:195,3
DA:196,9
DA:197,6
DA:198,12
DA:199,6
DA:200,3
DA:201,3
DA:202,2
DA:203,4
DA:204,2
DA:206,3
DA:207,1
DA:209,3
DA:210,3
DA:211,2
DA:212,4
DA:213,2
DA:223,3
DA:225,3
DA:226,3
DA:228,3
DA:230,3
DA:231,3
DA:233,3
DA:234,1
DA:236,3
DA:237,1
DA:239,3
DA:240,1
DA:242,3
DA:243,1
DA:253,3
DA:255,3
DA:256,3
DA:258,3
DA:259,9
DA:260,6
DA:261,12
DA:262,6
DA:264,3
DA:265,3
DA:267,3
DA:268,6
DA:269,6
DA:270,12
DA:271,6
DA:273,3
DA:274,1
DA:275,2
DA:276,2
DA:277,4
DA:278,2
DA:280,3
DA:281,1
DA:283,3
DA:284,3
DA:285,2
DA:286,4
DA:287,2
DA:297,3
DA:299,1
DA:300,1
DA:302,1
DA:303,1
DA:305,1
DA:306,1
DA:307,2
DA:308,2
DA:309,4
DA:310,2
DA:312,1
DA:313,2
DA:314,2
DA:315,4
DA:316,2
DA:318,1
DA:319,1
DA:321,1
DA:322,3
DA:323,2
DA:324,4
DA:325,2
DA:335,3
DA:337,1
DA:338,1
DA:340,1
DA:341,1
DA:343,1
DA:344,1
DA:346,1
DA:347,1
DA:349,1
DA:350,1
DA:360,3
DA:362,1
DA:363,3
DA:364,2
DA:365,4
DA:366,2
DA:368,1
DA:369,1
DA:371,1
DA:372,3
DA:373,2
DA:374,4
DA:375,2
DA:377,1
DA:378,3
DA:379,2
DA:380,4
DA:381,2
DA:383,1
DA:384,1
DA:386,1
DA:387,2
DA:397,3
DA:399,1
DA:400,1
DA:403,237
LF:197
LH:196
end_of_record
TN:
SF:/home/runner/work/neml2/neml2/src/neml2/models/solid_mechanics/GeneralElasticity.cxx
FN:34,44,_ZN5neml217GeneralElasticity16expected_optionsEv
FN:46,50,_ZN5neml217GeneralElasticityC2ERKNS_9OptionSetE
FN:53,88,_ZN5neml217GeneralElasticity9set_valueEbbb
FNDA:6,_ZN5neml217GeneralElasticity16expected_optionsEv
FNDA:5,_ZN5neml217GeneralElasticityC2ERKNS_9OptionSetE
FNDA:139,_ZN5neml217GeneralElasticity9set_valueEbbb
FNF:3
FNH:3
DA:34,6
DA:36,6
DA:37,6
DA:38,6
DA:40,12
DA:41,6
DA:43,6
DA:44,0
DA:46,5
DA:48,20
DA:50,5
DA:53,139
DA:55,139
DA:57,139
DA:58,139
DA:60,139
DA:61,136
DA:63,139
DA:65,5
DA:66,5
DA:68,5
DA:70,5
DA:71,5
DA:72,12
DA:75,12
DA:76,5
DA:78,15
DA:80,2
DA:81,2
DA:82,6
DA:85,4
DA:86,2
DA:88,153
LF:33
LH:32
end_of_record
TN:
SF:/home/runner/work/neml2/neml2/src/neml2/models/solid_mechanics/GursonCavitation.cxx
FN:33,49,_ZN5neml216GursonCavitation16expected_optionsEv
FN:51,57,_ZN5neml216GursonCavitationC2ERKNS_9OptionSetE
FN:60,79,_ZN5neml216GursonCavitation9set_valueEbbb
FNDA:6,_ZN5neml216GursonCavitation16expected_optionsEv
FNDA:1,_ZN5neml216GursonCavitationC2ERKNS_9OptionSetE
FNDA:11,_ZN5neml216GursonCavitation9set_valueEbbb
FNF:3
FNH:3
DA:33,6
DA:35,6
DA:36,6
DA:37,6
DA:39,18
DA:40,6
DA:42,18
DA:43,6
DA:45,18
DA:46,6
DA:48,6
DA:49,0
DA:51,1
DA:53,1
DA:54,1
DA:55,2
DA:57,1
DA:60,11
DA:62,11
DA:64,11
DA:66,11
DA:67,10
DA:69,11
DA:71,1
DA:73,1
DA:74,1
DA:76,1
DA:77,1
DA:78,1
DA:79,11
LF:30
LH:29
end_of_record
TN:
SF:/home/runner/work/neml2/neml2/src/neml2/models/solid_mechanics/IsotropicElasticityTensor.cxx
FN:112,123,_ZN5neml225IsotropicElasticityTensor13convert_to_muEv
FN:32,58,_ZN5neml225IsotropicElasticityTensor16expected_optionsEv
FN:60,67,_ZN5neml225IsotropicElasticityTensorC2ERKNS_9OptionSetE
FN:70,91,_ZN5neml225IsotropicElasticityTensor9set_valueEbbb
FN:94,109,_ZN5neml225IsotropicElasticityTensor17convert_to_lambdaEv
FNDA:12,_ZN5neml225IsotropicElasticityTensor13convert_to_muEv
FNDA:6,_ZN5neml225IsotropicElasticityTensor16expected_optionsEv
FNDA:2,_ZN5neml225IsotropicElasticityTensorC2ERKNS_9OptionSetE
FNDA:12,_ZN5neml225IsotropicElasticityTensor9set_valueEbbb
FNDA:12,_ZN5neml225IsotropicElasticityTensor17convert_to_lambdaEv
FNF:5
FNH:5
DA:32,6
DA:34,6
DA:35,6
DA:36,6
DA:38,12
DA:39,12
DA:45,36
DA:46,6
DA:47,12
DA:48,18
DA:50,12
DA:51,12
DA:53,6
DA:54,12
DA:55,18
DA:57,12
DA:58,6
DA:60,2
DA:62,8
DA:63,2
DA:64,10
DA:65,4
DA:67,2
DA:70,12
DA:72,12
DA:74,12
DA:75,12
DA:77,12
DA:78,12
DA:80,12
DA:81,12
DA:83,12
DA:85,6
DA:86,2
DA:88,8
DA:89,2
DA:91,12
DA:94,12
DA:96,12
DA:97,12
DA:98,12
DA:99,12
DA:100,18
DA:101,6
DA:102,12
DA:103,12
DA:104,12
DA:105,18
DA:106,0
DA:107,0
DA:108,0
DA:112,12
DA:114,12
DA:116,6
DA:117,6
DA:119,6
DA:120,0
DA:121,0
DA:122,0
LF:59
LH:53
end_of_record
TN:
SF:/home/runner/work/neml2/neml2/src/neml2/models/solid_mechanics/IsotropicHardening.cxx
FN:30,42,_ZN5neml218IsotropicHardening16expected_optionsEv
FN:44,49,_ZN5neml218IsotropicHardeningC2ERKNS_9OptionSetE
FNDA:12,_ZN5neml218IsotropicHardening16expected_optionsEv
FNDA:4,_ZN5neml218IsotropicHardeningC2ERKNS_9OptionSetE
FNF:2
FNH:2
DA:30,12
DA:32,12
DA:33,12
DA:35,36
DA:36,12
DA:38,36
DA:39,12
DA:41,12
DA:42,0
DA:44,4
DA:46,4
DA:47,8
DA:49,4
LF:13
LH:12
end_of_record
TN:
SF:/home/runner/work/neml2/neml2/src/neml2/models/solid_mechanics/IsotropicHardeningStaticRecovery.cxx
FN:31,44,_ZN5neml232IsotropicHardeningStaticRecovery16expected_optionsEv
FN:46,54,_ZN5neml232IsotropicHardeningStaticRecoveryC2ERKNS_9OptionSetE
FNDA:6,_ZN5neml232IsotropicHardeningStaticRecovery16expected_optionsEv
FNDA:1,_ZN5neml232IsotropicHardeningStaticRecoveryC2ERKNS_9OptionSetE
FNF:2
FNH:2
DA:31,6
DA:33,6
DA:34,6
DA:36,18
DA:37,12
DA:39,12
DA:40,12
DA:41,6
DA:43,6
DA:44,0
DA:46,1
DA:48,1
DA:49,2
DA:50,1
DA:51,4
DA:52,1
DA:54,1
LF:17
LH:16
end_of_record
TN:
SF:/home/runner/work/neml2/neml2/src/neml2/models/solid_mechanics/IsotropicMandelStress.cxx
FN:33,40,_ZN5neml221IsotropicMandelStress16expected_optionsEv
FN:43,58,_ZN5neml221IsotropicMandelStress9set_valueEbbb
FNDA:6,_ZN5neml221IsotropicMandelStress16expected_optionsEv
FNDA:338,_ZN5neml221IsotropicMandelStress9set_valueEbbb
FNF:2
FNH:2
DA:33,6
DA:35,6
DA:36,6
DA:37,6
DA:39,6
DA:40,0
DA:43,338
DA:47,338
DA:48,337
DA:50,338
DA:51,152
DA:52,152
DA:58,338
LF:13
LH:12
end_of_record
TN:
SF:/home/runner/work/neml2/neml2/src/neml2/models/solid_mechanics/KinematicHardening.cxx
FN:30,42,_ZN5neml218KinematicHardening16expected_optionsEv
FN:44,49,_ZN5neml218KinematicHardeningC2ERKNS_9OptionSetE
FNDA:6,_ZN5neml218KinematicHardening16expected_optionsEv
FNDA:1,_ZN5neml218KinematicHardeningC2ERKNS_9OptionSetE
FNF:2
FNH:2
DA:30,6
DA:32,6
DA:33,6
DA:35,18
DA:36,6
DA:38,18
DA:39,6
DA:41,6
DA:42,0
DA:44,1
DA:46,1
DA:47,2
DA:49,1
LF:13
LH:12
end_of_record
TN:
SF:/home/runner/work/neml2/neml2/src/neml2/models/solid_mechanics/KinematicHardeningStaticRecovery.cxx
FN:32,45,_ZN5neml232KinematicHardeningStaticRecovery16expected_optionsEv
FN:47,54,_ZN5neml232KinematicHardeningStaticRecoveryC2ERKNS_9OptionSetE
FNDA:6,_ZN5neml232KinematicHardeningStaticRecovery16expected_optionsEv
FNDA:1,_ZN5neml232KinematicHardeningStaticRecoveryC2ERKNS_9OptionSetE
FNF:2
FNH:2
DA:32,6
DA:34,6
DA:35,6
DA:37,18
DA:38,12
DA:40,12
DA:41,12
DA:42,6
DA:44,6
DA:45,0
DA:47,1
DA:49,1
DA:50,3
DA:51,4
DA:52,1
DA:54,1
LF:16
LH:15
end_of_record
TN:
SF:/home/runner/work/neml2/neml2/src/neml2/models/solid_mechanics/KocksMeckingActivationEnergy.cxx
FN:33,63,_ZN5neml228KocksMeckingActivationEnergy16expected_optionsEv
FN:65,75,_ZN5neml228KocksMeckingActivationEnergyC2ERKNS_9OptionSetE
FN:78,96,_ZN5neml228KocksMeckingActivationEnergy9set_valueEbbb
FNDA:6,_ZN5neml228KocksMeckingActivationEnergy16expected_optionsEv
FNDA:2,_ZN5neml228KocksMeckingActivationEnergyC2ERKNS_9OptionSetE
FNDA:14,_ZN5neml228KocksMeckingActivationEnergy9set_valueEbbb
FNF:3
FNH:3
DA:33,6
DA:35,6
DA:36,6
DA:41,6
DA:43,12
DA:44,12
DA:46,12
DA:47,12
DA:49,12
DA:50,12
DA:51,12
DA:52,6
DA:54,18
DA:55,6
DA:57,18
DA:58,6
DA:60,18
DA:61,6
DA:62,6
DA:63,0
DA:65,2
DA:67,8
DA:68,4
DA:69,4
DA:70,10
DA:71,2
DA:72,2
DA:73,4
DA:75,2
DA:78,14
DA:80,14
DA:82,14
DA:83,13
DA:85,14
DA:87,2
DA:88,2
DA:90,2
DA:91,2
DA:93,6
DA:94,1
DA:96,14
LF:41
LH:40
end_of_record
TN:
SF:/home/runner/work/neml2/neml2/src/neml2/models/solid_mechanics/KocksMeckingFlowSwitch.cxx
FN:33,60,_ZN5neml222KocksMeckingFlowSwitch16expected_optionsEv
FN:62,71,_ZN5neml222KocksMeckingFlowSwitchC2ERKNS_9OptionSetE
FN:74,97,_ZN5neml222KocksMeckingFlowSwitch9set_valueEbbb
FNDA:6,_ZN5neml222KocksMeckingFlowSwitch16expected_optionsEv
FNDA:2,_ZN5neml222KocksMeckingFlowSwitchC2ERKNS_9OptionSetE
FNDA:18,_ZN5neml222KocksMeckingFlowSwitch9set_valueEbbb
FNF:3
FNH:3
DA:33,6
DA:35,6
DA:36,6
DA:40,6
DA:42,12
DA:43,6
DA:45,18
DA:46,12
DA:48,12
DA:49,12
DA:50,6
DA:52,18
DA:53,6
DA:54,18
DA:55,6
DA:57,18
DA:58,6
DA:59,6
DA:60,0
DA:62,2
DA:64,6
DA:65,2
DA:66,2
DA:67,2
DA:68,2
DA:69,4
DA:71,2
DA:74,18
DA:76,18
DA:78,18
DA:80,18
DA:81,17
DA:83,18
DA:85,2
DA:86,2
DA:88,2
DA:89,2
DA:91,2
DA:92,2
DA:94,6
DA:95,1
DA:96,2
DA:97,18
LF:43
LH:42
end_of_record
TN:
SF:/home/runner/work/neml2/neml2/src/neml2/models/solid_mechanics/KocksMeckingFlowViscosity.cxx
FN:33,65,_ZN5neml225KocksMeckingFlowViscosity16expected_optionsEv
FN:67,77,_ZN5neml225KocksMeckingFlowViscosityC2ERKNS_9OptionSetE
FN:80,173,_ZN5neml225KocksMeckingFlowViscosity9set_valueEbbb
FNDA:6,_ZN5neml225KocksMeckingFlowViscosity16expected_optionsEv
FNDA:2,_ZN5neml225KocksMeckingFlowViscosityC2ERKNS_9OptionSetE
FNDA:50,_ZN5neml225KocksMeckingFlowViscosity9set_valueEbbb
FNF:3
FNH:3
DA:33,6
DA:35,6
DA:36,6
DA:44,6
DA:46,12
DA:47,12
DA:48,12
DA:49,12
DA:50,12
DA:51,12
DA:53,12
DA:54,12
DA:56,12
DA:57,12
DA:58,12
DA:59,6
DA:61,18
DA:62,6
DA:64,6
DA:65,0
DA:67,2
DA:69,6
DA:70,8
DA:71,10
DA:72,4
DA:73,4
DA:74,10
DA:75,4
DA:77,2
DA:80,50
DA:82,50
DA:84,50
DA:85,46
DA:87,50
DA:89,37
DA:90,37
DA:92,111
DA:93,34
DA:95,111
DA:96,34
DA:98,111
DA:99,34
DA:102,50
DA:105,2
DA:107,2
DA:109,6
DA:110,1
DA:111,2
DA:113,6
DA:114,1
DA:116,6
DA:117,1
DA:118,2
DA:122,6
DA:124,1
DA:125,1
DA:126,2
DA:128,1
DA:130,3
DA:131,1
DA:133,3
DA:134,1
DA:135,2
DA:139,6
DA:141,1
DA:142,1
DA:144,3
DA:145,1
DA:147,1
DA:149,3
DA:150,1
DA:151,2
DA:155,6
DA:157,1
DA:158,1
DA:159,2
DA:161,3
DA:162,1
DA:163,2
DA:165,3
DA:166,1
DA:167,2
DA:169,3
DA:170,4
DA:173,50
LF:85
LH:84
end_of_record
TN:
SF:/home/runner/work/neml2/neml2/src/neml2/models/solid_mechanics/KocksMeckingIntercept.cxx
FN:34,51,_ZN5neml221KocksMeckingIntercept16expected_optionsEv
FN:53,59,_ZN5neml221KocksMeckingInterceptC2ERKNS_9OptionSetE
FN:62,98,_ZN5neml221KocksMeckingIntercept9set_valueEbbb
FNDA:6,_ZN5neml221KocksMeckingIntercept16expected_optionsEv
FNDA:2,_ZN5neml221KocksMeckingInterceptC2ERKNS_9OptionSetE
FNDA:30,_ZN5neml221KocksMeckingIntercept9set_valueEbbb
FNF:3
FNH:3
DA:34,6
DA:36,6
DA:38,6
DA:39,6
DA:41,12
DA:42,12
DA:44,12
DA:45,12
DA:47,12
DA:48,6
DA:50,6
DA:51,0
DA:53,2
DA:55,6
DA:56,8
DA:57,10
DA:59,2
DA:62,30
DA:64,30
DA:65,28
DA:67,30
DA:69,63
DA:70,20
DA:72,63
DA:73,20
DA:75,63
DA:76,20
DA:79,30
DA:81,6
DA:83,1
DA:84,3
DA:85,1
DA:86,3
DA:87,1
DA:90,6
DA:91,3
DA:92,1
DA:94,6
DA:95,3
DA:96,1
DA:98,30
LF:41
LH:40
end_of_record
TN:
SF:/home/runner/work/neml2/neml2/src/neml2/models/solid_mechanics/KocksMeckingRateSensitivity.cxx
FN:32,54,_ZN5neml227KocksMeckingRateSensitivity16expected_optionsEv
FN:56,64,_ZN5neml227KocksMeckingRateSensitivityC2ERKNS_9OptionSetE
FN:67,120,_ZN5neml227KocksMeckingRateSensitivity9set_valueEbbb
FNDA:6,_ZN5neml227KocksMeckingRateSensitivity16expected_optionsEv
FNDA:2,_ZN5neml227KocksMeckingRateSensitivityC2ERKNS_9OptionSetE
FNDA:34,_ZN5neml227KocksMeckingRateSensitivity9set_valueEbbb
FNF:3
FNH:3
DA:32,6
DA:34,6
DA:35,6
DA:39,6
DA:41,12
DA:42,12
DA:43,12
DA:44,12
DA:46,12
DA:47,12
DA:48,12
DA:49,6
DA:51,18
DA:52,6
DA:53,6
DA:54,0
DA:56,2
DA:58,6
DA:59,10
DA:60,4
DA:61,10
DA:62,4
DA:64,2
DA:67,34
DA:69,34
DA:70,30
DA:72,34
DA:74,23
DA:75,23
DA:76,69
DA:77,20
DA:78,69
DA:79,20
DA:82,34
DA:85,2
DA:86,2
DA:88,8
DA:91,1
DA:93,1
DA:95,1
DA:96,1
DA:97,1
DA:98,1
DA:101,6
DA:104,1
DA:106,1
DA:107,1
DA:108,1
DA:109,1
DA:111,3
DA:114,1
DA:115,1
DA:116,1
DA:117,1
DA:120,34
LF:55
LH:54
end_of_record
TN:
SF:/home/runner/work/neml2/neml2/src/neml2/models/solid_mechanics/KocksMeckingYieldStress.cxx
FN:33,47,_ZN5neml223KocksMeckingYieldStress16expected_optionsEv
FN:49,54,_ZN5neml223KocksMeckingYieldStressC2ERKNS_9OptionSetE
FN:57,84,_ZN5neml223KocksMeckingYieldStress9set_valueEbbb
FNDA:6,_ZN5neml223KocksMeckingYieldStress16expected_optionsEv
FNDA:2,_ZN5neml223KocksMeckingYieldStressC2ERKNS_9OptionSetE
FNDA:17,_ZN5neml223KocksMeckingYieldStress9set_valueEbbb
FNF:3
FNH:3
DA:33,6
DA:35,6
DA:37,6
DA:39,6
DA:41,12
DA:42,12
DA:43,12
DA:44,6
DA:46,6
DA:47,0
DA:49,2
DA:51,6
DA:52,10
DA:54,2
DA:57,17
DA:59,17
DA:60,16
DA:62,17
DA:64,33
DA:65,10
DA:67,33
DA:68,10
DA:71,17
DA:73,3
DA:75,1
DA:77,3
DA:79,1
DA:80,1
DA:84,17
LF:29
LH:28
end_of_record
TN:
SF:/home/runner/work/neml2/neml2/src/neml2/models/solid_mechanics/LinearIsotropicElasticJ2TrialStressUpdate.cxx
FN:32,57,_ZN5neml241LinearIsotropicElasticJ2TrialStressUpdate16expected_optionsEv
FN:59,69,_ZN5neml241LinearIsotropicElasticJ2TrialStressUpdateC2ERKNS_9OptionSetE
FN:72,97,_ZN5neml241LinearIsotropicElasticJ2TrialStressUpdate9set_valueEbbb
FNDA:6,_ZN5neml241LinearIsotropicElasticJ2TrialStressUpdate16expected_optionsEv
FNDA:1,_ZN5neml241LinearIsotropicElasticJ2TrialStressUpdateC2ERKNS_9OptionSetE
FNDA:8,_ZN5neml241LinearIsotropicElasticJ2TrialStressUpdate9set_valueEbbb
FNF:3
FNH:3
DA:32,6
DA:34,6
DA:36,6
DA:37,6
DA:39,18
DA:40,6
DA:42,18
DA:43,12
DA:44,6
DA:46,18
DA:47,18
DA:48,6
DA:50,12
DA:51,12
DA:53,12
DA:54,6
DA:56,6
DA:57,0
DA:59,1
DA:60,1
DA:62,1
DA:63,1
DA:64,1
DA:65,1
DA:66,4
DA:67,5
DA:69,1
DA:72,8
DA:74,8
DA:76,8
DA:77,14
DA:78,21
DA:80,8
DA:82,1
DA:83,1
DA:84,2
DA:86,1
DA:87,1
DA:89,1
DA:90,1
DA:97,8
LF:41
LH:40
end_of_record
TN:
SF:/home/runner/work/neml2/neml2/src/neml2/models/solid_mechanics/LinearIsotropicElasticity.cxx
FN:34,50,_ZN5neml225LinearIsotropicElasticity16expected_optionsEv
FN:52,57,_ZN5neml225LinearIsotropicElasticityC2ERKNS_9OptionSetE
FN:60,99,_ZN5neml225LinearIsotropicElasticity9set_valueEbbb
FNDA:6,_ZN5neml225LinearIsotropicElasticity16expected_optionsEv
FNDA:20,_ZN5neml225LinearIsotropicElasticityC2ERKNS_9OptionSetE
FNDA:716,_ZN5neml225LinearIsotropicElasticity9set_valueEbbb
FNF:3
FNH:3
DA:34,6
DA:36,6
DA:37,6
DA:41,6
DA:43,12
DA:44,12
DA:46,12
DA:47,6
DA:49,6
DA:50,0
DA:52,20
DA:54,60
DA:55,100
DA:57,20
DA:60,716
DA:62,716
DA:66,716
DA:67,716
DA:68,716
DA:69,716
DA:71,716
DA:72,712
DA:74,1432
DA:75,1432
DA:77,716
DA:79,219
DA:80,219
DA:82,219
DA:83,219
DA:85,219
DA:87,2
DA:88,2
DA:89,2
DA:90,2
DA:92,219
DA:94,2
DA:95,2
DA:96,2
DA:97,2
DA:98,219
DA:99,716
LF:41
LH:40
end_of_record
TN:
SF:/home/runner/work/neml2/neml2/src/neml2/models/solid_mechanics/LinearIsotropicHardening.cxx
FN:32,42,_ZN5neml224LinearIsotropicHardening16expected_optionsEv
FN:44,48,_ZN5neml224LinearIsotropicHardeningC2ERKNS_9OptionSetE
FN:51,64,_ZN5neml224LinearIsotropicHardening9set_valueEbbb
FNDA:6,_ZN5neml224LinearIsotropicHardening16expected_optionsEv
FNDA:1,_ZN5neml224LinearIsotropicHardeningC2ERKNS_9OptionSetE
FNDA:4,_ZN5neml224LinearIsotropicHardening9set_valueEbbb
FNF:3
FNH:3
DA:32,6
DA:34,6
DA:35,6
DA:36,6
DA:38,12
DA:39,6
DA:41,6
DA:42,0
DA:44,1
DA:46,4
DA:48,1
DA:51,4
DA:53,4
DA:54,3
DA:56,4
DA:57,1
DA:58,1
DA:64,4
LF:18
LH:17
end_of_record
TN:
SF:/home/runner/work/neml2/neml2/src/neml2/models/solid_mechanics/LinearKinematicHardening.cxx
FN:33,43,_ZN5neml224LinearKinematicHardening16expected_optionsEv
FN:45,49,_ZN5neml224LinearKinematicHardeningC2ERKNS_9OptionSetE
FN:52,65,_ZN5neml224LinearKinematicHardening9set_valueEbbb
FNDA:6,_ZN5neml224LinearKinematicHardening16expected_optionsEv
FNDA:1,_ZN5neml224LinearKinematicHardeningC2ERKNS_9OptionSetE
FNDA:9,_ZN5neml224LinearKinematicHardening9set_valueEbbb
FNF:3
FNH:3
DA:33,6
DA:35,6
DA:36,6
DA:37,6
DA:39,12
DA:40,6
DA:42,6
DA:43,0
DA:45,1
DA:47,4
DA:49,1
DA:52,9
DA:54,9
DA:55,8
DA:57,9
DA:58,1
DA:59,1
DA:65,9
LF:18
LH:17
end_of_record
TN:
SF:/home/runner/work/neml2/neml2/src/neml2/models/solid_mechanics/MandelStress.cxx
FN:30,42,_ZN5neml212MandelStress16expected_optionsEv
FN:44,49,_ZN5neml212MandelStressC2ERKNS_9OptionSetE
FNDA:6,_ZN5neml212MandelStress16expected_optionsEv
FNDA:4,_ZN5neml212MandelStressC2ERKNS_9OptionSetE
FNF:2
FNH:2
DA:30,6
DA:32,6
DA:33,6
DA:35,18
DA:36,6
DA:38,18
DA:39,6
DA:41,6
DA:42,0
DA:44,4
DA:46,4
DA:47,8
DA:49,4
LF:13
LH:12
end_of_record
TN:
SF:/home/runner/work/neml2/neml2/src/neml2/models/solid_mechanics/MixedControlSetup.cxx
FN:109,122,_ZNK5neml217MixedControlSetup14make_operatorsERKNS_3SR2E
FN:33,64,_ZN5neml217MixedControlSetup16expected_optionsEv
FN:66,75,_ZN5neml217MixedControlSetupC2ERKNS_9OptionSetE
FN:78,106,_ZN5neml217MixedControlSetup9set_valueEbbb
FNDA:224,_ZNK5neml217MixedControlSetup14make_operatorsERKNS_3SR2E
FNDA:6,_ZN5neml217MixedControlSetup16expected_optionsEv
FNDA:3,_ZN5neml217MixedControlSetupC2ERKNS_9OptionSetE
FNDA:224,_ZN5neml217MixedControlSetup9set_valueEbbb
FNF:4
FNH:4
DA:33,6
DA:35,6
DA:36,6
DA:39,6
DA:41,18
DA:42,18
DA:44,6
DA:46,24
DA:47,6
DA:49,18
DA:50,12
DA:51,6
DA:53,18
DA:54,12
DA:55,6
DA:57,18
DA:58,6
DA:60,18
DA:61,6
DA:63,6
DA:64,0
DA:66,3
DA:68,3
DA:69,3
DA:70,3
DA:71,3
DA:72,3
DA:73,6
DA:75,3
DA:78,224
DA:80,224
DA:82,224
DA:85,223
DA:86,223
DA:89,224
DA:91,82
DA:93,1
DA:94,1
DA:97,82
DA:99,82
DA:100,82
DA:106,224
DA:109,224
DA:111,224
DA:112,224
DA:115,224
DA:116,224
DA:118,224
DA:119,224
DA:121,448
DA:122,224
LF:51
LH:50
end_of_record
TN:
SF:/home/runner/work/neml2/neml2/src/neml2/models/solid_mechanics/Normality.cxx
FN:33,52,_ZN5neml29Normality16expected_optionsEv
FN:54,72,_ZN5neml29NormalityC2ERKNS_9OptionSetE
FN:75,105,_ZN5neml29Normality9set_valueEbbb
FNDA:6,_ZN5neml29Normality16expected_optionsEv
FNDA:4,_ZN5neml29NormalityC2ERKNS_9OptionSetE
FNDA:379,_ZN5neml29Normality9set_valueEbbb
FNF:3
FNH:3
DA:33,6
DA:35,6
DA:36,6
DA:37,6
DA:39,12
DA:40,12
DA:42,12
DA:43,12
DA:45,12
DA:46,12
DA:48,12
DA:49,6
DA:51,6
DA:52,0
DA:54,4
DA:56,4
DA:57,16
DA:60,8
DA:61,4
DA:62,4
DA:64,4
DA:66,4
DA:70,11
DA:71,7
DA:72,4
DA:75,379
DA:77,379
DA:80,379
DA:81,379
DA:82,227
DA:84,152
DA:85,379
DA:87,379
DA:88,1029
DA:90,650
DA:92,0
DA:93,0
DA:96,650
DA:97,647
DA:99,650
DA:100,800
DA:101,884
DA:102,319
DA:103,565
DA:105,379
LF:45
LH:42
end_of_record
TN:
SF:/home/runner/work/neml2/neml2/src/neml2/models/solid_mechanics/OlevskySinteringStress.cxx
FN:32,54,_ZN5neml222OlevskySinteringStress16expected_optionsEv
FN:56,63,_ZN5neml222OlevskySinteringStressC2ERKNS_9OptionSetE
FN:66,78,_ZN5neml222OlevskySinteringStress9set_valueEbbb
FNDA:6,_ZN5neml222OlevskySinteringStress16expected_optionsEv
FNDA:1,_ZN5neml222OlevskySinteringStressC2ERKNS_9OptionSetE
FNDA:7,_ZN5neml222OlevskySinteringStress9set_valueEbbb
FNF:3
FNH:3
DA:32,6
DA:34,6
DA:35,6
DA:39,6
DA:41,18
DA:42,6
DA:44,18
DA:45,12
DA:47,12
DA:48,12
DA:50,12
DA:51,6
DA:53,6
DA:54,0
DA:56,1
DA:58,1
DA:59,1
DA:60,4
DA:61,5
DA:63,1
DA:66,7
DA:68,7
DA:69,3
DA:71,7
DA:72,3
DA:73,3
DA:75,7
DA:76,1
DA:77,1
DA:78,7
LF:30
LH:29
end_of_record
TN:
SF:/home/runner/work/neml2/neml2/src/neml2/models/solid_mechanics/PerzynaPlasticFlowRate.cxx
FN:33,49,_ZN5neml222PerzynaPlasticFlowRate16expected_optionsEv
FN:51,56,_ZN5neml222PerzynaPlasticFlowRateC2ERKNS_9OptionSetE
FN:59,88,_ZN5neml222PerzynaPlasticFlowRate9set_valueEbbb
FNDA:6,_ZN5neml222PerzynaPlasticFlowRate16expected_optionsEv
FNDA:5,_ZN5neml222PerzynaPlasticFlowRateC2ERKNS_9OptionSetE
FNDA:341,_ZN5neml222PerzynaPlasticFlowRate9set_valueEbbb
FNF:3
FNH:3
DA:33,6
DA:35,6
DA:36,6
DA:40,6
DA:42,12
DA:43,12
DA:45,12
DA:46,6
DA:48,6
DA:49,0
DA:51,5
DA:53,15
DA:54,25
DA:56,5
DA:59,341
DA:61,341
DA:64,341
DA:65,341
DA:66,341
DA:67,341
DA:69,341
DA:70,340
DA:72,341
DA:74,153
DA:76,153
DA:78,153
DA:79,153
DA:81,459
DA:82,1
DA:84,459
DA:85,1
DA:87,153
DA:88,341
LF:33
LH:32
end_of_record
TN:
SF:/home/runner/work/neml2/neml2/src/neml2/models/solid_mechanics/PlasticFlowRate.cxx
FN:30,41,_ZN5neml215PlasticFlowRate16expected_optionsEv
FN:43,48,_ZN5neml215PlasticFlowRateC2ERKNS_9OptionSetE
FNDA:6,_ZN5neml215PlasticFlowRate16expected_optionsEv
FNDA:5,_ZN5neml215PlasticFlowRateC2ERKNS_9OptionSetE
FNF:2
FNH:2
DA:30,6
DA:32,6
DA:34,18
DA:35,6
DA:37,18
DA:38,6
DA:40,6
DA:41,0
DA:43,5
DA:45,5
DA:46,10
DA:48,5
LF:12
LH:11
end_of_record
TN:
SF:/home/runner/work/neml2/neml2/src/neml2/models/solid_mechanics/PowerLawIsotropicHardeningStaticRecovery.cxx
FN:33,46,_ZN5neml240PowerLawIsotropicHardeningStaticRecovery16expected_optionsEv
FN:48,54,_ZN5neml240PowerLawIsotropicHardeningStaticRecoveryC2ERKNS_9OptionSetE
FN:57,79,_ZN5neml240PowerLawIsotropicHardeningStaticRecovery9set_valueEbbb
FNDA:6,_ZN5neml240PowerLawIsotropicHardeningStaticRecovery16expected_optionsEv
FNDA:1,_ZN5neml240PowerLawIsotropicHardeningStaticRecoveryC2ERKNS_9OptionSetE
FNDA:8,_ZN5neml240PowerLawIsotropicHardeningStaticRecovery9set_valueEbbb
FNF:3
FNH:3
DA:33,6
DA:35,6
DA:36,6
DA:38,6
DA:40,12
DA:41,12
DA:42,12
DA:43,6
DA:45,6
DA:46,0
DA:48,1
DA:49,1
DA:51,3
DA:52,5
DA:54,1
DA:57,8
DA:59,8
DA:60,8
DA:63,8
DA:64,8
DA:66,8
DA:68,1
DA:69,1
DA:71,3
DA:72,1
DA:73,2
DA:75,3
DA:76,1
DA:77,2
DA:79,8
LF:30
LH:29
end_of_record
TN:
SF:/home/runner/work/neml2/neml2/src/neml2/models/solid_mechanics/PowerLawKinematicHardeningStaticRecovery.cxx
FN:34,51,_ZN5neml240PowerLawKinematicHardeningStaticRecovery16expected_optionsEv
FN:53,59,_ZN5neml240PowerLawKinematicHardeningStaticRecoveryC2ERKNS_9OptionSetE
FN:62,89,_ZN5neml240PowerLawKinematicHardeningStaticRecovery9set_valueEbbb
FNDA:6,_ZN5neml240PowerLawKinematicHardeningStaticRecovery16expected_optionsEv
FNDA:1,_ZN5neml240PowerLawKinematicHardeningStaticRecoveryC2ERKNS_9OptionSetE
FNDA:13,_ZN5neml240PowerLawKinematicHardeningStaticRecovery9set_valueEbbb
FNF:3
FNH:3
DA:34,6
DA:36,6
DA:37,6
DA:42,6
DA:44,12
DA:45,12
DA:47,12
DA:48,6
DA:50,6
DA:51,0
DA:53,1
DA:54,1
DA:56,3
DA:57,5
DA:59,1
DA:62,13
DA:64,13
DA:65,13
DA:69,13
DA:71,13
DA:72,13
DA:74,13
DA:76,1
DA:78,1
DA:79,1
DA:80,2
DA:82,3
DA:83,1
DA:85,3
DA:86,1
DA:87,2
DA:88,1
DA:89,13
LF:33
LH:32
end_of_record
TN:
SF:/home/runner/work/neml2/neml2/src/neml2/models/solid_mechanics/RateIndependentPlasticFlowConstraint.cxx
FN:33,47,_ZN5neml236RateIndependentPlasticFlowConstraint16expected_optionsEv
FN:49,56,_ZN5neml236RateIndependentPlasticFlowConstraintC2ERKNS_9OptionSetE
FN:59,79,_ZN5neml236RateIndependentPlasticFlowConstraint9set_valueEbbb
FNDA:6,_ZN5neml236RateIndependentPlasticFlowConstraint16expected_optionsEv
FNDA:1,_ZN5neml236RateIndependentPlasticFlowConstraintC2ERKNS_9OptionSetE
FNDA:6,_ZN5neml236RateIndependentPlasticFlowConstraint9set_valueEbbb
FNF:3
FNH:3
DA:33,6
DA:35,6
DA:36,6
DA:38,6
DA:40,18
DA:41,6
DA:43,18
DA:44,6
DA:46,6
DA:47,0
DA:49,1
DA:50,1
DA:52,1
DA:53,1
DA:54,2
DA:56,1
DA:59,6
DA:61,6
DA:63,6
DA:65,6
DA:66,5
DA:68,6
DA:70,1
DA:72,1
DA:73,1
DA:74,2
DA:76,1
DA:77,1
DA:78,1
DA:79,6
LF:30
LH:29
end_of_record
TN:
SF:/home/runner/work/neml2/neml2/src/neml2/models/solid_mechanics/SlopeSaturationVoceIsotropicHardening.cxx
FN:33,58,_ZN5neml237SlopeSaturationVoceIsotropicHardening16expected_optionsEv
FN:60,71,_ZN5neml237SlopeSaturationVoceIsotropicHardeningC2ERKNS_9OptionSetE
FN:74,97,_ZN5neml237SlopeSaturationVoceIsotropicHardening9set_valueEbbb
FNDA:6,_ZN5neml237SlopeSaturationVoceIsotropicHardening16expected_optionsEv
FNDA:2,_ZN5neml237SlopeSaturationVoceIsotropicHardeningC2ERKNS_9OptionSetE
FNDA:16,_ZN5neml237SlopeSaturationVoceIsotropicHardening9set_valueEbbb
FNF:3
FNH:3
DA:33,6
DA:35,6
DA:36,6
DA:43,6
DA:45,18
DA:46,12
DA:48,12
DA:49,18
DA:50,6
DA:52,12
DA:53,12
DA:54,12
DA:55,6
DA:57,6
DA:58,0
DA:60,2
DA:61,2
DA:63,2
DA:64,4
DA:65,2
DA:66,8
DA:68,8
DA:69,10
DA:71,2
DA:74,16
DA:76,16
DA:77,16
DA:80,16
DA:81,15
DA:83,16
DA:85,2
DA:86,2
DA:88,2
DA:89,2
DA:91,6
DA:92,1
DA:94,6
DA:95,1
DA:97,16
LF:39
LH:38
end_of_record
TN:
SF:/home/runner/work/neml2/neml2/src/neml2/models/solid_mechanics/ThermalEigenstrain.cxx
FN:32,51,_ZN5neml218ThermalEigenstrain16expected_optionsEv
FN:53,59,_ZN5neml218ThermalEigenstrainC2ERKNS_9OptionSetE
FN:62,85,_ZN5neml218ThermalEigenstrain9set_valueEbbb
FNDA:6,_ZN5neml218ThermalEigenstrain16expected_optionsEv
FNDA:2,_ZN5neml218ThermalEigenstrainC2ERKNS_9OptionSetE
FNDA:10,_ZN5neml218ThermalEigenstrain9set_valueEbbb
FNF:3
FNH:3
DA:32,6
DA:34,6
DA:35,6
DA:39,6
DA:41,18
DA:42,12
DA:44,12
DA:45,12
DA:47,12
DA:48,6
DA:50,6
DA:51,0
DA:53,2
DA:55,2
DA:56,8
DA:57,10
DA:59,2
DA:62,10
DA:64,10
DA:65,9
DA:67,10
DA:69,2
DA:70,2
DA:72,6
DA:73,1
DA:76,10
DA:78,0
DA:79,0
DA:81,0
DA:82,0
DA:85,10
LF:31
LH:26
end_of_record
TN:
SF:/home/runner/work/neml2/neml2/src/neml2/models/solid_mechanics/TwoStageThermalAnnealing.cxx
FN:35,73,_ZN5neml224TwoStageThermalAnnealingINS_3SR2EE16expected_optionsEv
FN:35,73,_ZN5neml224TwoStageThermalAnnealingINS_6ScalarEE16expected_optionsEv
FN:76,86,_ZN5neml224TwoStageThermalAnnealingINS_3SR2EEC2ERKNS_9OptionSetE
FN:76,86,_ZN5neml224TwoStageThermalAnnealingINS_6ScalarEEC2ERKNS_9OptionSetE
FN:90,113,_ZN5neml224TwoStageThermalAnnealingINS_3SR2EE9set_valueEbbb
FN:90,113,_ZN5neml224TwoStageThermalAnnealingINS_6ScalarEE9set_valueEbbb
FNDA:6,_ZN5neml224TwoStageThermalAnnealingINS_3SR2EE16expected_optionsEv
FNDA:6,_ZN5neml224TwoStageThermalAnnealingINS_6ScalarEE16expected_optionsEv
FNDA:1,_ZN5neml224TwoStageThermalAnnealingINS_3SR2EEC2ERKNS_9OptionSetE
FNDA:1,_ZN5neml224TwoStageThermalAnnealingINS_6ScalarEEC2ERKNS_9OptionSetE
FNDA:18,_ZN5neml224TwoStageThermalAnnealingINS_3SR2EE9set_valueEbbb
FNDA:8,_ZN5neml224TwoStageThermalAnnealingINS_6ScalarEE9set_valueEbbb
FNF:6
FNH:6
DA:35,12
DA:39,12
DA:41,12
DA:42,12
DA:51,24
DA:52,24
DA:54,24
DA:55,24
DA:57,24
DA:58,12
DA:60,36
DA:61,24
DA:63,24
DA:64,24
DA:66,24
DA:67,24
DA:69,24
DA:70,12
DA:72,24
DA:73,12
DA:76,2
DA:78,2
DA:79,2
DA:80,2
DA:81,2
DA:82,8
DA:83,8
DA:84,10
DA:86,2
DA:90,26
DA:92,26
DA:95,26
DA:96,26
DA:97,26
DA:98,26
DA:100,26
DA:101,24
DA:103,26
DA:105,2
DA:107,2
DA:108,2
DA:110,2
DA:111,2
DA:112,2
DA:113,26
LF:45
LH:45
end_of_record
TN:
SF:/home/runner/work/neml2/neml2/src/neml2/models/solid_mechanics/VoceIsotropicHardening.cxx
FN:33,46,_ZN5neml222VoceIsotropicHardening16expected_optionsEv
FN:48,53,_ZN5neml222VoceIsotropicHardeningC2ERKNS_9OptionSetE
FN:56,76,_ZN5neml222VoceIsotropicHardening9set_valueEbbb
FNDA:6,_ZN5neml222VoceIsotropicHardening16expected_optionsEv
FNDA:3,_ZN5neml222VoceIsotropicHardeningC2ERKNS_9OptionSetE
FNDA:186,_ZN5neml222VoceIsotropicHardening9set_valueEbbb
FNF:3
FNH:3
DA:33,6
DA:35,6
DA:36,6
DA:38,6
DA:40,12
DA:41,12
DA:42,12
DA:43,6
DA:45,6
DA:46,0
DA:48,3
DA:50,9
DA:51,15
DA:53,3
DA:56,186
DA:58,186
DA:59,182
DA:61,186
DA:63,85
DA:64,85
DA:66,255
DA:67,1
DA:69,255
DA:70,1
DA:73,186
DA:74,1
DA:75,1
DA:76,186
LF:28
LH:27
end_of_record
TN:
SF:/home/runner/work/neml2/neml2/src/neml2/models/solid_mechanics/YieldFunction.cxx
FN:32,53,_ZN5neml213YieldFunction16expected_optionsEv
FN:55,64,_ZN5neml213YieldFunctionC2ERKNS_9OptionSetE
FN:67,95,_ZN5neml213YieldFunction9set_valueEbbb
FNDA:6,_ZN5neml213YieldFunction16expected_optionsEv
FNDA:13,_ZN5neml213YieldFunctionC2ERKNS_9OptionSetE
FNDA:927,_ZN5neml213YieldFunction9set_valueEbbb
FNF:3
FNH:3
DA:32,6
DA:34,6
DA:35,6
DA:38,6
DA:40,12
DA:41,6
DA:43,18
DA:44,12
DA:46,12
DA:47,6
DA:49,18
DA:50,6
DA:52,6
DA:53,0
DA:55,13
DA:57,13
DA:58,13
DA:59,13
DA:60,13
DA:61,13
DA:62,65
DA:64,13
DA:67,927
DA:69,927
DA:71,927
DA:72,489
DA:74,438
DA:77,927
DA:79,679
DA:81,679
DA:82,679
DA:84,679
DA:85,372
DA:87,2037
DA:88,40
DA:89,679
DA:95,927
LF:37
LH:36
end_of_record
TN:
SF:/home/runner/work/neml2/neml2/src/neml2/models/solid_mechanics/crystal_plasticity/CrystalMean.cxx
FN:37,54,_ZN5neml211CrystalMeanINS_3SR2EE16expected_optionsEv
FN:57,64,_ZN5neml211CrystalMeanINS_3SR2EEC2ERKNS_9OptionSetE
FN:68,81,_ZN5neml211CrystalMeanINS_3SR2EE9set_valueEbbb
FNDA:6,_ZN5neml211CrystalMeanINS_3SR2EE16expected_optionsEv
FNDA:1,_ZN5neml211CrystalMeanINS_3SR2EEC2ERKNS_9OptionSetE
FNDA:75,_ZN5neml211CrystalMeanINS_3SR2EE9set_valueEbbb
FNF:3
FNH:3
DA:37,6
DA:39,6
DA:41,6
DA:43,12
DA:44,12
DA:46,12
DA:47,12
DA:49,12
DA:50,6
DA:53,6
DA:54,0
DA:57,1
DA:59,3
DA:60,1
DA:61,1
DA:62,2
DA:64,1
DA:68,75
DA:70,75
DA:71,74
DA:73,75
DA:74,1
DA:76,3
DA:78,2
DA:79,1
DA:80,1
DA:81,75
LF:27
LH:26
end_of_record
TN:
SF:/home/runner/work/neml2/neml2/src/neml2/models/solid_mechanics/crystal_plasticity/ElasticStrainRate.cxx
FN:35,62,_ZN5neml217ElasticStrainRate16expected_optionsEv
FN:64,72,_ZN5neml217ElasticStrainRateC2ERKNS_9OptionSetE
FN:75,98,_ZN5neml217ElasticStrainRate9set_valueEbbb
FNDA:6,_ZN5neml217ElasticStrainRate16expected_optionsEv
FNDA:2,_ZN5neml217ElasticStrainRateC2ERKNS_9OptionSetE
FNDA:316,_ZN5neml217ElasticStrainRate9set_valueEbbb
FNF:3
FNH:3
DA:35,6
DA:37,6
DA:39,6
DA:43,6
DA:45,18
DA:46,6
DA:48,18
DA:49,6
DA:51,18
DA:52,6
DA:54,18
DA:55,6
DA:57,12
DA:58,18
DA:59,6
DA:61,6
DA:62,0
DA:64,2
DA:66,2
DA:67,2
DA:68,2
DA:69,2
DA:70,4
DA:72,2
DA:75,316
DA:77,316
DA:79,316
DA:80,315
DA:82,316
DA:84,63
DA:86,63
DA:87,63
DA:89,63
DA:90,1
DA:92,63
DA:93,1
DA:95,63
DA:96,63
DA:97,63
DA:98,316
LF:40
LH:39
end_of_record
TN:
SF:/home/runner/work/neml2/neml2/src/neml2/models/solid_mechanics/crystal_plasticity/FixOrientation.cxx
FN:35,55,_ZN5neml214FixOrientation16expected_optionsEv
FN:57,63,_ZN5neml214FixOrientationC2ERKNS_9OptionSetE
FN:66,83,_ZN5neml214FixOrientation9set_valueEbbb
FNDA:6,_ZN5neml214FixOrientation16expected_optionsEv
FNDA:1,_ZN5neml214FixOrientationC2ERKNS_9OptionSetE
FNDA:6,_ZN5neml214FixOrientation9set_valueEbbb
FNF:3
FNH:3
DA:35,6
DA:37,6
DA:39,6
DA:43,6
DA:45,18
DA:46,6
DA:48,18
DA:49,12
DA:51,12
DA:52,6
DA:54,6
DA:55,0
DA:57,1
DA:59,1
DA:60,1
DA:61,2
DA:63,1
DA:66,6
DA:68,6
DA:70,6
DA:71,10
DA:72,15
DA:74,6
DA:75,1
DA:77,1
DA:78,1
DA:79,2
DA:81,2
DA:82,1
DA:83,6
LF:30
LH:29
end_of_record
TN:
SF:/home/runner/work/neml2/neml2/src/neml2/models/solid_mechanics/crystal_plasticity/LinearSingleSlipHardeningRule.cxx
FN:32,44,_ZN5neml229LinearSingleSlipHardeningRule16expected_optionsEv
FN:46,50,_ZN5neml229LinearSingleSlipHardeningRuleC2ERKNS_9OptionSetE
FN:53,63,_ZN5neml229LinearSingleSlipHardeningRule9set_valueEbbb
FNDA:6,_ZN5neml229LinearSingleSlipHardeningRule16expected_optionsEv
FNDA:1,_ZN5neml229LinearSingleSlipHardeningRuleC2ERKNS_9OptionSetE
FNDA:6,_ZN5neml229LinearSingleSlipHardeningRule9set_valueEbbb
FNF:3
FNH:3
DA:32,6
DA:34,6
DA:36,6
DA:38,6
DA:40,12
DA:41,6
DA:43,6
DA:44,0
DA:46,1
DA:48,4
DA:50,1
DA:53,6
DA:55,6
DA:57,6
DA:58,5
DA:60,6
DA:61,1
DA:62,1
DA:63,6
LF:19
LH:18
end_of_record
TN:
SF:/home/runner/work/neml2/neml2/src/neml2/models/solid_mechanics/crystal_plasticity/OrientationRate.cxx
FN:35,62,_ZN5neml215OrientationRate16expected_optionsEv
FN:64,72,_ZN5neml215OrientationRateC2ERKNS_9OptionSetE
FN:75,98,_ZN5neml215OrientationRate9set_valueEbbb
FNDA:6,_ZN5neml215OrientationRate16expected_optionsEv
FNDA:2,_ZN5neml215OrientationRateC2ERKNS_9OptionSetE
FNDA:313,_ZN5neml215OrientationRate9set_valueEbbb
FNF:3
FNH:3
DA:35,6
DA:37,6
DA:39,6
DA:44,6
DA:46,18
DA:47,6
DA:49,18
DA:50,6
DA:52,18
DA:53,6
DA:55,12
DA:56,18
DA:57,6
DA:59,18
DA:60,6
DA:61,6
DA:62,0
DA:64,2
DA:66,2
DA:67,2
DA:68,2
DA:69,2
DA:70,4
DA:72,2
DA:75,313
DA:77,313
DA:79,313
DA:80,312
DA:82,313
DA:84,63
DA:86,63
DA:87,63
DA:89,63
DA:90,1
DA:92,63
DA:93,63
DA:95,63
DA:96,63
DA:97,63
DA:98,313
LF:40
LH:39
end_of_record
TN:
SF:/home/runner/work/neml2/neml2/src/neml2/models/solid_mechanics/crystal_plasticity/PlasticDeformationRate.cxx
FN:37,62,_ZN5neml222PlasticDeformationRate16expected_optionsEv
FN:64,72,_ZN5neml222PlasticDeformationRateC2ERKNS_9OptionSetE
FN:75,95,_ZN5neml222PlasticDeformationRate9set_valueEbbb
FNDA:6,_ZN5neml222PlasticDeformationRate16expected_optionsEv
FNDA:2,_ZN5neml222PlasticDeformationRateC2ERKNS_9OptionSetE
FNDA:308,_ZN5neml222PlasticDeformationRate9set_valueEbbb
FNF:3
FNH:3
DA:37,6
DA:39,6
DA:41,6
DA:45,6
DA:47,12
DA:48,18
DA:49,6
DA:51,18
DA:52,6
DA:54,18
DA:55,12
DA:57,12
DA:58,12
DA:59,6
DA:61,6
DA:62,0
DA:64,2
DA:66,6
DA:67,2
DA:68,2
DA:69,2
DA:70,4
DA:72,2
DA:75,308
DA:77,308
DA:79,308
DA:81,308
DA:82,308
DA:84,308
DA:86,63
DA:88,63
DA:89,63
DA:90,63
DA:92,63
DA:93,63
DA:95,308
LF:36
LH:35
end_of_record
TN:
SF:/home/runner/work/neml2/neml2/src/neml2/models/solid_mechanics/crystal_plasticity/PlasticVorticity.cxx
FN:37,61,_ZN5neml216PlasticVorticity16expected_optionsEv
FN:63,71,_ZN5neml216PlasticVorticityC2ERKNS_9OptionSetE
FN:74,95,_ZN5neml216PlasticVorticity9set_valueEbbb
FNDA:6,_ZN5neml216PlasticVorticity16expected_optionsEv
FNDA:2,_ZN5neml216PlasticVorticityC2ERKNS_9OptionSetE
FNDA:308,_ZN5neml216PlasticVorticity9set_valueEbbb
FNF:3
FNH:3
DA:37,6
DA:39,6
DA:41,6
DA:45,6
DA:47,18
DA:48,6
DA:50,18
DA:51,6
DA:53,18
DA:54,12
DA:56,12
DA:57,12
DA:58,6
DA:60,6
DA:61,0
DA:63,2
DA:65,6
DA:66,2
DA:67,2
DA:68,2
DA:69,4
DA:71,2
DA:74,308
DA:76,308
DA:78,308
DA:80,308
DA:81,308
DA:83,308
DA:85,63
DA:87,63
DA:88,63
DA:89,63
DA:90,63
DA:92,63
DA:93,63
DA:95,308
LF:36
LH:35
end_of_record
TN:
SF:/home/runner/work/neml2/neml2/src/neml2/models/solid_mechanics/crystal_plasticity/PowerLawSlipRule.cxx
FN:34,51,_ZN5neml216PowerLawSlipRule16expected_optionsEv
FN:53,58,_ZN5neml216PowerLawSlipRuleC2ERKNS_9OptionSetE
FN:61,83,_ZN5neml216PowerLawSlipRule9set_valueEbbb
FNDA:6,_ZN5neml216PowerLawSlipRule16expected_optionsEv
FNDA:2,_ZN5neml216PowerLawSlipRuleC2ERKNS_9OptionSetE
FNDA:317,_ZN5neml216PowerLawSlipRule9set_valueEbbb
FNF:3
FNH:3
DA:34,6
DA:36,6
DA:37,6
DA:42,6
DA:44,12
DA:45,12
DA:47,12
DA:48,6
DA:50,6
DA:51,0
DA:53,2
DA:55,6
DA:56,10
DA:58,2
DA:61,317
DA:63,317
DA:65,317
DA:67,317
DA:68,316
DA:70,317
DA:72,63
DA:73,63
DA:74,126
DA:77,63
DA:78,189
DA:79,252
DA:80,126
DA:83,317
LF:28
LH:27
end_of_record
TN:
SF:/home/runner/work/neml2/neml2/src/neml2/models/solid_mechanics/crystal_plasticity/ResolvedShear.cxx
FN:36,59,_ZN5neml213ResolvedShear16expected_optionsEv
FN:61,69,_ZN5neml213ResolvedShearC2ERKNS_9OptionSetE
FN:72,93,_ZN5neml213ResolvedShear9set_valueEbbb
FNDA:6,_ZN5neml213ResolvedShear16expected_optionsEv
FNDA:2,_ZN5neml213ResolvedShearC2ERKNS_9OptionSetE
FNDA:302,_ZN5neml213ResolvedShear9set_valueEbbb
FNF:3
FNH:3
DA:36,6
DA:38,6
DA:40,6
DA:44,6
DA:46,18
DA:47,6
DA:49,18
DA:50,6
DA:52,18
DA:53,12
DA:55,12
DA:56,12
DA:57,6
DA:58,6
DA:59,0
DA:61,2
DA:63,6
DA:64,2
DA:65,2
DA:66,2
DA:67,4
DA:69,2
DA:72,302
DA:74,302
DA:76,302
DA:79,302
DA:80,302
DA:82,302
DA:83,302
DA:85,302
DA:87,63
DA:88,63
DA:90,63
DA:91,315
DA:93,428
LF:35
LH:34
end_of_record
TN:
SF:/home/runner/work/neml2/neml2/src/neml2/models/solid_mechanics/crystal_plasticity/SingleSlipHardeningRule.cxx
FN:33,52,_ZN5neml223SingleSlipHardeningRule16expected_optionsEv
FN:54,60,_ZN5neml223SingleSlipHardeningRuleC2ERKNS_9OptionSetE
FNDA:12,_ZN5neml223SingleSlipHardeningRule16expected_optionsEv
FNDA:3,_ZN5neml223SingleSlipHardeningRuleC2ERKNS_9OptionSetE
FNF:2
FNH:2
DA:33,12
DA:35,12
DA:37,12
DA:38,12
DA:40,24
DA:41,36
DA:42,24
DA:43,12
DA:45,36
DA:46,12
DA:48,36
DA:49,12
DA:51,12
DA:52,0
DA:54,3
DA:56,3
DA:57,3
DA:58,6
DA:60,3
LF:19
LH:18
end_of_record
TN:
SF:/home/runner/work/neml2/neml2/src/neml2/models/solid_mechanics/crystal_plasticity/SingleSlipStrengthMap.cxx
FN:32,49,_ZN5neml221SingleSlipStrengthMap16expected_optionsEv
FN:51,56,_ZN5neml221SingleSlipStrengthMapC2ERKNS_9OptionSetE
FN:59,69,_ZN5neml221SingleSlipStrengthMap9set_valueEbbb
FNDA:6,_ZN5neml221SingleSlipStrengthMap16expected_optionsEv
FNDA:2,_ZN5neml221SingleSlipStrengthMapC2ERKNS_9OptionSetE
FNDA:293,_ZN5neml221SingleSlipStrengthMap9set_valueEbbb
FNF:3
FNH:3
DA:32,6
DA:34,6
DA:36,6
DA:40,6
DA:42,18
DA:43,12
DA:45,12
DA:46,6
DA:48,6
DA:49,0
DA:51,2
DA:53,2
DA:54,10
DA:56,2
DA:59,293
DA:61,293
DA:63,293
DA:64,292
DA:66,293
DA:67,63
DA:68,63
DA:69,293
LF:22
LH:21
end_of_record
TN:
SF:/home/runner/work/neml2/neml2/src/neml2/models/solid_mechanics/crystal_plasticity/SlipRule.cxx
FN:34,55,_ZN5neml28SlipRule16expected_optionsEv
FN:57,65,_ZN5neml28SlipRuleC2ERKNS_9OptionSetE
FNDA:6,_ZN5neml28SlipRule16expected_optionsEv
FNDA:2,_ZN5neml28SlipRuleC2ERKNS_9OptionSetE
FNF:2
FNH:2
DA:34,6
DA:36,6
DA:38,6
DA:39,6
DA:41,18
DA:42,6
DA:44,18
DA:45,6
DA:47,18
DA:48,12
DA:50,12
DA:51,12
DA:52,6
DA:54,6
DA:55,0
DA:57,2
DA:59,6
DA:60,2
DA:61,2
DA:62,2
DA:63,4
DA:65,2
LF:22
LH:21
end_of_record
TN:
SF:/home/runner/work/neml2/neml2/src/neml2/models/solid_mechanics/crystal_plasticity/SlipStrengthMap.cxx
FN:34,47,_ZN5neml215SlipStrengthMap16expected_optionsEv
FN:49,55,_ZN5neml215SlipStrengthMapC2ERKNS_9OptionSetE
FNDA:6,_ZN5neml215SlipStrengthMap16expected_optionsEv
FNDA:2,_ZN5neml215SlipStrengthMapC2ERKNS_9OptionSetE
FNF:2
FNH:2
DA:34,6
DA:36,6
DA:37,6
DA:39,18
DA:40,12
DA:42,12
DA:43,12
DA:44,6
DA:46,6
DA:47,0
DA:49,2
DA:51,6
DA:52,2
DA:53,4
DA:55,2
LF:15
LH:14
end_of_record
TN:
SF:/home/runner/work/neml2/neml2/src/neml2/models/solid_mechanics/crystal_plasticity/SumSlipRates.cxx
FN:38,55,_ZN5neml212SumSlipRates16expected_optionsEv
FN:57,64,_ZN5neml212SumSlipRatesC2ERKNS_9OptionSetE
FN:67,75,_ZN5neml212SumSlipRates9set_valueEbbb
FNDA:6,_ZN5neml212SumSlipRates16expected_optionsEv
FNDA:2,_ZN5neml212SumSlipRatesC2ERKNS_9OptionSetE
FNDA:304,_ZN5neml212SumSlipRates9set_valueEbbb
FNF:3
FNH:3
DA:38,6
DA:40,6
DA:41,6
DA:42,6
DA:44,18
DA:45,6
DA:47,18
DA:48,12
DA:50,12
DA:51,12
DA:52,6
DA:54,6
DA:55,0
DA:57,2
DA:59,6
DA:60,2
DA:61,2
DA:62,4
DA:64,2
DA:67,304
DA:69,304
DA:70,303
DA:72,304
DA:73,63
DA:74,63
DA:75,304
LF:26
LH:25
end_of_record
TN:
SF:/home/runner/work/neml2/neml2/src/neml2/models/solid_mechanics/crystal_plasticity/VoceSingleSlipHardeningRule.cxx
FN:32,48,_ZN5neml227VoceSingleSlipHardeningRule16expected_optionsEv
FN:50,55,_ZN5neml227VoceSingleSlipHardeningRuleC2ERKNS_9OptionSetE
FN:58,73,_ZN5neml227VoceSingleSlipHardeningRule9set_valueEbbb
FNDA:6,_ZN5neml227VoceSingleSlipHardeningRule16expected_optionsEv
FNDA:2,_ZN5neml227VoceSingleSlipHardeningRuleC2ERKNS_9OptionSetE
FNDA:295,_ZN5neml227VoceSingleSlipHardeningRule9set_valueEbbb
FNF:3
FNH:3
DA:32,6
DA:34,6
DA:35,6
DA:40,6
DA:42,12
DA:43,12
DA:44,12
DA:45,12
DA:46,6
DA:47,6
DA:48,0
DA:50,2
DA:52,6
DA:53,10
DA:55,2
DA:58,295
DA:60,295
DA:62,295
DA:63,294
DA:65,295
DA:67,63
DA:68,63
DA:70,63
DA:71,63
DA:73,295
LF:25
LH:24
end_of_record
TN:
SF:/home/runner/work/neml2/neml2/src/neml2/solvers/Newton.cxx
FN:110,116,_ZN5neml26Newton6updateERNS_15NonlinearSystemERNS1_3SOLILb1EEERKNS1_3RESILb1EEERKNS1_3JACILb1EEE
FN:119,125,_ZN5neml26Newton12final_updateERNS_15NonlinearSystemERNS1_3SOLILb1EEERKNS1_3RESILb1EEERKNS1_3JACILb1EEE
FN:128,134,_ZN5neml26Newton15solve_directionERKNS_15NonlinearSystem3RESILb1EEERKNS1_3JACILb1EEE
FN:34,40,_ZN5neml26Newton16expected_optionsEv
FN:42,45,_ZN5neml26NewtonC2ERKNS_9OptionSetE
FN:48,94,_ZN5neml26Newton5solveERNS_15NonlinearSystemERKNS1_3SOLILb0EEE
FN:97,107,_ZNK5neml26Newton9convergedEmRKN2at6TensorES4_
FNDA:1031,_ZN5neml26Newton6updateERNS_15NonlinearSystemERNS1_3SOLILb1EEERKNS1_3RESILb1EEERKNS1_3JACILb1EEE
FNDA:0,_ZN5neml26Newton12final_updateERNS_15NonlinearSystemERNS1_3SOLILb1EEERKNS1_3RESILb1EEERKNS1_3JACILb1EEE
FNDA:1128,_ZN5neml26Newton15solve_directionERKNS_15NonlinearSystem3RESILb1EEERKNS1_3JACILb1EEE
FNDA:30,_ZN5neml26Newton16expected_optionsEv
FNDA:20,_ZN5neml26NewtonC2ERKNS_9OptionSetE
FNDA:179,_ZN5neml26Newton5solveERNS_15NonlinearSystemERKNS1_3SOLILb0EEE
FNDA:1307,_ZNK5neml26Newton9convergedEmRKN2at6TensorES4_
FNF:7
FNH:6
DA:34,30
DA:36,30
DA:37,30
DA:39,30
DA:40,0
DA:42,20
DA:43,20
DA:45,20
DA:48,179
DA:51,179
DA:54,179
DA:55,179
DA:56,179
DA:59,179
DA:62,0
DA:63,0
DA:65,0
DA:69,179
DA:75,1129
DA:77,1128
DA:78,1128
DA:79,1128
DA:80,1128
DA:83,1128
DA:86,178
DA:87,0
DA:89,178
DA:91,1128
DA:93,1
DA:94,357
DA:97,1307
DA:106,1307
DA:110,1031
DA:115,1031
DA:116,1031
DA:119,0
DA:124,0
DA:125,0
DA:128,1128
DA:130,1128
DA:131,51
DA:133,1077
LF:42
LH:34
end_of_record
TN:
SF:/home/runner/work/neml2/neml2/src/neml2/solvers/NewtonWithLineSearch.cxx
FN:34,53,_ZN5neml220NewtonWithLineSearch16expected_optionsEv
FN:55,61,_ZN5neml220NewtonWithLineSearchC2ERKNS_9OptionSetE
FN:64,72,_ZN5neml220NewtonWithLineSearch6updateERNS_15NonlinearSystemERNS1_3SOLILb1EEERKNS1_3RESILb1EEERKNS1_3JACILb1EEE
FN:75,105,_ZNK5neml220NewtonWithLineSearch10linesearchERNS_15NonlinearSystemERKNS1_3SOLILb1EEES6_RKNS1_3RESILb1EEE
FNDA:9,_ZN5neml220NewtonWithLineSearch16expected_optionsEv
FNDA:4,_ZN5neml220NewtonWithLineSearchC2ERKNS_9OptionSetE
FNDA:79,_ZN5neml220NewtonWithLineSearch6updateERNS_15NonlinearSystemERNS1_3SOLILb1EEERKNS1_3RESILb1EEERKNS1_3JACILb1EEE
FNDA:79,_ZNK5neml220NewtonWithLineSearch10linesearchERNS_15NonlinearSystemERKNS1_3SOLILb1EEES6_RKNS1_3RESILb1EEE
FNF:4
FNH:4
DA:34,9
DA:36,9
DA:37,9
DA:39,18
DA:40,27
DA:42,9
DA:44,18
DA:45,27
DA:46,9
DA:48,18
DA:49,18
DA:50,9
DA:52,9
DA:53,0
DA:55,4
DA:57,8
DA:58,8
DA:59,8
DA:61,4
DA:64,79
DA:69,79
DA:70,79
DA:71,79
DA:72,79
DA:75,79
DA:80,79
DA:81,79
DA:83,192
DA:85,173
DA:86,173
DA:87,173
DA:88,173
DA:89,173
DA:90,0
DA:91,0
DA:92,0
DA:93,0
DA:95,173
DA:97,173
DA:98,60
DA:100,226
DA:101,339
DA:102,413
DA:104,158
DA:105,305
LF:45
LH:40
end_of_record
TN:
SF:/home/runner/work/neml2/neml2/src/neml2/solvers/NewtonWithTrustRegion.cxx
FN:102,109,_ZNK5neml221NewtonWithTrustRegion25subproblem_solver_optionsERKNS_9OptionSetE
FN:112,116,_ZN5neml221NewtonWithTrustRegion7prepareERKNS_15NonlinearSystemERKNS1_3SOLILb1EEE
FN:119,163,_ZN5neml221NewtonWithTrustRegion6updateERNS_15NonlinearSystemERNS1_3SOLILb1EEERKNS1_3RESILb1EEERKNS1_3JACILb1EEE
FN:166,194,_ZN5neml221NewtonWithTrustRegion15solve_directionERKNS_15NonlinearSystem3RESILb1EEERKNS1_3JACILb1EEE
FN:197,203,_ZNK5neml221NewtonWithTrustRegion24merit_function_reductionERKNS_15NonlinearSystem3RESILb1EEERKNS1_3JACILb1EEERKNS1_3SOLILb1EEE
FN:34,78,_ZN5neml221NewtonWithTrustRegion16expected_optionsEv
FN:80,92,_ZN5neml221NewtonWithTrustRegionC2ERKNS_9OptionSetE
FN:95,99,_ZNK5neml221NewtonWithTrustRegion18subproblem_optionsERKNS_9OptionSetE
FNDA:3,_ZNK5neml221NewtonWithTrustRegion25subproblem_solver_optionsERKNS_9OptionSetE
FNDA:3,_ZN5neml221NewtonWithTrustRegion7prepareERKNS_15NonlinearSystemERKNS1_3SOLILb1EEE
FNDA:18,_ZN5neml221NewtonWithTrustRegion6updateERNS_15NonlinearSystemERNS1_3SOLILb1EEERKNS1_3RESILb1EEERKNS1_3JACILb1EEE
FNDA:18,_ZN5neml221NewtonWithTrustRegion15solve_directionERKNS_15NonlinearSystem3RESILb1EEERKNS1_3JACILb1EEE
FNDA:18,_ZNK5neml221NewtonWithTrustRegion24merit_function_reductionERKNS_15NonlinearSystem3RESILb1EEERKNS1_3JACILb1EEERKNS1_3SOLILb1EEE
FNDA:9,_ZN5neml221NewtonWithTrustRegion16expected_optionsEv
FNDA:3,_ZN5neml221NewtonWithTrustRegionC2ERKNS_9OptionSetE
FNDA:3,_ZNK5neml221NewtonWithTrustRegion18subproblem_optionsERKNS_9OptionSetE
FNF:8
FNH:8
DA:34,9
DA:36,9
DA:37,9
DA:41,9
DA:43,18
DA:44,18
DA:46,18
DA:47,18
DA:49,18
DA:50,27
DA:51,9
DA:53,18
DA:54,27
DA:55,9
DA:57,18
DA:58,18
DA:60,18
DA:61,18
DA:63,18
DA:64,27
DA:65,9
DA:67,18
DA:68,18
DA:70,18
DA:71,18
DA:73,18
DA:74,18
DA:75,9
DA:77,9
DA:78,0
DA:80,3
DA:82,3
DA:83,3
DA:84,6
DA:85,6
DA:86,6
DA:87,6
DA:88,9
DA:89,6
DA:90,9
DA:92,3
DA:95,3
DA:98,3
DA:102,3
DA:104,3
DA:105,12
DA:106,12
DA:107,9
DA:108,3
DA:109,0
DA:112,3
DA:115,3
DA:116,3
DA:119,18
DA:124,18
DA:127,18
DA:128,18
DA:131,18
DA:132,18
DA:133,18
DA:134,18
DA:137,18
DA:140,54
DA:141,72
DA:142,36
DA:143,36
DA:144,72
DA:145,90
DA:148,18
DA:151,18
DA:153,0
DA:154,0
DA:155,0
DA:156,0
DA:157,0
DA:158,0
DA:159,0
DA:162,18
DA:163,162
DA:166,18
DA:170,18
DA:173,18
DA:175,18
DA:178,18
DA:180,0
DA:181,0
DA:182,0
DA:185,18
DA:186,18
DA:190,18
DA:193,36
DA:194,18
DA:197,18
DA:201,18
DA:202,36
DA:203,18
LF:96
LH:84
end_of_record
TN:
SF:/home/runner/work/neml2/neml2/src/neml2/solvers/NonlinearSolver.cxx
FN:30,45,_ZN5neml215NonlinearSolver16expected_optionsEv
FN:47,53,_ZN5neml215NonlinearSolverC2ERKNS_9OptionSetE
FNDA:30,_ZN5neml215NonlinearSolver16expected_optionsEv
FNDA:20,_ZN5neml215NonlinearSolverC2ERKNS_9OptionSetE
FNF:2
FNH:2
DA:30,30
DA:32,30
DA:34,60
DA:35,60
DA:37,60
DA:38,60
DA:40,60
DA:41,60
DA:42,30
DA:44,30
DA:45,0
DA:47,20
DA:49,40
DA:50,40
DA:51,40
DA:53,20
LF:16
LH:15
end_of_record
TN:
SF:/home/runner/work/neml2/neml2/src/neml2/solvers/NonlinearSystem.cxx
FN:129,135,_ZNK5neml215NonlinearSystem39ensure_scaling_matrices_initialized_dbgEv
FN:138,145,_ZNK5neml215NonlinearSystem5scaleERKNS0_3RESILb0EEE
FN:148,155,_ZNK5neml215NonlinearSystem7unscaleERKNS0_3RESILb1EEE
FN:158,166,_ZNK5neml215NonlinearSystem5scaleERKNS0_3JACILb0EEE
FN:169,177,_ZNK5neml215NonlinearSystem7unscaleERKNS0_3JACILb1EEE
FN:180,187,_ZNK5neml215NonlinearSystem5scaleERKNS0_3SOLILb0EEE
FN:190,197,_ZNK5neml215NonlinearSystem7unscaleERKNS0_3SOLILb1EEE
FN:200,203,_ZN5neml215NonlinearSystem9set_guessERKNS0_3SOLILb1EEE
FN:31,51,_ZN5neml215NonlinearSystem16expected_optionsEv
FN:54,59,_ZN5neml215NonlinearSystem25disable_automatic_scalingERNS_9OptionSetE
FN:62,67,_ZN5neml215NonlinearSystem24enable_automatic_scalingERNS_9OptionSetE
FN:69,75,_ZN5neml215NonlinearSystemC2ERKNS_9OptionSetE
FN:78,126,_ZN5neml215NonlinearSystem12init_scalingERKNS0_3SOLILb0EEEb
FNDA:98,_ZNK5neml215NonlinearSystem39ensure_scaling_matrices_initialized_dbgEv
FNDA:1498,_ZNK5neml215NonlinearSystem5scaleERKNS0_3RESILb0EEE
FNDA:0,_ZNK5neml215NonlinearSystem7unscaleERKNS0_3RESILb1EEE
FNDA:1129,_ZNK5neml215NonlinearSystem5scaleERKNS0_3JACILb0EEE
FNDA:0,_ZNK5neml215NonlinearSystem7unscaleERKNS0_3JACILb1EEE
FNDA:180,_ZNK5neml215NonlinearSystem5scaleERKNS0_3SOLILb0EEE
FNDA:1678,_ZNK5neml215NonlinearSystem7unscaleERKNS0_3SOLILb1EEE
FNDA:1499,_ZN5neml215NonlinearSystem9set_guessERKNS0_3SOLILb1EEE
FNDA:794,_ZN5neml215NonlinearSystem16expected_optionsEv
FNDA:781,_ZN5neml215NonlinearSystem25disable_automatic_scalingERNS_9OptionSetE
FNDA:30,_ZN5neml215NonlinearSystem24enable_automatic_scalingERNS_9OptionSetE
FNDA:359,_ZN5neml215NonlinearSystemC2ERKNS_9OptionSetE
FNDA:156,_ZN5neml215NonlinearSystem12init_scalingERKNS0_3SOLILb0EEEb
FNF:13
FNH:11
DA:31,794
DA:33,794
DA:35,1588
DA:36,2382
DA:38,794
DA:40,1588
DA:41,2382
DA:42,794
DA:44,1588
DA:45,1588
DA:48,794
DA:50,794
DA:51,0
DA:54,781
DA:56,1562
DA:57,1562
DA:58,781
DA:59,781
DA:62,30
DA:64,60
DA:65,60
DA:66,30
DA:67,30
DA:69,359
DA:70,718
DA:71,718
DA:72,359
DA:73,718
DA:75,359
DA:78,156
DA:80,156
DA:81,152
DA:83,4
DA:84,0
DA:87,4
DA:90,4
DA:91,4
DA:92,4
DA:94,4
DA:95,0
DA:96,0
DA:98,8
DA:101,8
DA:102,8
DA:103,8
DA:104,0
DA:105,0
DA:106,8
DA:107,4
DA:110,20
DA:112,32
DA:113,64
DA:114,32
DA:115,32
DA:116,32
DA:117,64
DA:118,16
DA:121,4
DA:123,4
DA:124,0
DA:125,0
DA:126,132
DA:129,98
DA:131,98
DA:132,98
DA:133,98
DA:135,98
DA:138,1498
DA:140,1498
DA:141,1463
DA:143,35
DA:144,35
DA:148,0
DA:150,0
DA:151,0
DA:153,0
DA:154,0
DA:158,1129
DA:160,1129
DA:161,1109
DA:163,20
DA:164,40
DA:165,60
DA:169,0
DA:171,0
DA:172,0
DA:174,0
DA:175,0
DA:176,0
DA:180,180
DA:182,180
DA:183,176
DA:185,4
DA:186,4
DA:190,1678
DA:192,1678
DA:193,1639
DA:195,39
DA:196,39
DA:200,1499
DA:202,1499
DA:203,1499
LF:102
LH:83
end_of_record
TN:
SF:/home/runner/work/neml2/neml2/src/neml2/solvers/Solver.cxx
FN:30,39,_ZN5neml26Solver16expected_optionsEv
FN:41,45,_ZN5neml26SolverC2ERKNS_9OptionSetE
FNDA:30,_ZN5neml26Solver16expected_optionsEv
FNDA:20,_ZN5neml26SolverC2ERKNS_9OptionSetE
FNF:2
FNH:2
DA:30,30
DA:32,30
DA:33,30
DA:35,60
DA:36,30
DA:38,30
DA:39,0
DA:41,20
DA:43,40
DA:45,20
LF:10
LH:9
end_of_record
TN:
SF:/home/runner/work/neml2/neml2/src/neml2/solvers/TrustRegionSubProblem.cxx
FN:30,33,_ZN5neml221TrustRegionSubProblemC2ERKNS_9OptionSetE
FN:36,43,_ZN5neml221TrustRegionSubProblem6reinitERKNS_15NonlinearSystem3RESILb1EEERKNS1_3JACILb1EEERKNS_6ScalarE
FN:46,49,_ZN5neml221TrustRegionSubProblem9set_guessERKNS_15NonlinearSystem3SOLILb0EEE
FN:52,64,_ZN5neml221TrustRegionSubProblem8assembleEPNS_15NonlinearSystem3RESILb0EEEPNS1_3JACILb0EEE
FN:67,70,_ZNK5neml221TrustRegionSubProblem20preconditioned_solveERKNS_6ScalarERKNS_6TensorE
FN:73,76,_ZNK5neml221TrustRegionSubProblem24preconditioned_directionERKNS_6ScalarE
FNDA:3,_ZN5neml221TrustRegionSubProblemC2ERKNS_9OptionSetE
FNDA:18,_ZN5neml221TrustRegionSubProblem6reinitERKNS_15NonlinearSystem3RESILb1EEERKNS1_3JACILb1EEERKNS_6ScalarE
FNDA:69,_ZN5neml221TrustRegionSubProblem9set_guessERKNS_15NonlinearSystem3SOLILb0EEE
FNDA:120,_ZN5neml221TrustRegionSubProblem8assembleEPNS_15NonlinearSystem3RESILb0EEEPNS1_3JACILb0EEE
FNDA:189,_ZNK5neml221TrustRegionSubProblem20preconditioned_solveERKNS_6ScalarERKNS_6TensorE
FNDA:138,_ZNK5neml221TrustRegionSubProblem24preconditioned_directionERKNS_6ScalarE
FNF:6
FNH:6
DA:30,3
DA:31,3
DA:33,3
DA:36,18
DA:40,18
DA:41,18
DA:42,18
DA:43,18
DA:46,69
DA:48,69
DA:49,69
DA:52,120
DA:55,120
DA:56,120
DA:58,120
DA:59,69
DA:61,120
DA:62,102
DA:63,153
DA:64,120
DA:67,189
DA:69,189
DA:73,138
DA:75,138
LF:24
LH:24
end_of_record
TN:
SF:/home/runner/work/neml2/neml2/src/neml2/tensors/Quaternion.cxx
FN:38,44,_ZN5neml210QuaternionC2ERKNS_3RotE
FN:47,55,_ZN5neml210Quaternion4fillERKdS2_S2_S2_RKN3c1013TensorOptionsE
FN:58,61,_ZN5neml210Quaternion4fillERKNS_6ScalarES3_S3_S3_
FN:64,67,_ZNK5neml210QuaternionclEl
FN:70,87,_ZNK5neml210Quaternion5to_R2Ev
FN:90,93,_ZNK5neml210Quaternion3dotERKS0_
FN:96,101,_ZNK5neml210Quaternion4distERKS0_
FNDA:0,_ZN5neml210QuaternionC2ERKNS_3RotE
FNDA:2,_ZN5neml210Quaternion4fillERKdS2_S2_S2_RKN3c1013TensorOptionsE
FNDA:2,_ZN5neml210Quaternion4fillERKNS_6ScalarES3_S3_S3_
FNDA:2820,_ZNK5neml210QuaternionclEl
FNDA:94,_ZNK5neml210Quaternion5to_R2Ev
FNDA:0,_ZNK5neml210Quaternion3dotERKS0_
FNDA:0,_ZNK5neml210Quaternion4distERKS0_
FNF:7
FNH:4
DA:38,0
DA:40,0
DA:41,0
DA:42,0
DA:44,0
DA:47,2
DA:54,2
DA:58,2
DA:60,14
DA:61,2
DA:64,2820
DA:66,5640
DA:67,2820
DA:70,94
DA:72,94
DA:74,94
DA:75,94
DA:76,94
DA:78,188
DA:79,188
DA:80,188
DA:81,188
DA:82,188
DA:83,188
DA:84,188
DA:85,188
DA:86,376
DA:87,94
DA:90,0
DA:92,0
DA:96,0
DA:98,0
DA:100,0
DA:101,0
LF:34
LH:23
end_of_record
TN:
SF:/home/runner/work/neml2/neml2/src/neml2/tensors/R2.cxx
FN:38,41,_ZN5neml22R2C2ERKNS_3SR2E
FN:43,46,_ZN5neml22R2C2ERKNS_3WR2E
FN:48,51,_ZN5neml22R2C2ERKNS_3RotE
FN:54,57,_ZN5neml22R212identity_mapERKN3c1013TensorOptionsE
FNDA:2022,_ZN5neml22R2C2ERKNS_3SR2E
FNDA:421,_ZN5neml22R2C2ERKNS_3WR2E
FNDA:7,_ZN5neml22R2C2ERKNS_3RotE
FNDA:0,_ZN5neml22R212identity_mapERKN3c1013TensorOptionsE
FNF:4
FNH:3
DA:38,2022
DA:39,2022
DA:41,2022
DA:43,421
DA:44,421
DA:46,421
DA:48,7
DA:49,7
DA:51,7
DA:54,0
DA:56,0
LF:11
LH:9
end_of_record
TN:
SF:/home/runner/work/neml2/neml2/src/neml2/tensors/R2Base.cxx
FN:115,135,_ZN5neml26R2BaseINS_2R2EE4fillERKdS4_S4_S4_S4_S4_S4_S4_S4_RKN3c1013TensorOptionsE
FN:139,154,_ZN5neml26R2BaseINS_2R2EE4fillERKNS_6ScalarES5_S5_S5_S5_S5_S5_S5_S5_
FN:158,166,_ZN5neml26R2BaseINS_2R2EE4skewERKNS_3VecE
FN:170,173,_ZN5neml26R2BaseINS_2R2EE8identityERKN3c1013TensorOptionsE
FN:177,180,_ZNK5neml26R2BaseINS_2R2EE6rotateERKNS_3RotE
FN:184,187,_ZNK5neml26R2BaseINS_2R2EE6rotateERKS1_
FN:191,199,_ZNK5neml26R2BaseINS_2R2EE7drotateERKNS_3RotE
FN:203,208,_ZNK5neml26R2BaseINS_2R2EE7drotateERKS1_
FN:212,215,_ZNK5neml26R2BaseINS_2R2EEclEll
FN:219,222,_ZNK5neml26R2BaseINS_2R2EE7inverseEv
FN:226,229,_ZNK5neml26R2BaseINS_2R2EE9transposeEv
FN:233,237,_ZN5neml2mlINS_2R2ENS_3VecEvvEES2_RKT_RKT0_
FN:241,245,_ZN5neml2mlINS_2R2ES1_vvEES1_RKT_RKT0_
FN:40,43,_ZN5neml26R2BaseINS_2R2EE4fillERKdRKN3c1013TensorOptionsE
FN:47,55,_ZN5neml26R2BaseINS_2R2EE4fillERKNS_6ScalarE
FN:59,65,_ZN5neml26R2BaseINS_2R2EE4fillERKdS4_S4_RKN3c1013TensorOptionsE
FN:69,77,_ZN5neml26R2BaseINS_2R2EE4fillERKNS_6ScalarES5_S5_
FN:81,95,_ZN5neml26R2BaseINS_2R2EE4fillERKdS4_S4_S4_S4_S4_RKN3c1013TensorOptionsE
FN:99,111,_ZN5neml26R2BaseINS_2R2EE4fillERKNS_6ScalarES5_S5_S5_S5_S5_
FNDA:37,_ZN5neml26R2BaseINS_2R2EE4fillERKdS4_S4_S4_S4_S4_S4_S4_S4_RKN3c1013TensorOptionsE
FNDA:134,_ZN5neml26R2BaseINS_2R2EE4fillERKNS_6ScalarES5_S5_S5_S5_S5_S5_S5_S5_
FNDA:883,_ZN5neml26R2BaseINS_2R2EE4skewERKNS_3VecE
FNDA:1499,_ZN5neml26R2BaseINS_2R2EE8identityERKN3c1013TensorOptionsE
FNDA:18,_ZNK5neml26R2BaseINS_2R2EE6rotateERKNS_3RotE
FNDA:764,_ZNK5neml26R2BaseINS_2R2EE6rotateERKS1_
FNDA:11,_ZNK5neml26R2BaseINS_2R2EE7drotateERKNS_3RotE
FNDA:130,_ZNK5neml26R2BaseINS_2R2EE7drotateERKS1_
FNDA:27,_ZNK5neml26R2BaseINS_2R2EEclEll
FNDA:86,_ZNK5neml26R2BaseINS_2R2EE7inverseEv
FNDA:2411,_ZNK5neml26R2BaseINS_2R2EE9transposeEv
FNDA:556,_ZN5neml2mlINS_2R2ENS_3VecEvvEES2_RKT_RKT0_
FNDA:5032,_ZN5neml2mlINS_2R2ES1_vvEES1_RKT_RKT0_
FNDA:26,_ZN5neml26R2BaseINS_2R2EE4fillERKdRKN3c1013TensorOptionsE
FNDA:53,_ZN5neml26R2BaseINS_2R2EE4fillERKNS_6ScalarE
FNDA:2,_ZN5neml26R2BaseINS_2R2EE4fillERKdS4_S4_RKN3c1013TensorOptionsE
FNDA:5,_ZN5neml26R2BaseINS_2R2EE4fillERKNS_6ScalarES5_S5_
FNDA:2,_ZN5neml26R2BaseINS_2R2EE4fillERKdS4_S4_S4_S4_S4_RKN3c1013TensorOptionsE
FNDA:5,_ZN5neml26R2BaseINS_2R2EE4fillERKNS_6ScalarES5_S5_S5_S5_S5_
FNF:19
FNH:19
DA:40,26
DA:42,26
DA:47,53
DA:49,53
DA:50,371
DA:51,159
DA:52,212
DA:54,371
DA:55,583
DA:59,2
DA:64,2
DA:69,5
DA:71,5
DA:72,35
DA:73,15
DA:74,20
DA:76,35
DA:77,55
DA:81,2
DA:89,4
DA:90,4
DA:91,4
DA:92,4
DA:93,4
DA:94,6
DA:99,5
DA:106,35
DA:107,15
DA:108,20
DA:110,35
DA:111,55
DA:115,37
DA:126,74
DA:127,74
DA:128,74
DA:129,74
DA:130,74
DA:131,74
DA:132,74
DA:133,74
DA:134,111
DA:139,134
DA:149,938
DA:150,402
DA:151,536
DA:153,938
DA:154,1474
DA:158,883
DA:160,883
DA:161,6181
DA:162,2649
DA:163,3532
DA:165,6181
DA:166,9713
DA:170,1499
DA:172,1499
DA:177,18
DA:179,18
DA:184,764
DA:186,764
DA:191,11
DA:193,11
DA:194,11
DA:196,44
DA:197,44
DA:198,110
DA:199,33
DA:203,130
DA:205,130
DA:206,390
DA:207,1300
DA:208,650
DA:212,27
DA:214,81
DA:215,27
DA:219,86
DA:221,86
DA:226,2411
DA:228,2411
DA:233,556
DA:235,556
DA:236,2224
DA:237,556
DA:241,5032
DA:243,5032
DA:244,20128
DA:245,5032
LF:87
LH:87
end_of_record
TN:
SF:/home/runner/work/neml2/neml2/src/neml2/tensors/R3.cxx
FN:33,40,_ZN5neml22R311levi_civitaERKN3c1013TensorOptionsE
FN:43,46,_ZNK5neml22R3clElll
FN:49,53,_ZNK5neml22R310contract_kERKNS_3VecE
FNDA:807,_ZN5neml22R311levi_civitaERKN3c1013TensorOptionsE
FNDA:54,_ZNK5neml22R3clElll
FNDA:4,_ZNK5neml22R310contract_kERKNS_3VecE
FNF:3
FNH:3
DA:33,807
DA:35,35508
DA:39,1614
DA:40,33087
DA:43,54
DA:45,216
DA:46,54
DA:49,4
DA:51,4
DA:52,20
DA:53,4
LF:11
LH:11
end_of_record
TN:
SF:/home/runner/work/neml2/neml2/src/neml2/tensors/R4.cxx
FN:100,103,_ZNK5neml22R415transpose_minorEv
FN:106,109,_ZNK5neml22R415transpose_majorEv
FN:38,41,_ZN5neml22R4C2ERKNS_4SSR4E
FN:43,46,_ZN5neml22R4C2ERKNS_4WWR4E
FN:49,56,_ZNK5neml22R46rotateERKNS_3RotE
FN:59,72,_ZNK5neml22R47drotateERKNS_3RotE
FN:75,85,_ZNK5neml22R412drotate_selfERKNS_3RotE
FN:88,91,_ZNK5neml22R4clEllll
FN:94,97,_ZNK5neml22R49transposeEll
FNDA:259,_ZNK5neml22R415transpose_minorEv
FNDA:1,_ZNK5neml22R415transpose_majorEv
FNDA:195,_ZN5neml22R4C2ERKNS_4SSR4E
FNDA:0,_ZN5neml22R4C2ERKNS_4WWR4E
FNDA:274,_ZNK5neml22R46rotateERKNS_3RotE
FNDA:13,_ZNK5neml22R47drotateERKNS_3RotE
FNDA:4,_ZNK5neml22R412drotate_selfERKNS_3RotE
FNDA:486,_ZNK5neml22R4clEllll
FNDA:646,_ZNK5neml22R49transposeEll
FNF:9
FNH:8
DA:38,195
DA:39,195
DA:41,195
DA:43,0
DA:44,0
DA:46,0
DA:49,274
DA:51,274
DA:52,274
DA:54,1918
DA:55,548
DA:56,548
DA:59,13
DA:61,13
DA:62,13
DA:63,13
DA:65,91
DA:66,91
DA:67,91
DA:68,91
DA:69,13
DA:71,26
DA:72,65
DA:75,4
DA:77,4
DA:78,4
DA:80,24
DA:82,4
DA:83,2
DA:84,2
DA:85,8
DA:88,486
DA:90,2430
DA:91,486
DA:94,646
DA:96,646
DA:100,259
DA:102,259
DA:106,1
DA:108,1
LF:40
LH:37
end_of_record
TN:
SF:/home/runner/work/neml2/neml2/src/neml2/tensors/Rot.cxx
FN:104,119,_ZN5neml23Rot11fill_matrixERKNS_2R2E
FN:122,131,_ZN5neml23Rot14fill_rodriguesERKNS_6ScalarES3_S3_
FN:134,150,_ZN5neml23Rot11fill_randomEjl
FN:153,156,_ZNK5neml23Rot7inverseEv
FN:159,167,_ZNK5neml23Rot15euler_rodriguesEv
FN:170,182,_ZNK5neml23Rot16deuler_rodriguesEv
FN:185,188,_ZNK5neml23Rot6rotateERKS0_
FN:191,204,_ZNK5neml23Rot7drotateERKS0_
FN:207,220,_ZNK5neml23Rot12drotate_selfERKS0_
FN:223,226,_ZNK5neml23Rot6shadowEv
FN:229,234,_ZNK5neml23Rot7dshadowEv
FN:237,243,_ZNK5neml23Rot4distERKS0_
FN:246,250,_ZNK5neml23Rot5gdistERKS0_
FN:253,256,_ZNK5neml23Rot2dVEv
FN:259,266,_ZN5neml2mlERKNS_3RotES2_
FN:39,42,_ZN5neml23RotC2ERKNS_3VecE
FN:45,48,_ZN5neml23Rot8identityERKN3c1013TensorOptionsE
FN:51,101,_ZN5neml23Rot17fill_euler_anglesERKN2at6TensorESsSs
FNDA:6,_ZN5neml23Rot11fill_matrixERKNS_2R2E
FNDA:6,_ZN5neml23Rot14fill_rodriguesERKNS_6ScalarES3_S3_
FNDA:0,_ZN5neml23Rot11fill_randomEjl
FNDA:2,_ZNK5neml23Rot7inverseEv
FNDA:709,_ZNK5neml23Rot15euler_rodriguesEv
FNDA:97,_ZNK5neml23Rot16deuler_rodriguesEv
FNDA:406,_ZNK5neml23Rot6rotateERKS0_
FNDA:72,_ZNK5neml23Rot7drotateERKS0_
FNDA:3,_ZNK5neml23Rot12drotate_selfERKS0_
FNDA:11,_ZNK5neml23Rot6shadowEv
FNDA:2,_ZNK5neml23Rot7dshadowEv
FNDA:0,_ZNK5neml23Rot4distERKS0_
FNDA:0,_ZNK5neml23Rot5gdistERKS0_
FNDA:0,_ZNK5neml23Rot2dVEv
FNDA:410,_ZN5neml2mlERKNS_3RotES2_
FNDA:0,_ZN5neml23RotC2ERKNS_3VecE
FNDA:3,_ZN5neml23Rot8identityERKN3c1013TensorOptionsE
FNDA:6,_ZN5neml23Rot17fill_euler_anglesERKN2at6TensorESsSs
FNF:18
FNH:13
DA:39,0
DA:40,0
DA:42,0
DA:45,3
DA:47,3
DA:51,6
DA:55,6
DA:57,6
DA:59,6
DA:60,3
DA:62,3
DA:64,6
DA:66,6
DA:67,10
DA:68,14
DA:69,6
DA:70,10
DA:72,4
DA:74,12
DA:77,2
DA:80,6
DA:81,18
DA:82,18
DA:83,18
DA:85,24
DA:86,12
DA:87,24
DA:88,12
DA:89,30
DA:90,24
DA:91,12
DA:92,24
DA:93,12
DA:94,30
DA:95,30
DA:96,30
DA:97,30
DA:100,12
DA:101,94
DA:104,6
DA:107,48
DA:108,30
DA:109,6
DA:112,6
DA:113,24
DA:114,42
DA:115,42
DA:116,42
DA:118,12
DA:119,42
DA:122,6
DA:125,6
DA:126,12
DA:127,18
DA:130,30
DA:131,12
DA:134,0
DA:136,0
DA:137,0
DA:138,0
DA:139,0
DA:140,0
DA:142,0
DA:143,0
DA:144,0
DA:145,0
DA:147,0
DA:149,0
DA:150,0
DA:153,2
DA:155,2
DA:159,709
DA:161,709
DA:162,709
DA:163,709
DA:165,1418
DA:166,2836
DA:167,709
DA:170,97
DA:172,97
DA:173,97
DA:174,97
DA:175,97
DA:177,485
DA:178,679
DA:179,388
DA:180,194
DA:181,970
DA:182,582
DA:185,406
DA:187,406
DA:191,72
DA:193,72
DA:194,72
DA:196,72
DA:197,72
DA:198,72
DA:199,72
DA:200,72
DA:202,144
DA:203,288
DA:204,72
DA:207,3
DA:209,3
DA:210,3
DA:212,3
DA:213,3
DA:214,3
DA:215,3
DA:216,3
DA:218,6
DA:219,12
DA:220,3
DA:223,11
DA:225,11
DA:229,2
DA:231,2
DA:233,4
DA:234,2
DA:237,0
DA:239,0
DA:240,0
DA:242,0
DA:243,0
DA:246,0
DA:248,0
DA:249,0
DA:253,0
DA:255,0
DA:259,410
DA:261,410
DA:262,410
DA:264,820
DA:265,1640
DA:266,410
LF:135
LH:109
end_of_record
TN:
SF:/home/runner/work/neml2/neml2/src/neml2/tensors/SR2.cxx
FN:110,113,_ZN5neml23SR28identityERKN3c1013TensorOptionsE
FN:116,119,_ZN5neml23SR212identity_mapERKN3c1013TensorOptionsE
FN:122,125,_ZNK5neml23SR26rotateERKNS_3RotE
FN:128,131,_ZNK5neml23SR26rotateERKNS_2R2E
FN:134,138,_ZNK5neml23SR27drotateERKNS_3RotE
FN:141,145,_ZNK5neml23SR27drotateERKNS_2R2E
FN:148,152,_ZNK5neml23SR2clEll
FN:155,158,_ZNK5neml23SR22trEv
FN:161,164,_ZNK5neml23SR23volEv
FN:167,170,_ZNK5neml23SR23devEv
FN:173,183,_ZNK5neml23SR23detEv
FN:186,190,_ZNK5neml23SR25innerERKS0_
FN:193,196,_ZNK5neml23SR27norm_sqEv
FN:199,202,_ZNK5neml23SR24normEd
FN:205,209,_ZNK5neml23SR25outerERKS0_
FN:212,215,_ZNK5neml23SR27inverseEv
FN:218,221,_ZNK5neml23SR29transposeEv
FN:40,43,_ZN5neml23SR2C2ERKNS_2R2E
FN:46,49,_ZN5neml23SR24fillERKdRKN3c1013TensorOptionsE
FN:52,56,_ZN5neml23SR24fillERKNS_6ScalarE
FN:59,65,_ZN5neml23SR24fillERKdS2_S2_RKN3c1013TensorOptionsE
FN:68,72,_ZN5neml23SR24fillERKNS_6ScalarES3_S3_
FN:75,89,_ZN5neml23SR24fillERKdS2_S2_S2_S2_S2_RKN3c1013TensorOptionsE
FN:92,107,_ZN5neml23SR24fillERKNS_6ScalarES3_S3_S3_S3_S3_
FNDA:882,_ZN5neml23SR28identityERKN3c1013TensorOptionsE
FNDA:3327,_ZN5neml23SR212identity_mapERKN3c1013TensorOptionsE
FNDA:8,_ZNK5neml23SR26rotateERKNS_3RotE
FNDA:746,_ZNK5neml23SR26rotateERKNS_2R2E
FNDA:4,_ZNK5neml23SR27drotateERKNS_3RotE
FNDA:130,_ZNK5neml23SR27drotateERKNS_2R2E
FNDA:21,_ZNK5neml23SR2clEll
FNDA:6437,_ZNK5neml23SR22trEv
FNDA:2437,_ZNK5neml23SR23volEv
FNDA:1718,_ZNK5neml23SR23devEv
FNDA:2,_ZNK5neml23SR23detEv
FNDA:1774,_ZNK5neml23SR25innerERKS0_
FNDA:1460,_ZNK5neml23SR27norm_sqEv
FNDA:1458,_ZNK5neml23SR24normEd
FNDA:331,_ZNK5neml23SR25outerERKS0_
FNDA:2,_ZNK5neml23SR27inverseEv
FNDA:2,_ZNK5neml23SR29transposeEv
FNDA:1145,_ZN5neml23SR2C2ERKNS_2R2E
FNDA:3,_ZN5neml23SR24fillERKdRKN3c1013TensorOptionsE
FNDA:2455,_ZN5neml23SR24fillERKNS_6ScalarE
FNDA:2,_ZN5neml23SR24fillERKdS2_S2_RKN3c1013TensorOptionsE
FNDA:31,_ZN5neml23SR24fillERKNS_6ScalarES3_S3_
FNDA:26,_ZN5neml23SR24fillERKdS2_S2_S2_S2_S2_RKN3c1013TensorOptionsE
FNDA:100,_ZN5neml23SR24fillERKNS_6ScalarES3_S3_S3_S3_S3_
FNF:24
FNH:24
DA:40,1145
DA:41,1145
DA:43,1145
DA:46,3
DA:48,3
DA:52,2455
DA:54,2455
DA:55,24550
DA:56,4910
DA:59,2
DA:64,2
DA:68,31
DA:70,31
DA:71,310
DA:72,62
DA:75,26
DA:83,52
DA:84,52
DA:85,52
DA:86,52
DA:87,52
DA:88,78
DA:92,100
DA:99,800
DA:102,200
DA:103,200
DA:104,200
DA:106,300
DA:107,400
DA:110,882
DA:112,6174
DA:113,882
DA:116,3327
DA:118,3327
DA:122,8
DA:124,8
DA:128,746
DA:130,746
DA:134,4
DA:136,4
DA:137,8
DA:138,4
DA:141,130
DA:143,130
DA:144,260
DA:145,130
DA:148,21
DA:150,21
DA:151,63
DA:152,21
DA:155,6437
DA:157,32185
DA:158,12874
DA:161,2437
DA:163,4874
DA:167,1718
DA:169,1718
DA:173,2
DA:175,2
DA:176,2
DA:177,2
DA:178,2
DA:179,2
DA:180,2
DA:181,4
DA:182,8
DA:183,2
DA:186,1774
DA:188,1774
DA:189,3548
DA:193,1460
DA:195,1460
DA:199,1458
DA:201,1458
DA:205,331
DA:207,331
DA:208,1655
DA:209,331
DA:212,2
DA:214,2
DA:218,2
DA:220,2
LF:82
LH:82
end_of_record
TN:
SF:/home/runner/work/neml2/neml2/src/neml2/tensors/SSR4.cxx
FN:105,108,_ZN5neml24SSR412identity_volERKN3c1013TensorOptionsE
FN:111,114,_ZN5neml24SSR412identity_devERKN3c1013TensorOptionsE
FN:117,128,_ZN5neml24SSR414isotropic_E_nuERKNS_6ScalarES3_
FN:131,134,_ZN5neml24SSR414isotropic_E_nuERKdS2_RKN3c1013TensorOptionsE
FN:137,143,_ZN5neml24SSR413fill_C1_C2_C3ERKNS_6ScalarES3_S3_
FN:146,152,_ZN5neml24SSR413fill_C1_C2_C3ERKdS2_S2_RKN3c1013TensorOptionsE
FN:155,159,_ZN5neml24SSR412identity_mapERKN3c1013TensorOptionsE
FN:162,165,_ZNK5neml24SSR46rotateERKNS_3RotE
FN:168,172,_ZNK5neml24SSR47drotateERKNS_3RotE
FN:175,186,_ZNK5neml24SSR412drotate_selfERKNS_3RotE
FN:189,194,_ZNK5neml24SSR4clEllll
FN:197,200,_ZNK5neml24SSR47inverseEv
FN:203,207,_ZNK5neml24SSR48dinverseEv
FN:210,213,_ZNK5neml24SSR415transpose_minorEv
FN:216,219,_ZNK5neml24SSR415transpose_majorEv
FN:222,226,_ZN5neml2mlERKNS_4SSR4ERKNS_3SR2E
FN:229,233,_ZN5neml2mlERKNS_3SR2ERKNS_4SSR4E
FN:236,240,_ZN5neml2mlERKNS_4SSR4ES2_
FN:38,44,_ZN5neml24SSR4C2ERKNS_2R4E
FN:47,57,_ZN5neml24SSR48identityERKN3c1013TensorOptionsE
FN:60,70,_ZN5neml24SSR411identity_C1ERKN3c1013TensorOptionsE
FN:73,83,_ZN5neml24SSR411identity_C2ERKN3c1013TensorOptionsE
FN:86,96,_ZN5neml24SSR411identity_C3ERKN3c1013TensorOptionsE
FN:99,102,_ZN5neml24SSR412identity_symERKN3c1013TensorOptionsE
FNDA:232,_ZN5neml24SSR412identity_volERKN3c1013TensorOptionsE
FNDA:381,_ZN5neml24SSR412identity_devERKN3c1013TensorOptionsE
FNDA:5,_ZN5neml24SSR414isotropic_E_nuERKNS_6ScalarES3_
FNDA:3,_ZN5neml24SSR414isotropic_E_nuERKdS2_RKN3c1013TensorOptionsE
FNDA:5,_ZN5neml24SSR413fill_C1_C2_C3ERKNS_6ScalarES3_S3_
FNDA:0,_ZN5neml24SSR413fill_C1_C2_C3ERKdS2_S2_RKN3c1013TensorOptionsE
FNDA:3,_ZN5neml24SSR412identity_mapERKN3c1013TensorOptionsE
FNDA:184,_ZNK5neml24SSR46rotateERKNS_3RotE
FNDA:9,_ZNK5neml24SSR47drotateERKNS_3RotE
FNDA:6,_ZNK5neml24SSR412drotate_selfERKNS_3RotE
FNDA:324,_ZNK5neml24SSR4clEllll
FNDA:106,_ZNK5neml24SSR47inverseEv
FNDA:5,_ZNK5neml24SSR48dinverseEv
FNDA:0,_ZNK5neml24SSR415transpose_minorEv
FNDA:0,_ZNK5neml24SSR415transpose_majorEv
FNDA:1032,_ZN5neml2mlERKNS_4SSR4ERKNS_3SR2E
FNDA:4,_ZN5neml2mlERKNS_3SR2ERKNS_4SSR4E
FNDA:166,_ZN5neml2mlERKNS_4SSR4ES2_
FNDA:252,_ZN5neml24SSR4C2ERKNS_2R4E
FNDA:615,_ZN5neml24SSR48identityERKN3c1013TensorOptionsE
FNDA:13,_ZN5neml24SSR411identity_C1ERKN3c1013TensorOptionsE
FNDA:13,_ZN5neml24SSR411identity_C2ERKN3c1013TensorOptionsE
FNDA:13,_ZN5neml24SSR411identity_C3ERKN3c1013TensorOptionsE
FNDA:3947,_ZN5neml24SSR412identity_symERKN3c1013TensorOptionsE
FNF:24
FNH:21
DA:38,252
DA:39,504
DA:40,504
DA:41,504
DA:42,252
DA:44,252
DA:47,615
DA:49,27060
DA:56,1230
DA:57,23370
DA:60,13
DA:62,572
DA:69,26
DA:70,494
DA:73,13
DA:75,572
DA:82,26
DA:83,494
DA:86,13
DA:88,572
DA:95,26
DA:96,494
DA:99,3947
DA:101,3947
DA:105,232
DA:107,464
DA:111,381
DA:113,381
DA:117,5
DA:119,5
DA:121,5
DA:122,5
DA:123,5
DA:124,5
DA:125,5
DA:127,10
DA:128,5
DA:131,3
DA:133,3
DA:137,5
DA:139,5
DA:141,10
DA:142,15
DA:146,0
DA:151,0
DA:155,3
DA:157,3
DA:158,15
DA:159,6
DA:162,184
DA:164,184
DA:168,9
DA:170,9
DA:171,18
DA:172,9
DA:175,6
DA:177,6
DA:178,42
DA:179,54
DA:180,48
DA:181,48
DA:182,12
DA:183,12
DA:184,12
DA:185,12
DA:186,30
DA:189,324
DA:191,324
DA:192,324
DA:193,1296
DA:194,324
DA:197,106
DA:199,106
DA:203,5
DA:205,5
DA:206,25
DA:207,10
DA:210,0
DA:212,0
DA:216,0
DA:218,0
DA:222,1032
DA:224,1032
DA:225,2064
DA:229,4
DA:231,4
DA:232,8
DA:236,166
DA:238,166
DA:239,332
LF:90
LH:84
end_of_record
TN:
SF:/home/runner/work/neml2/neml2/src/neml2/tensors/SWR4.cxx
FN:32,35,_ZN5neml24SWR4C2ERKNS_2R4E
FNDA:2,_ZN5neml24SWR4C2ERKNS_2R4E
FNF:1
FNH:1
DA:32,2
DA:33,2
DA:35,2
LF:3
LH:3
end_of_record
TN:
SF:/home/runner/work/neml2/neml2/src/neml2/tensors/Scalar.cxx
FN:29,32,_ZN5neml26ScalarC2EdRKN3c1013TensorOptionsE
FN:35,38,_ZN5neml26Scalar12identity_mapERKN3c1013TensorOptionsE
FN:43,49,_ZN5neml24math7minimumERKNS_6ScalarES3_
FN:53,57,_ZN5neml2mlERKNS_6ScalarES2_
FN:60,63,_ZN5neml23absERKNS_6ScalarE
FNDA:2065,_ZN5neml26ScalarC2EdRKN3c1013TensorOptionsE
FNDA:3260,_ZN5neml26Scalar12identity_mapERKN3c1013TensorOptionsE
FNDA:0,_ZN5neml24math7minimumERKNS_6ScalarES3_
FNDA:29433,_ZN5neml2mlERKNS_6ScalarES2_
FNDA:0,_ZN5neml23absERKNS_6ScalarE
FNF:5
FNH:3
DA:29,2065
DA:30,2065
DA:32,2065
DA:35,3260
DA:37,3260
DA:43,0
DA:45,0
DA:46,0
DA:47,0
DA:48,0
DA:49,0
DA:53,29433
DA:55,29433
DA:56,29433
DA:60,0
DA:62,0
LF:16
LH:8
end_of_record
TN:
SF:/home/runner/work/neml2/neml2/src/neml2/tensors/Tensor.cxx
FN:101,104,_ZN5neml26TensorC2ERKN2at6TensorERKNS_20TraceableTensorShapeE
FN:107,110,_ZN5neml26Tensor5emptyEN3c108ArrayRefIlEERKNS1_13TensorOptionsE
FN:113,125,_ZN5neml26Tensor5emptyERKNS_20TraceableTensorShapeEN3c108ArrayRefIlEERKNS4_13TensorOptionsE
FN:128,131,_ZN5neml26Tensor5zerosEN3c108ArrayRefIlEERKNS1_13TensorOptionsE
FN:134,146,_ZN5neml26Tensor5zerosERKNS_20TraceableTensorShapeEN3c108ArrayRefIlEERKNS4_13TensorOptionsE
FN:149,152,_ZN5neml26Tensor4onesEN3c108ArrayRefIlEERKNS1_13TensorOptionsE
FN:155,167,_ZN5neml26Tensor4onesERKNS_20TraceableTensorShapeEN3c108ArrayRefIlEERKNS4_13TensorOptionsE
FN:170,173,_ZN5neml26Tensor4fullEN3c108ArrayRefIlEEdRKNS1_13TensorOptionsE
FN:176,189,_ZN5neml26Tensor4fullERKNS_20TraceableTensorShapeEN3c108ArrayRefIlEEdRKNS4_13TensorOptionsE
FN:192,195,_ZN5neml26Tensor8identityElRKN3c1013TensorOptionsE
FN:198,203,_ZN5neml26Tensor8identityERKNS_20TraceableTensorShapeElRKN3c1013TensorOptionsE
FN:208,220,_ZN5neml24math3bmmERKNS_6TensorES3_
FN:223,235,_ZN5neml24math3bmvERKNS_6TensorES3_
FN:238,250,_ZN5neml24math3bvvERKNS_6TensorES3_
FN:254,258,_ZN5neml2mlERKNS_6TensorES2_
FN:33,53,_ZN5neml25utils21broadcast_batch_sizesERKSt6vectorINS_6TensorESaIS2_EE
FN:56,73,_ZN5neml25utils10same_dtypeERKSt6vectorINS_6TensorESaIS2_EE
FN:76,93,_ZN5neml25utils11same_deviceERKSt6vectorINS_6TensorESaIS2_EE
FN:96,99,_ZN5neml26TensorC2ERKN2at6TensorEl
FNDA:213078,_ZN5neml26TensorC2ERKN2at6TensorERKNS_20TraceableTensorShapeE
FNDA:2,_ZN5neml26Tensor5emptyEN3c108ArrayRefIlEERKNS1_13TensorOptionsE
FNDA:142,_ZN5neml26Tensor5emptyERKNS_20TraceableTensorShapeEN3c108ArrayRefIlEERKNS4_13TensorOptionsE
FNDA:13898,_ZN5neml26Tensor5zerosEN3c108ArrayRefIlEERKNS1_13TensorOptionsE
FNDA:2010,_ZN5neml26Tensor5zerosERKNS_20TraceableTensorShapeEN3c108ArrayRefIlEERKNS4_13TensorOptionsE
FNDA:3325,_ZN5neml26Tensor4onesEN3c108ArrayRefIlEERKNS1_13TensorOptionsE
FNDA:105,_ZN5neml26Tensor4onesERKNS_20TraceableTensorShapeEN3c108ArrayRefIlEERKNS4_13TensorOptionsE
FNDA:3103,_ZN5neml26Tensor4fullEN3c108ArrayRefIlEEdRKNS1_13TensorOptionsE
FNDA:270,_ZN5neml26Tensor4fullERKNS_20TraceableTensorShapeEN3c108ArrayRefIlEEdRKNS4_13TensorOptionsE
FNDA:2105,_ZN5neml26Tensor8identityElRKN3c1013TensorOptionsE
FNDA:3,_ZN5neml26Tensor8identityERKNS_20TraceableTensorShapeElRKN3c1013TensorOptionsE
FNDA:26558,_ZN5neml24math3bmmERKNS_6TensorES3_
FNDA:36,_ZN5neml24math3bmvERKNS_6TensorES3_
FNDA:632,_ZN5neml24math3bvvERKNS_6TensorES3_
FNDA:761,_ZN5neml2mlERKNS_6TensorES2_
FNDA:6657,_ZN5neml25utils21broadcast_batch_sizesERKSt6vectorINS_6TensorESaIS2_EE
FNDA:0,_ZN5neml25utils10same_dtypeERKSt6vectorINS_6TensorESaIS2_EE
FNDA:0,_ZN5neml25utils11same_deviceERKSt6vectorINS_6TensorESaIS2_EE
FNDA:67217,_ZN5neml26TensorC2ERKN2at6TensorEl
FNF:19
FNH:17
DA:33,6657
DA:35,6657
DA:36,6657
DA:37,25589
DA:38,18932
DA:40,18917
DA:41,18917
DA:42,18917
DA:43,5388
DA:44,18917
DA:45,6657
DA:46,4583
DA:48,7462
DA:49,5388
DA:51,2074
DA:52,2074
DA:53,6657
DA:56,0
DA:58,0
DA:59,0
DA:62,0
DA:63,0
DA:64,0
DA:66,0
DA:68,0
DA:70,0
DA:72,0
DA:76,0
DA:78,0
DA:79,0
DA:82,0
DA:83,0
DA:84,0
DA:86,0
DA:88,0
DA:90,0
DA:92,0
DA:96,67217
DA:97,67217
DA:99,67217
DA:101,213078
DA:102,213078
DA:104,213078
DA:107,2
DA:109,2
DA:113,142
DA:118,296
DA:119,154
DA:120,0
DA:121,0
DA:123,284
DA:124,284
DA:128,13898
DA:130,13898
DA:134,2010
DA:139,2132
DA:140,122
DA:141,27
DA:142,9
DA:144,4020
DA:145,4020
DA:149,3325
DA:151,3325
DA:155,105
DA:160,240
DA:161,135
DA:162,27
DA:163,9
DA:165,210
DA:166,210
DA:170,3103
DA:172,3103
DA:176,270
DA:182,811
DA:183,541
DA:184,0
DA:185,0
DA:187,540
DA:188,540
DA:192,2105
DA:194,2105
DA:198,3
DA:202,3
DA:208,26558
DA:210,26558
DA:211,26558
DA:213,26558
DA:215,26558
DA:217,26558
DA:219,53116
DA:223,36
DA:225,36
DA:226,36
DA:228,36
DA:230,36
DA:232,36
DA:234,72
DA:238,632
DA:240,632
DA:241,632
DA:243,632
DA:245,632
DA:247,632
DA:249,1264
DA:254,761
DA:256,761
DA:257,1522
LF:107
LH:83
end_of_record
TN:
SF:/home/runner/work/neml2/neml2/src/neml2/tensors/TensorBase.cxx
FN:114,119,_ZN5neml210TensorBaseINS_10QuaternionEE8logspaceERKS1_S4_lld
FN:114,119,_ZN5neml210TensorBaseINS_11MillerIndexEE8logspaceERKS1_S4_lld
FN:114,119,_ZN5neml210TensorBaseINS_2R2EE8logspaceERKS1_S4_lld
FN:114,119,_ZN5neml210TensorBaseINS_2R3EE8logspaceERKS1_S4_lld
FN:114,119,_ZN5neml210TensorBaseINS_2R4EE8logspaceERKS1_S4_lld
FN:114,119,_ZN5neml210TensorBaseINS_2R5EE8logspaceERKS1_S4_lld
FN:114,119,_ZN5neml210TensorBaseINS_2R8EE8logspaceERKS1_S4_lld
FN:114,119,_ZN5neml210TensorBaseINS_3RotEE8logspaceERKS1_S4_lld
FN:114,119,_ZN5neml210TensorBaseINS_3SR2EE8logspaceERKS1_S4_lld
FN:114,119,_ZN5neml210TensorBaseINS_3VecEE8logspaceERKS1_S4_lld
FN:114,119,_ZN5neml210TensorBaseINS_3WR2EE8logspaceERKS1_S4_lld
FN:114,119,_ZN5neml210TensorBaseINS_4SFR3EE8logspaceERKS1_S4_lld
FN:114,119,_ZN5neml210TensorBaseINS_4SSR4EE8logspaceERKS1_S4_lld
FN:114,119,_ZN5neml210TensorBaseINS_4SWR4EE8logspaceERKS1_S4_lld
FN:114,119,_ZN5neml210TensorBaseINS_4WSR4EE8logspaceERKS1_S4_lld
FN:114,119,_ZN5neml210TensorBaseINS_4WWR4EE8logspaceERKS1_S4_lld
FN:114,119,_ZN5neml210TensorBaseINS_5SFFR4EE8logspaceERKS1_S4_lld
FN:114,119,_ZN5neml210TensorBaseINS_5SSFR5EE8logspaceERKS1_S4_lld
FN:114,119,_ZN5neml210TensorBaseINS_6SSSSR8EE8logspaceERKS1_S4_lld
FN:114,119,_ZN5neml210TensorBaseINS_6ScalarEE8logspaceERKS1_S4_lld
FN:114,119,_ZN5neml210TensorBaseINS_6TensorEE8logspaceERKS1_S4_lld
FN:123,126,_ZNK5neml210TensorBaseINS_10QuaternionEE5cloneEN3c1012MemoryFormatE
FN:123,126,_ZNK5neml210TensorBaseINS_11MillerIndexEE5cloneEN3c1012MemoryFormatE
FN:123,126,_ZNK5neml210TensorBaseINS_2R2EE5cloneEN3c1012MemoryFormatE
FN:123,126,_ZNK5neml210TensorBaseINS_2R3EE5cloneEN3c1012MemoryFormatE
FN:123,126,_ZNK5neml210TensorBaseINS_2R4EE5cloneEN3c1012MemoryFormatE
FN:123,126,_ZNK5neml210TensorBaseINS_2R5EE5cloneEN3c1012MemoryFormatE
FN:123,126,_ZNK5neml210TensorBaseINS_2R8EE5cloneEN3c1012MemoryFormatE
FN:123,126,_ZNK5neml210TensorBaseINS_3RotEE5cloneEN3c1012MemoryFormatE
FN:123,126,_ZNK5neml210TensorBaseINS_3SR2EE5cloneEN3c1012MemoryFormatE
FN:123,126,_ZNK5neml210TensorBaseINS_3VecEE5cloneEN3c1012MemoryFormatE
FN:123,126,_ZNK5neml210TensorBaseINS_3WR2EE5cloneEN3c1012MemoryFormatE
FN:123,126,_ZNK5neml210TensorBaseINS_4SFR3EE5cloneEN3c1012MemoryFormatE
FN:123,126,_ZNK5neml210TensorBaseINS_4SSR4EE5cloneEN3c1012MemoryFormatE
FN:123,126,_ZNK5neml210TensorBaseINS_4SWR4EE5cloneEN3c1012MemoryFormatE
FN:123,126,_ZNK5neml210TensorBaseINS_4WSR4EE5cloneEN3c1012MemoryFormatE
FN:123,126,_ZNK5neml210TensorBaseINS_4WWR4EE5cloneEN3c1012MemoryFormatE
FN:123,126,_ZNK5neml210TensorBaseINS_5SFFR4EE5cloneEN3c1012MemoryFormatE
FN:123,126,_ZNK5neml210TensorBaseINS_5SSFR5EE5cloneEN3c1012MemoryFormatE
FN:123,126,_ZNK5neml210TensorBaseINS_6SSSSR8EE5cloneEN3c1012MemoryFormatE
FN:123,126,_ZNK5neml210TensorBaseINS_6ScalarEE5cloneEN3c1012MemoryFormatE
FN:123,126,_ZNK5neml210TensorBaseINS_6TensorEE5cloneEN3c1012MemoryFormatE
FN:130,133,_ZNK5neml210TensorBaseINS_10QuaternionEE6detachEv
FN:130,133,_ZNK5neml210TensorBaseINS_11MillerIndexEE6detachEv
FN:130,133,_ZNK5neml210TensorBaseINS_2R2EE6detachEv
FN:130,133,_ZNK5neml210TensorBaseINS_2R3EE6detachEv
FN:130,133,_ZNK5neml210TensorBaseINS_2R4EE6detachEv
FN:130,133,_ZNK5neml210TensorBaseINS_2R5EE6detachEv
FN:130,133,_ZNK5neml210TensorBaseINS_2R8EE6detachEv
FN:130,133,_ZNK5neml210TensorBaseINS_3RotEE6detachEv
FN:130,133,_ZNK5neml210TensorBaseINS_3SR2EE6detachEv
FN:130,133,_ZNK5neml210TensorBaseINS_3VecEE6detachEv
FN:130,133,_ZNK5neml210TensorBaseINS_3WR2EE6detachEv
FN:130,133,_ZNK5neml210TensorBaseINS_4SFR3EE6detachEv
FN:130,133,_ZNK5neml210TensorBaseINS_4SSR4EE6detachEv
FN:130,133,_ZNK5neml210TensorBaseINS_4SWR4EE6detachEv
FN:130,133,_ZNK5neml210TensorBaseINS_4WSR4EE6detachEv
FN:130,133,_ZNK5neml210TensorBaseINS_4WWR4EE6detachEv
FN:130,133,_ZNK5neml210TensorBaseINS_5SFFR4EE6detachEv
FN:130,133,_ZNK5neml210TensorBaseINS_5SSFR5EE6detachEv
FN:130,133,_ZNK5neml210TensorBaseINS_6SSSSR8EE6detachEv
FN:130,133,_ZNK5neml210TensorBaseINS_6ScalarEE6detachEv
FN:130,133,_ZNK5neml210TensorBaseINS_6TensorEE6detachEv
FN:137,140,_ZNK5neml210TensorBaseINS_10QuaternionEE2toERKN3c1013TensorOptionsE
FN:137,140,_ZNK5neml210TensorBaseINS_11MillerIndexEE2toERKN3c1013TensorOptionsE
FN:137,140,_ZNK5neml210TensorBaseINS_2R2EE2toERKN3c1013TensorOptionsE
FN:137,140,_ZNK5neml210TensorBaseINS_2R3EE2toERKN3c1013TensorOptionsE
FN:137,140,_ZNK5neml210TensorBaseINS_2R4EE2toERKN3c1013TensorOptionsE
FN:137,140,_ZNK5neml210TensorBaseINS_2R5EE2toERKN3c1013TensorOptionsE
FN:137,140,_ZNK5neml210TensorBaseINS_2R8EE2toERKN3c1013TensorOptionsE
FN:137,140,_ZNK5neml210TensorBaseINS_3RotEE2toERKN3c1013TensorOptionsE
FN:137,140,_ZNK5neml210TensorBaseINS_3SR2EE2toERKN3c1013TensorOptionsE
FN:137,140,_ZNK5neml210TensorBaseINS_3VecEE2toERKN3c1013TensorOptionsE
FN:137,140,_ZNK5neml210TensorBaseINS_3WR2EE2toERKN3c1013TensorOptionsE
FN:137,140,_ZNK5neml210TensorBaseINS_4SFR3EE2toERKN3c1013TensorOptionsE
FN:137,140,_ZNK5neml210TensorBaseINS_4SSR4EE2toERKN3c1013TensorOptionsE
FN:137,140,_ZNK5neml210TensorBaseINS_4SWR4EE2toERKN3c1013TensorOptionsE
FN:137,140,_ZNK5neml210TensorBaseINS_4WSR4EE2toERKN3c1013TensorOptionsE
FN:137,140,_ZNK5neml210TensorBaseINS_4WWR4EE2toERKN3c1013TensorOptionsE
FN:137,140,_ZNK5neml210TensorBaseINS_5SFFR4EE2toERKN3c1013TensorOptionsE
FN:137,140,_ZNK5neml210TensorBaseINS_5SSFR5EE2toERKN3c1013TensorOptionsE
FN:137,140,_ZNK5neml210TensorBaseINS_6SSSSR8EE2toERKN3c1013TensorOptionsE
FN:137,140,_ZNK5neml210TensorBaseINS_6ScalarEE2toERKN3c1013TensorOptionsE
FN:137,140,_ZNK5neml210TensorBaseINS_6TensorEE2toERKN3c1013TensorOptionsE
FN:144,147,_ZNK5neml210TensorBaseINS_10QuaternionEE7batchedEv
FN:144,147,_ZNK5neml210TensorBaseINS_11MillerIndexEE7batchedEv
FN:144,147,_ZNK5neml210TensorBaseINS_2R2EE7batchedEv
FN:144,147,_ZNK5neml210TensorBaseINS_2R3EE7batchedEv
FN:144,147,_ZNK5neml210TensorBaseINS_2R4EE7batchedEv
FN:144,147,_ZNK5neml210TensorBaseINS_2R5EE7batchedEv
FN:144,147,_ZNK5neml210TensorBaseINS_2R8EE7batchedEv
FN:144,147,_ZNK5neml210TensorBaseINS_3RotEE7batchedEv
FN:144,147,_ZNK5neml210TensorBaseINS_3SR2EE7batchedEv
FN:144,147,_ZNK5neml210TensorBaseINS_3VecEE7batchedEv
FN:144,147,_ZNK5neml210TensorBaseINS_3WR2EE7batchedEv
FN:144,147,_ZNK5neml210TensorBaseINS_4SFR3EE7batchedEv
FN:144,147,_ZNK5neml210TensorBaseINS_4SSR4EE7batchedEv
FN:144,147,_ZNK5neml210TensorBaseINS_4SWR4EE7batchedEv
FN:144,147,_ZNK5neml210TensorBaseINS_4WSR4EE7batchedEv
FN:144,147,_ZNK5neml210TensorBaseINS_4WWR4EE7batchedEv
FN:144,147,_ZNK5neml210TensorBaseINS_5SFFR4EE7batchedEv
FN:144,147,_ZNK5neml210TensorBaseINS_5SSFR5EE7batchedEv
FN:144,147,_ZNK5neml210TensorBaseINS_6SSSSR8EE7batchedEv
FN:144,147,_ZNK5neml210TensorBaseINS_6ScalarEE7batchedEv
FN:144,147,_ZNK5neml210TensorBaseINS_6TensorEE7batchedEv
FN:151,154,_ZNK5neml210TensorBaseINS_10QuaternionEE9batch_dimEv
FN:151,154,_ZNK5neml210TensorBaseINS_11MillerIndexEE9batch_dimEv
FN:151,154,_ZNK5neml210TensorBaseINS_2R2EE9batch_dimEv
FN:151,154,_ZNK5neml210TensorBaseINS_2R3EE9batch_dimEv
FN:151,154,_ZNK5neml210TensorBaseINS_2R4EE9batch_dimEv
FN:151,154,_ZNK5neml210TensorBaseINS_2R5EE9batch_dimEv
FN:151,154,_ZNK5neml210TensorBaseINS_2R8EE9batch_dimEv
FN:151,154,_ZNK5neml210TensorBaseINS_3RotEE9batch_dimEv
FN:151,154,_ZNK5neml210TensorBaseINS_3SR2EE9batch_dimEv
FN:151,154,_ZNK5neml210TensorBaseINS_3VecEE9batch_dimEv
FN:151,154,_ZNK5neml210TensorBaseINS_3WR2EE9batch_dimEv
FN:151,154,_ZNK5neml210TensorBaseINS_4SFR3EE9batch_dimEv
FN:151,154,_ZNK5neml210TensorBaseINS_4SSR4EE9batch_dimEv
FN:151,154,_ZNK5neml210TensorBaseINS_4SWR4EE9batch_dimEv
FN:151,154,_ZNK5neml210TensorBaseINS_4WSR4EE9batch_dimEv
FN:151,154,_ZNK5neml210TensorBaseINS_4WWR4EE9batch_dimEv
FN:151,154,_ZNK5neml210TensorBaseINS_5SFFR4EE9batch_dimEv
FN:151,154,_ZNK5neml210TensorBaseINS_5SSFR5EE9batch_dimEv
FN:151,154,_ZNK5neml210TensorBaseINS_6SSSSR8EE9batch_dimEv
FN:151,154,_ZNK5neml210TensorBaseINS_6ScalarEE9batch_dimEv
FN:151,154,_ZNK5neml210TensorBaseINS_6TensorEE9batch_dimEv
FN:158,161,_ZNK5neml210TensorBaseINS_10QuaternionEE8base_dimEv
FN:158,161,_ZNK5neml210TensorBaseINS_11MillerIndexEE8base_dimEv
FN:158,161,_ZNK5neml210TensorBaseINS_2R2EE8base_dimEv
FN:158,161,_ZNK5neml210TensorBaseINS_2R3EE8base_dimEv
FN:158,161,_ZNK5neml210TensorBaseINS_2R4EE8base_dimEv
FN:158,161,_ZNK5neml210TensorBaseINS_2R5EE8base_dimEv
FN:158,161,_ZNK5neml210TensorBaseINS_2R8EE8base_dimEv
FN:158,161,_ZNK5neml210TensorBaseINS_3RotEE8base_dimEv
FN:158,161,_ZNK5neml210TensorBaseINS_3SR2EE8base_dimEv
FN:158,161,_ZNK5neml210TensorBaseINS_3VecEE8base_dimEv
FN:158,161,_ZNK5neml210TensorBaseINS_3WR2EE8base_dimEv
FN:158,161,_ZNK5neml210TensorBaseINS_4SFR3EE8base_dimEv
FN:158,161,_ZNK5neml210TensorBaseINS_4SSR4EE8base_dimEv
FN:158,161,_ZNK5neml210TensorBaseINS_4SWR4EE8base_dimEv
FN:158,161,_ZNK5neml210TensorBaseINS_4WSR4EE8base_dimEv
FN:158,161,_ZNK5neml210TensorBaseINS_4WWR4EE8base_dimEv
FN:158,161,_ZNK5neml210TensorBaseINS_5SFFR4EE8base_dimEv
FN:158,161,_ZNK5neml210TensorBaseINS_5SSFR5EE8base_dimEv
FN:158,161,_ZNK5neml210TensorBaseINS_6SSSSR8EE8base_dimEv
FN:158,161,_ZNK5neml210TensorBaseINS_6ScalarEE8base_dimEv
FN:158,161,_ZNK5neml210TensorBaseINS_6TensorEE8base_dimEv
FN:165,168,_ZNK5neml210TensorBaseINS_10QuaternionEE11batch_sizesEv
FN:165,168,_ZNK5neml210TensorBaseINS_11MillerIndexEE11batch_sizesEv
FN:165,168,_ZNK5neml210TensorBaseINS_2R2EE11batch_sizesEv
FN:165,168,_ZNK5neml210TensorBaseINS_2R3EE11batch_sizesEv
FN:165,168,_ZNK5neml210TensorBaseINS_2R4EE11batch_sizesEv
FN:165,168,_ZNK5neml210TensorBaseINS_2R5EE11batch_sizesEv
FN:165,168,_ZNK5neml210TensorBaseINS_2R8EE11batch_sizesEv
FN:165,168,_ZNK5neml210TensorBaseINS_3RotEE11batch_sizesEv
FN:165,168,_ZNK5neml210TensorBaseINS_3SR2EE11batch_sizesEv
FN:165,168,_ZNK5neml210TensorBaseINS_3VecEE11batch_sizesEv
FN:165,168,_ZNK5neml210TensorBaseINS_3WR2EE11batch_sizesEv
FN:165,168,_ZNK5neml210TensorBaseINS_4SFR3EE11batch_sizesEv
FN:165,168,_ZNK5neml210TensorBaseINS_4SSR4EE11batch_sizesEv
FN:165,168,_ZNK5neml210TensorBaseINS_4SWR4EE11batch_sizesEv
FN:165,168,_ZNK5neml210TensorBaseINS_4WSR4EE11batch_sizesEv
FN:165,168,_ZNK5neml210TensorBaseINS_4WWR4EE11batch_sizesEv
FN:165,168,_ZNK5neml210TensorBaseINS_5SFFR4EE11batch_sizesEv
FN:165,168,_ZNK5neml210TensorBaseINS_5SSFR5EE11batch_sizesEv
FN:165,168,_ZNK5neml210TensorBaseINS_6SSSSR8EE11batch_sizesEv
FN:165,168,_ZNK5neml210TensorBaseINS_6ScalarEE11batch_sizesEv
FN:165,168,_ZNK5neml210TensorBaseINS_6TensorEE11batch_sizesEv
FN:172,181,_ZNK5neml210TensorBaseINS_10QuaternionEE10batch_sizeEl
FN:172,181,_ZNK5neml210TensorBaseINS_11MillerIndexEE10batch_sizeEl
FN:172,181,_ZNK5neml210TensorBaseINS_2R2EE10batch_sizeEl
FN:172,181,_ZNK5neml210TensorBaseINS_2R3EE10batch_sizeEl
FN:172,181,_ZNK5neml210TensorBaseINS_2R4EE10batch_sizeEl
FN:172,181,_ZNK5neml210TensorBaseINS_2R5EE10batch_sizeEl
FN:172,181,_ZNK5neml210TensorBaseINS_2R8EE10batch_sizeEl
FN:172,181,_ZNK5neml210TensorBaseINS_3RotEE10batch_sizeEl
FN:172,181,_ZNK5neml210TensorBaseINS_3SR2EE10batch_sizeEl
FN:172,181,_ZNK5neml210TensorBaseINS_3VecEE10batch_sizeEl
FN:172,181,_ZNK5neml210TensorBaseINS_3WR2EE10batch_sizeEl
FN:172,181,_ZNK5neml210TensorBaseINS_4SFR3EE10batch_sizeEl
FN:172,181,_ZNK5neml210TensorBaseINS_4SSR4EE10batch_sizeEl
FN:172,181,_ZNK5neml210TensorBaseINS_4SWR4EE10batch_sizeEl
FN:172,181,_ZNK5neml210TensorBaseINS_4WSR4EE10batch_sizeEl
FN:172,181,_ZNK5neml210TensorBaseINS_4WWR4EE10batch_sizeEl
FN:172,181,_ZNK5neml210TensorBaseINS_5SFFR4EE10batch_sizeEl
FN:172,181,_ZNK5neml210TensorBaseINS_5SSFR5EE10batch_sizeEl
FN:172,181,_ZNK5neml210TensorBaseINS_6SSSSR8EE10batch_sizeEl
FN:172,181,_ZNK5neml210TensorBaseINS_6ScalarEE10batch_sizeEl
FN:172,181,_ZNK5neml210TensorBaseINS_6TensorEE10batch_sizeEl
FN:185,188,_ZNK5neml210TensorBaseINS_10QuaternionEE10base_sizesEv
FN:185,188,_ZNK5neml210TensorBaseINS_11MillerIndexEE10base_sizesEv
FN:185,188,_ZNK5neml210TensorBaseINS_2R2EE10base_sizesEv
FN:185,188,_ZNK5neml210TensorBaseINS_2R3EE10base_sizesEv
FN:185,188,_ZNK5neml210TensorBaseINS_2R4EE10base_sizesEv
FN:185,188,_ZNK5neml210TensorBaseINS_2R5EE10base_sizesEv
FN:185,188,_ZNK5neml210TensorBaseINS_2R8EE10base_sizesEv
FN:185,188,_ZNK5neml210TensorBaseINS_3RotEE10base_sizesEv
FN:185,188,_ZNK5neml210TensorBaseINS_3SR2EE10base_sizesEv
FN:185,188,_ZNK5neml210TensorBaseINS_3VecEE10base_sizesEv
FN:185,188,_ZNK5neml210TensorBaseINS_3WR2EE10base_sizesEv
FN:185,188,_ZNK5neml210TensorBaseINS_4SFR3EE10base_sizesEv
FN:185,188,_ZNK5neml210TensorBaseINS_4SSR4EE10base_sizesEv
FN:185,188,_ZNK5neml210TensorBaseINS_4SWR4EE10base_sizesEv
FN:185,188,_ZNK5neml210TensorBaseINS_4WSR4EE10base_sizesEv
FN:185,188,_ZNK5neml210TensorBaseINS_4WWR4EE10base_sizesEv
FN:185,188,_ZNK5neml210TensorBaseINS_5SFFR4EE10base_sizesEv
FN:185,188,_ZNK5neml210TensorBaseINS_5SSFR5EE10base_sizesEv
FN:185,188,_ZNK5neml210TensorBaseINS_6SSSSR8EE10base_sizesEv
FN:185,188,_ZNK5neml210TensorBaseINS_6ScalarEE10base_sizesEv
FN:185,188,_ZNK5neml210TensorBaseINS_6TensorEE10base_sizesEv
FN:192,195,_ZNK5neml210TensorBaseINS_10QuaternionEE9base_sizeEl
FN:192,195,_ZNK5neml210TensorBaseINS_11MillerIndexEE9base_sizeEl
FN:192,195,_ZNK5neml210TensorBaseINS_2R2EE9base_sizeEl
FN:192,195,_ZNK5neml210TensorBaseINS_2R3EE9base_sizeEl
FN:192,195,_ZNK5neml210TensorBaseINS_2R4EE9base_sizeEl
FN:192,195,_ZNK5neml210TensorBaseINS_2R5EE9base_sizeEl
FN:192,195,_ZNK5neml210TensorBaseINS_2R8EE9base_sizeEl
FN:192,195,_ZNK5neml210TensorBaseINS_3RotEE9base_sizeEl
FN:192,195,_ZNK5neml210TensorBaseINS_3SR2EE9base_sizeEl
FN:192,195,_ZNK5neml210TensorBaseINS_3VecEE9base_sizeEl
FN:192,195,_ZNK5neml210TensorBaseINS_3WR2EE9base_sizeEl
FN:192,195,_ZNK5neml210TensorBaseINS_4SFR3EE9base_sizeEl
FN:192,195,_ZNK5neml210TensorBaseINS_4SSR4EE9base_sizeEl
FN:192,195,_ZNK5neml210TensorBaseINS_4SWR4EE9base_sizeEl
FN:192,195,_ZNK5neml210TensorBaseINS_4WSR4EE9base_sizeEl
FN:192,195,_ZNK5neml210TensorBaseINS_4WWR4EE9base_sizeEl
FN:192,195,_ZNK5neml210TensorBaseINS_5SFFR4EE9base_sizeEl
FN:192,195,_ZNK5neml210TensorBaseINS_5SSFR5EE9base_sizeEl
FN:192,195,_ZNK5neml210TensorBaseINS_6SSSSR8EE9base_sizeEl
FN:192,195,_ZNK5neml210TensorBaseINS_6ScalarEE9base_sizeEl
FN:192,195,_ZNK5neml210TensorBaseINS_6TensorEE9base_sizeEl
FN:199,202,_ZNK5neml210TensorBaseINS_10QuaternionEE12base_storageEv
FN:199,202,_ZNK5neml210TensorBaseINS_11MillerIndexEE12base_storageEv
FN:199,202,_ZNK5neml210TensorBaseINS_2R2EE12base_storageEv
FN:199,202,_ZNK5neml210TensorBaseINS_2R3EE12base_storageEv
FN:199,202,_ZNK5neml210TensorBaseINS_2R4EE12base_storageEv
FN:199,202,_ZNK5neml210TensorBaseINS_2R5EE12base_storageEv
FN:199,202,_ZNK5neml210TensorBaseINS_2R8EE12base_storageEv
FN:199,202,_ZNK5neml210TensorBaseINS_3RotEE12base_storageEv
FN:199,202,_ZNK5neml210TensorBaseINS_3SR2EE12base_storageEv
FN:199,202,_ZNK5neml210TensorBaseINS_3VecEE12base_storageEv
FN:199,202,_ZNK5neml210TensorBaseINS_3WR2EE12base_storageEv
FN:199,202,_ZNK5neml210TensorBaseINS_4SFR3EE12base_storageEv
FN:199,202,_ZNK5neml210TensorBaseINS_4SSR4EE12base_storageEv
FN:199,202,_ZNK5neml210TensorBaseINS_4SWR4EE12base_storageEv
FN:199,202,_ZNK5neml210TensorBaseINS_4WSR4EE12base_storageEv
FN:199,202,_ZNK5neml210TensorBaseINS_4WWR4EE12base_storageEv
FN:199,202,_ZNK5neml210TensorBaseINS_5SFFR4EE12base_storageEv
FN:199,202,_ZNK5neml210TensorBaseINS_5SSFR5EE12base_storageEv
FN:199,202,_ZNK5neml210TensorBaseINS_6SSSSR8EE12base_storageEv
FN:199,202,_ZNK5neml210TensorBaseINS_6ScalarEE12base_storageEv
FN:199,202,_ZNK5neml210TensorBaseINS_6TensorEE12base_storageEv
FN:206,212,_ZNK5neml210TensorBaseINS_10QuaternionEE11batch_indexEN3c108ArrayRefIN2at8indexing11TensorIndexEEE
FN:206,212,_ZNK5neml210TensorBaseINS_11MillerIndexEE11batch_indexEN3c108ArrayRefIN2at8indexing11TensorIndexEEE
FN:206,212,_ZNK5neml210TensorBaseINS_2R2EE11batch_indexEN3c108ArrayRefIN2at8indexing11TensorIndexEEE
FN:206,212,_ZNK5neml210TensorBaseINS_2R3EE11batch_indexEN3c108ArrayRefIN2at8indexing11TensorIndexEEE
FN:206,212,_ZNK5neml210TensorBaseINS_2R4EE11batch_indexEN3c108ArrayRefIN2at8indexing11TensorIndexEEE
FN:206,212,_ZNK5neml210TensorBaseINS_2R5EE11batch_indexEN3c108ArrayRefIN2at8indexing11TensorIndexEEE
FN:206,212,_ZNK5neml210TensorBaseINS_2R8EE11batch_indexEN3c108ArrayRefIN2at8indexing11TensorIndexEEE
FN:206,212,_ZNK5neml210TensorBaseINS_3RotEE11batch_indexEN3c108ArrayRefIN2at8indexing11TensorIndexEEE
FN:206,212,_ZNK5neml210TensorBaseINS_3SR2EE11batch_indexEN3c108ArrayRefIN2at8indexing11TensorIndexEEE
FN:206,212,_ZNK5neml210TensorBaseINS_3VecEE11batch_indexEN3c108ArrayRefIN2at8indexing11TensorIndexEEE
FN:206,212,_ZNK5neml210TensorBaseINS_3WR2EE11batch_indexEN3c108ArrayRefIN2at8indexing11TensorIndexEEE
FN:206,212,_ZNK5neml210TensorBaseINS_4SFR3EE11batch_indexEN3c108ArrayRefIN2at8indexing11TensorIndexEEE
FN:206,212,_ZNK5neml210TensorBaseINS_4SSR4EE11batch_indexEN3c108ArrayRefIN2at8indexing11TensorIndexEEE
FN:206,212,_ZNK5neml210TensorBaseINS_4SWR4EE11batch_indexEN3c108ArrayRefIN2at8indexing11TensorIndexEEE
FN:206,212,_ZNK5neml210TensorBaseINS_4WSR4EE11batch_indexEN3c108ArrayRefIN2at8indexing11TensorIndexEEE
FN:206,212,_ZNK5neml210TensorBaseINS_4WWR4EE11batch_indexEN3c108ArrayRefIN2at8indexing11TensorIndexEEE
FN:206,212,_ZNK5neml210TensorBaseINS_5SFFR4EE11batch_indexEN3c108ArrayRefIN2at8indexing11TensorIndexEEE
FN:206,212,_ZNK5neml210TensorBaseINS_5SSFR5EE11batch_indexEN3c108ArrayRefIN2at8indexing11TensorIndexEEE
FN:206,212,_ZNK5neml210TensorBaseINS_6SSSSR8EE11batch_indexEN3c108ArrayRefIN2at8indexing11TensorIndexEEE
FN:206,212,_ZNK5neml210TensorBaseINS_6ScalarEE11batch_indexEN3c108ArrayRefIN2at8indexing11TensorIndexEEE
FN:206,212,_ZNK5neml210TensorBaseINS_6TensorEE11batch_indexEN3c108ArrayRefIN2at8indexing11TensorIndexEEE
FN:216,221,_ZNK5neml210TensorBaseINS_10QuaternionEE10base_indexEN3c108ArrayRefIN2at8indexing11TensorIndexEEE
FN:216,221,_ZNK5neml210TensorBaseINS_11MillerIndexEE10base_indexEN3c108ArrayRefIN2at8indexing11TensorIndexEEE
FN:216,221,_ZNK5neml210TensorBaseINS_2R2EE10base_indexEN3c108ArrayRefIN2at8indexing11TensorIndexEEE
FN:216,221,_ZNK5neml210TensorBaseINS_2R3EE10base_indexEN3c108ArrayRefIN2at8indexing11TensorIndexEEE
FN:216,221,_ZNK5neml210TensorBaseINS_2R4EE10base_indexEN3c108ArrayRefIN2at8indexing11TensorIndexEEE
FN:216,221,_ZNK5neml210TensorBaseINS_2R5EE10base_indexEN3c108ArrayRefIN2at8indexing11TensorIndexEEE
FN:216,221,_ZNK5neml210TensorBaseINS_2R8EE10base_indexEN3c108ArrayRefIN2at8indexing11TensorIndexEEE
FN:216,221,_ZNK5neml210TensorBaseINS_3RotEE10base_indexEN3c108ArrayRefIN2at8indexing11TensorIndexEEE
FN:216,221,_ZNK5neml210TensorBaseINS_3SR2EE10base_indexEN3c108ArrayRefIN2at8indexing11TensorIndexEEE
FN:216,221,_ZNK5neml210TensorBaseINS_3VecEE10base_indexEN3c108ArrayRefIN2at8indexing11TensorIndexEEE
FN:216,221,_ZNK5neml210TensorBaseINS_3WR2EE10base_indexEN3c108ArrayRefIN2at8indexing11TensorIndexEEE
FN:216,221,_ZNK5neml210TensorBaseINS_4SFR3EE10base_indexEN3c108ArrayRefIN2at8indexing11TensorIndexEEE
FN:216,221,_ZNK5neml210TensorBaseINS_4SSR4EE10base_indexEN3c108ArrayRefIN2at8indexing11TensorIndexEEE
FN:216,221,_ZNK5neml210TensorBaseINS_4SWR4EE10base_indexEN3c108ArrayRefIN2at8indexing11TensorIndexEEE
FN:216,221,_ZNK5neml210TensorBaseINS_4WSR4EE10base_indexEN3c108ArrayRefIN2at8indexing11TensorIndexEEE
FN:216,221,_ZNK5neml210TensorBaseINS_4WWR4EE10base_indexEN3c108ArrayRefIN2at8indexing11TensorIndexEEE
FN:216,221,_ZNK5neml210TensorBaseINS_5SFFR4EE10base_indexEN3c108ArrayRefIN2at8indexing11TensorIndexEEE
FN:216,221,_ZNK5neml210TensorBaseINS_5SSFR5EE10base_indexEN3c108ArrayRefIN2at8indexing11TensorIndexEEE
FN:216,221,_ZNK5neml210TensorBaseINS_6SSSSR8EE10base_indexEN3c108ArrayRefIN2at8indexing11TensorIndexEEE
FN:216,221,_ZNK5neml210TensorBaseINS_6ScalarEE10base_indexEN3c108ArrayRefIN2at8indexing11TensorIndexEEE
FN:216,221,_ZNK5neml210TensorBaseINS_6TensorEE10base_indexEN3c108ArrayRefIN2at8indexing11TensorIndexEEE
FN:225,231,_ZN5neml210TensorBaseINS_10QuaternionEE16batch_index_put_EN3c108ArrayRefIN2at8indexing11TensorIndexEEERKNS5_6TensorE
FN:225,231,_ZN5neml210TensorBaseINS_11MillerIndexEE16batch_index_put_EN3c108ArrayRefIN2at8indexing11TensorIndexEEERKNS5_6TensorE
FN:225,231,_ZN5neml210TensorBaseINS_2R2EE16batch_index_put_EN3c108ArrayRefIN2at8indexing11TensorIndexEEERKNS5_6TensorE
FN:225,231,_ZN5neml210TensorBaseINS_2R3EE16batch_index_put_EN3c108ArrayRefIN2at8indexing11TensorIndexEEERKNS5_6TensorE
FN:225,231,_ZN5neml210TensorBaseINS_2R4EE16batch_index_put_EN3c108ArrayRefIN2at8indexing11TensorIndexEEERKNS5_6TensorE
FN:225,231,_ZN5neml210TensorBaseINS_2R5EE16batch_index_put_EN3c108ArrayRefIN2at8indexing11TensorIndexEEERKNS5_6TensorE
FN:225,231,_ZN5neml210TensorBaseINS_2R8EE16batch_index_put_EN3c108ArrayRefIN2at8indexing11TensorIndexEEERKNS5_6TensorE
FN:225,231,_ZN5neml210TensorBaseINS_3RotEE16batch_index_put_EN3c108ArrayRefIN2at8indexing11TensorIndexEEERKNS5_6TensorE
FN:225,231,_ZN5neml210TensorBaseINS_3SR2EE16batch_index_put_EN3c108ArrayRefIN2at8indexing11TensorIndexEEERKNS5_6TensorE
FN:225,231,_ZN5neml210TensorBaseINS_3VecEE16batch_index_put_EN3c108ArrayRefIN2at8indexing11TensorIndexEEERKNS5_6TensorE
FN:225,231,_ZN5neml210TensorBaseINS_3WR2EE16batch_index_put_EN3c108ArrayRefIN2at8indexing11TensorIndexEEERKNS5_6TensorE
FN:225,231,_ZN5neml210TensorBaseINS_4SFR3EE16batch_index_put_EN3c108ArrayRefIN2at8indexing11TensorIndexEEERKNS5_6TensorE
FN:225,231,_ZN5neml210TensorBaseINS_4SSR4EE16batch_index_put_EN3c108ArrayRefIN2at8indexing11TensorIndexEEERKNS5_6TensorE
FN:225,231,_ZN5neml210TensorBaseINS_4SWR4EE16batch_index_put_EN3c108ArrayRefIN2at8indexing11TensorIndexEEERKNS5_6TensorE
FN:225,231,_ZN5neml210TensorBaseINS_4WSR4EE16batch_index_put_EN3c108ArrayRefIN2at8indexing11TensorIndexEEERKNS5_6TensorE
FN:225,231,_ZN5neml210TensorBaseINS_4WWR4EE16batch_index_put_EN3c108ArrayRefIN2at8indexing11TensorIndexEEERKNS5_6TensorE
FN:225,231,_ZN5neml210TensorBaseINS_5SFFR4EE16batch_index_put_EN3c108ArrayRefIN2at8indexing11TensorIndexEEERKNS5_6TensorE
FN:225,231,_ZN5neml210TensorBaseINS_5SSFR5EE16batch_index_put_EN3c108ArrayRefIN2at8indexing11TensorIndexEEERKNS5_6TensorE
FN:225,231,_ZN5neml210TensorBaseINS_6SSSSR8EE16batch_index_put_EN3c108ArrayRefIN2at8indexing11TensorIndexEEERKNS5_6TensorE
FN:225,231,_ZN5neml210TensorBaseINS_6ScalarEE16batch_index_put_EN3c108ArrayRefIN2at8indexing11TensorIndexEEERKNS5_6TensorE
FN:225,231,_ZN5neml210TensorBaseINS_6TensorEE16batch_index_put_EN3c108ArrayRefIN2at8indexing11TensorIndexEEERKNS5_6TensorE
FN:235,240,_ZN5neml210TensorBaseINS_10QuaternionEE16batch_index_put_EN3c108ArrayRefIN2at8indexing11TensorIndexEEEd
FN:235,240,_ZN5neml210TensorBaseINS_11MillerIndexEE16batch_index_put_EN3c108ArrayRefIN2at8indexing11TensorIndexEEEd
FN:235,240,_ZN5neml210TensorBaseINS_2R2EE16batch_index_put_EN3c108ArrayRefIN2at8indexing11TensorIndexEEEd
FN:235,240,_ZN5neml210TensorBaseINS_2R3EE16batch_index_put_EN3c108ArrayRefIN2at8indexing11TensorIndexEEEd
FN:235,240,_ZN5neml210TensorBaseINS_2R4EE16batch_index_put_EN3c108ArrayRefIN2at8indexing11TensorIndexEEEd
FN:235,240,_ZN5neml210TensorBaseINS_2R5EE16batch_index_put_EN3c108ArrayRefIN2at8indexing11TensorIndexEEEd
FN:235,240,_ZN5neml210TensorBaseINS_2R8EE16batch_index_put_EN3c108ArrayRefIN2at8indexing11TensorIndexEEEd
FN:235,240,_ZN5neml210TensorBaseINS_3RotEE16batch_index_put_EN3c108ArrayRefIN2at8indexing11TensorIndexEEEd
FN:235,240,_ZN5neml210TensorBaseINS_3SR2EE16batch_index_put_EN3c108ArrayRefIN2at8indexing11TensorIndexEEEd
FN:235,240,_ZN5neml210TensorBaseINS_3VecEE16batch_index_put_EN3c108ArrayRefIN2at8indexing11TensorIndexEEEd
FN:235,240,_ZN5neml210TensorBaseINS_3WR2EE16batch_index_put_EN3c108ArrayRefIN2at8indexing11TensorIndexEEEd
FN:235,240,_ZN5neml210TensorBaseINS_4SFR3EE16batch_index_put_EN3c108ArrayRefIN2at8indexing11TensorIndexEEEd
FN:235,240,_ZN5neml210TensorBaseINS_4SSR4EE16batch_index_put_EN3c108ArrayRefIN2at8indexing11TensorIndexEEEd
FN:235,240,_ZN5neml210TensorBaseINS_4SWR4EE16batch_index_put_EN3c108ArrayRefIN2at8indexing11TensorIndexEEEd
FN:235,240,_ZN5neml210TensorBaseINS_4WSR4EE16batch_index_put_EN3c108ArrayRefIN2at8indexing11TensorIndexEEEd
FN:235,240,_ZN5neml210TensorBaseINS_4WWR4EE16batch_index_put_EN3c108ArrayRefIN2at8indexing11TensorIndexEEEd
FN:235,240,_ZN5neml210TensorBaseINS_5SFFR4EE16batch_index_put_EN3c108ArrayRefIN2at8indexing11TensorIndexEEEd
FN:235,240,_ZN5neml210TensorBaseINS_5SSFR5EE16batch_index_put_EN3c108ArrayRefIN2at8indexing11TensorIndexEEEd
FN:235,240,_ZN5neml210TensorBaseINS_6SSSSR8EE16batch_index_put_EN3c108ArrayRefIN2at8indexing11TensorIndexEEEd
FN:235,240,_ZN5neml210TensorBaseINS_6ScalarEE16batch_index_put_EN3c108ArrayRefIN2at8indexing11TensorIndexEEEd
FN:235,240,_ZN5neml210TensorBaseINS_6TensorEE16batch_index_put_EN3c108ArrayRefIN2at8indexing11TensorIndexEEEd
FN:244,250,_ZN5neml210TensorBaseINS_10QuaternionEE15base_index_put_EN3c108ArrayRefIN2at8indexing11TensorIndexEEERKNS5_6TensorE
FN:244,250,_ZN5neml210TensorBaseINS_11MillerIndexEE15base_index_put_EN3c108ArrayRefIN2at8indexing11TensorIndexEEERKNS5_6TensorE
FN:244,250,_ZN5neml210TensorBaseINS_2R2EE15base_index_put_EN3c108ArrayRefIN2at8indexing11TensorIndexEEERKNS5_6TensorE
FN:244,250,_ZN5neml210TensorBaseINS_2R3EE15base_index_put_EN3c108ArrayRefIN2at8indexing11TensorIndexEEERKNS5_6TensorE
FN:244,250,_ZN5neml210TensorBaseINS_2R4EE15base_index_put_EN3c108ArrayRefIN2at8indexing11TensorIndexEEERKNS5_6TensorE
FN:244,250,_ZN5neml210TensorBaseINS_2R5EE15base_index_put_EN3c108ArrayRefIN2at8indexing11TensorIndexEEERKNS5_6TensorE
FN:244,250,_ZN5neml210TensorBaseINS_2R8EE15base_index_put_EN3c108ArrayRefIN2at8indexing11TensorIndexEEERKNS5_6TensorE
FN:244,250,_ZN5neml210TensorBaseINS_3RotEE15base_index_put_EN3c108ArrayRefIN2at8indexing11TensorIndexEEERKNS5_6TensorE
FN:244,250,_ZN5neml210TensorBaseINS_3SR2EE15base_index_put_EN3c108ArrayRefIN2at8indexing11TensorIndexEEERKNS5_6TensorE
FN:244,250,_ZN5neml210TensorBaseINS_3VecEE15base_index_put_EN3c108ArrayRefIN2at8indexing11TensorIndexEEERKNS5_6TensorE
FN:244,250,_ZN5neml210TensorBaseINS_3WR2EE15base_index_put_EN3c108ArrayRefIN2at8indexing11TensorIndexEEERKNS5_6TensorE
FN:244,250,_ZN5neml210TensorBaseINS_4SFR3EE15base_index_put_EN3c108ArrayRefIN2at8indexing11TensorIndexEEERKNS5_6TensorE
FN:244,250,_ZN5neml210TensorBaseINS_4SSR4EE15base_index_put_EN3c108ArrayRefIN2at8indexing11TensorIndexEEERKNS5_6TensorE
FN:244,250,_ZN5neml210TensorBaseINS_4SWR4EE15base_index_put_EN3c108ArrayRefIN2at8indexing11TensorIndexEEERKNS5_6TensorE
FN:244,250,_ZN5neml210TensorBaseINS_4WSR4EE15base_index_put_EN3c108ArrayRefIN2at8indexing11TensorIndexEEERKNS5_6TensorE
FN:244,250,_ZN5neml210TensorBaseINS_4WWR4EE15base_index_put_EN3c108ArrayRefIN2at8indexing11TensorIndexEEERKNS5_6TensorE
FN:244,250,_ZN5neml210TensorBaseINS_5SFFR4EE15base_index_put_EN3c108ArrayRefIN2at8indexing11TensorIndexEEERKNS5_6TensorE
FN:244,250,_ZN5neml210TensorBaseINS_5SSFR5EE15base_index_put_EN3c108ArrayRefIN2at8indexing11TensorIndexEEERKNS5_6TensorE
FN:244,250,_ZN5neml210TensorBaseINS_6SSSSR8EE15base_index_put_EN3c108ArrayRefIN2at8indexing11TensorIndexEEERKNS5_6TensorE
FN:244,250,_ZN5neml210TensorBaseINS_6ScalarEE15base_index_put_EN3c108ArrayRefIN2at8indexing11TensorIndexEEERKNS5_6TensorE
FN:244,250,_ZN5neml210TensorBaseINS_6TensorEE15base_index_put_EN3c108ArrayRefIN2at8indexing11TensorIndexEEERKNS5_6TensorE
FN:254,259,_ZN5neml210TensorBaseINS_10QuaternionEE15base_index_put_EN3c108ArrayRefIN2at8indexing11TensorIndexEEEd
FN:254,259,_ZN5neml210TensorBaseINS_11MillerIndexEE15base_index_put_EN3c108ArrayRefIN2at8indexing11TensorIndexEEEd
FN:254,259,_ZN5neml210TensorBaseINS_2R2EE15base_index_put_EN3c108ArrayRefIN2at8indexing11TensorIndexEEEd
FN:254,259,_ZN5neml210TensorBaseINS_2R3EE15base_index_put_EN3c108ArrayRefIN2at8indexing11TensorIndexEEEd
FN:254,259,_ZN5neml210TensorBaseINS_2R4EE15base_index_put_EN3c108ArrayRefIN2at8indexing11TensorIndexEEEd
FN:254,259,_ZN5neml210TensorBaseINS_2R5EE15base_index_put_EN3c108ArrayRefIN2at8indexing11TensorIndexEEEd
FN:254,259,_ZN5neml210TensorBaseINS_2R8EE15base_index_put_EN3c108ArrayRefIN2at8indexing11TensorIndexEEEd
FN:254,259,_ZN5neml210TensorBaseINS_3RotEE15base_index_put_EN3c108ArrayRefIN2at8indexing11TensorIndexEEEd
FN:254,259,_ZN5neml210TensorBaseINS_3SR2EE15base_index_put_EN3c108ArrayRefIN2at8indexing11TensorIndexEEEd
FN:254,259,_ZN5neml210TensorBaseINS_3VecEE15base_index_put_EN3c108ArrayRefIN2at8indexing11TensorIndexEEEd
FN:254,259,_ZN5neml210TensorBaseINS_3WR2EE15base_index_put_EN3c108ArrayRefIN2at8indexing11TensorIndexEEEd
FN:254,259,_ZN5neml210TensorBaseINS_4SFR3EE15base_index_put_EN3c108ArrayRefIN2at8indexing11TensorIndexEEEd
FN:254,259,_ZN5neml210TensorBaseINS_4SSR4EE15base_index_put_EN3c108ArrayRefIN2at8indexing11TensorIndexEEEd
FN:254,259,_ZN5neml210TensorBaseINS_4SWR4EE15base_index_put_EN3c108ArrayRefIN2at8indexing11TensorIndexEEEd
FN:254,259,_ZN5neml210TensorBaseINS_4WSR4EE15base_index_put_EN3c108ArrayRefIN2at8indexing11TensorIndexEEEd
FN:254,259,_ZN5neml210TensorBaseINS_4WWR4EE15base_index_put_EN3c108ArrayRefIN2at8indexing11TensorIndexEEEd
FN:254,259,_ZN5neml210TensorBaseINS_5SFFR4EE15base_index_put_EN3c108ArrayRefIN2at8indexing11TensorIndexEEEd
FN:254,259,_ZN5neml210TensorBaseINS_5SSFR5EE15base_index_put_EN3c108ArrayRefIN2at8indexing11TensorIndexEEEd
FN:254,259,_ZN5neml210TensorBaseINS_6SSSSR8EE15base_index_put_EN3c108ArrayRefIN2at8indexing11TensorIndexEEEd
FN:254,259,_ZN5neml210TensorBaseINS_6ScalarEE15base_index_put_EN3c108ArrayRefIN2at8indexing11TensorIndexEEEd
FN:254,259,_ZN5neml210TensorBaseINS_6TensorEE15base_index_put_EN3c108ArrayRefIN2at8indexing11TensorIndexEEEd
FN:263,266,_ZNK5neml210TensorBaseINS_10QuaternionEE13variable_dataEv
FN:263,266,_ZNK5neml210TensorBaseINS_11MillerIndexEE13variable_dataEv
FN:263,266,_ZNK5neml210TensorBaseINS_2R2EE13variable_dataEv
FN:263,266,_ZNK5neml210TensorBaseINS_2R3EE13variable_dataEv
FN:263,266,_ZNK5neml210TensorBaseINS_2R4EE13variable_dataEv
FN:263,266,_ZNK5neml210TensorBaseINS_2R5EE13variable_dataEv
FN:263,266,_ZNK5neml210TensorBaseINS_2R8EE13variable_dataEv
FN:263,266,_ZNK5neml210TensorBaseINS_3RotEE13variable_dataEv
FN:263,266,_ZNK5neml210TensorBaseINS_3SR2EE13variable_dataEv
FN:263,266,_ZNK5neml210TensorBaseINS_3VecEE13variable_dataEv
FN:263,266,_ZNK5neml210TensorBaseINS_3WR2EE13variable_dataEv
FN:263,266,_ZNK5neml210TensorBaseINS_4SFR3EE13variable_dataEv
FN:263,266,_ZNK5neml210TensorBaseINS_4SSR4EE13variable_dataEv
FN:263,266,_ZNK5neml210TensorBaseINS_4SWR4EE13variable_dataEv
FN:263,266,_ZNK5neml210TensorBaseINS_4WSR4EE13variable_dataEv
FN:263,266,_ZNK5neml210TensorBaseINS_4WWR4EE13variable_dataEv
FN:263,266,_ZNK5neml210TensorBaseINS_5SFFR4EE13variable_dataEv
FN:263,266,_ZNK5neml210TensorBaseINS_5SSFR5EE13variable_dataEv
FN:263,266,_ZNK5neml210TensorBaseINS_6SSSSR8EE13variable_dataEv
FN:263,266,_ZNK5neml210TensorBaseINS_6ScalarEE13variable_dataEv
FN:263,266,_ZNK5neml210TensorBaseINS_6TensorEE13variable_dataEv
FN:270,282,_ZNK5neml210TensorBaseINS_10QuaternionEE12batch_expandERKNS_20TraceableTensorShapeE
FN:270,282,_ZNK5neml210TensorBaseINS_11MillerIndexEE12batch_expandERKNS_20TraceableTensorShapeE
FN:270,282,_ZNK5neml210TensorBaseINS_2R2EE12batch_expandERKNS_20TraceableTensorShapeE
FN:270,282,_ZNK5neml210TensorBaseINS_2R3EE12batch_expandERKNS_20TraceableTensorShapeE
FN:270,282,_ZNK5neml210TensorBaseINS_2R4EE12batch_expandERKNS_20TraceableTensorShapeE
FN:270,282,_ZNK5neml210TensorBaseINS_2R5EE12batch_expandERKNS_20TraceableTensorShapeE
FN:270,282,_ZNK5neml210TensorBaseINS_2R8EE12batch_expandERKNS_20TraceableTensorShapeE
FN:270,282,_ZNK5neml210TensorBaseINS_3RotEE12batch_expandERKNS_20TraceableTensorShapeE
FN:270,282,_ZNK5neml210TensorBaseINS_3SR2EE12batch_expandERKNS_20TraceableTensorShapeE
FN:270,282,_ZNK5neml210TensorBaseINS_3VecEE12batch_expandERKNS_20TraceableTensorShapeE
FN:270,282,_ZNK5neml210TensorBaseINS_3WR2EE12batch_expandERKNS_20TraceableTensorShapeE
FN:270,282,_ZNK5neml210TensorBaseINS_4SFR3EE12batch_expandERKNS_20TraceableTensorShapeE
FN:270,282,_ZNK5neml210TensorBaseINS_4SSR4EE12batch_expandERKNS_20TraceableTensorShapeE
FN:270,282,_ZNK5neml210TensorBaseINS_4SWR4EE12batch_expandERKNS_20TraceableTensorShapeE
FN:270,282,_ZNK5neml210TensorBaseINS_4WSR4EE12batch_expandERKNS_20TraceableTensorShapeE
FN:270,282,_ZNK5neml210TensorBaseINS_4WWR4EE12batch_expandERKNS_20TraceableTensorShapeE
FN:270,282,_ZNK5neml210TensorBaseINS_5SFFR4EE12batch_expandERKNS_20TraceableTensorShapeE
FN:270,282,_ZNK5neml210TensorBaseINS_5SSFR5EE12batch_expandERKNS_20TraceableTensorShapeE
FN:270,282,_ZNK5neml210TensorBaseINS_6SSSSR8EE12batch_expandERKNS_20TraceableTensorShapeE
FN:270,282,_ZNK5neml210TensorBaseINS_6ScalarEE12batch_expandERKNS_20TraceableTensorShapeE
FN:270,282,_ZNK5neml210TensorBaseINS_6TensorEE12batch_expandERKNS_20TraceableTensorShapeE
FN:286,298,_ZNK5neml210TensorBaseINS_10QuaternionEE12batch_expandERKNS_13TraceableSizeEl
FN:286,298,_ZNK5neml210TensorBaseINS_11MillerIndexEE12batch_expandERKNS_13TraceableSizeEl
FN:286,298,_ZNK5neml210TensorBaseINS_2R2EE12batch_expandERKNS_13TraceableSizeEl
FN:286,298,_ZNK5neml210TensorBaseINS_2R3EE12batch_expandERKNS_13TraceableSizeEl
FN:286,298,_ZNK5neml210TensorBaseINS_2R4EE12batch_expandERKNS_13TraceableSizeEl
FN:286,298,_ZNK5neml210TensorBaseINS_2R5EE12batch_expandERKNS_13TraceableSizeEl
FN:286,298,_ZNK5neml210TensorBaseINS_2R8EE12batch_expandERKNS_13TraceableSizeEl
FN:286,298,_ZNK5neml210TensorBaseINS_3RotEE12batch_expandERKNS_13TraceableSizeEl
FN:286,298,_ZNK5neml210TensorBaseINS_3SR2EE12batch_expandERKNS_13TraceableSizeEl
FN:286,298,_ZNK5neml210TensorBaseINS_3VecEE12batch_expandERKNS_13TraceableSizeEl
FN:286,298,_ZNK5neml210TensorBaseINS_3WR2EE12batch_expandERKNS_13TraceableSizeEl
FN:286,298,_ZNK5neml210TensorBaseINS_4SFR3EE12batch_expandERKNS_13TraceableSizeEl
FN:286,298,_ZNK5neml210TensorBaseINS_4SSR4EE12batch_expandERKNS_13TraceableSizeEl
FN:286,298,_ZNK5neml210TensorBaseINS_4SWR4EE12batch_expandERKNS_13TraceableSizeEl
FN:286,298,_ZNK5neml210TensorBaseINS_4WSR4EE12batch_expandERKNS_13TraceableSizeEl
FN:286,298,_ZNK5neml210TensorBaseINS_4WWR4EE12batch_expandERKNS_13TraceableSizeEl
FN:286,298,_ZNK5neml210TensorBaseINS_5SFFR4EE12batch_expandERKNS_13TraceableSizeEl
FN:286,298,_ZNK5neml210TensorBaseINS_5SSFR5EE12batch_expandERKNS_13TraceableSizeEl
FN:286,298,_ZNK5neml210TensorBaseINS_6SSSSR8EE12batch_expandERKNS_13TraceableSizeEl
FN:286,298,_ZNK5neml210TensorBaseINS_6ScalarEE12batch_expandERKNS_13TraceableSizeEl
FN:286,298,_ZNK5neml210TensorBaseINS_6TensorEE12batch_expandERKNS_13TraceableSizeEl
FN:302,311,_ZNK5neml210TensorBaseINS_10QuaternionEE11base_expandEN3c108ArrayRefIlEE
FN:302,311,_ZNK5neml210TensorBaseINS_11MillerIndexEE11base_expandEN3c108ArrayRefIlEE
FN:302,311,_ZNK5neml210TensorBaseINS_2R2EE11base_expandEN3c108ArrayRefIlEE
FN:302,311,_ZNK5neml210TensorBaseINS_2R3EE11base_expandEN3c108ArrayRefIlEE
FN:302,311,_ZNK5neml210TensorBaseINS_2R4EE11base_expandEN3c108ArrayRefIlEE
FN:302,311,_ZNK5neml210TensorBaseINS_2R5EE11base_expandEN3c108ArrayRefIlEE
FN:302,311,_ZNK5neml210TensorBaseINS_2R8EE11base_expandEN3c108ArrayRefIlEE
FN:302,311,_ZNK5neml210TensorBaseINS_3RotEE11base_expandEN3c108ArrayRefIlEE
FN:302,311,_ZNK5neml210TensorBaseINS_3SR2EE11base_expandEN3c108ArrayRefIlEE
FN:302,311,_ZNK5neml210TensorBaseINS_3VecEE11base_expandEN3c108ArrayRefIlEE
FN:302,311,_ZNK5neml210TensorBaseINS_3WR2EE11base_expandEN3c108ArrayRefIlEE
FN:302,311,_ZNK5neml210TensorBaseINS_4SFR3EE11base_expandEN3c108ArrayRefIlEE
FN:302,311,_ZNK5neml210TensorBaseINS_4SSR4EE11base_expandEN3c108ArrayRefIlEE
FN:302,311,_ZNK5neml210TensorBaseINS_4SWR4EE11base_expandEN3c108ArrayRefIlEE
FN:302,311,_ZNK5neml210TensorBaseINS_4WSR4EE11base_expandEN3c108ArrayRefIlEE
FN:302,311,_ZNK5neml210TensorBaseINS_4WWR4EE11base_expandEN3c108ArrayRefIlEE
FN:302,311,_ZNK5neml210TensorBaseINS_5SFFR4EE11base_expandEN3c108ArrayRefIlEE
FN:302,311,_ZNK5neml210TensorBaseINS_5SSFR5EE11base_expandEN3c108ArrayRefIlEE
FN:302,311,_ZNK5neml210TensorBaseINS_6SSSSR8EE11base_expandEN3c108ArrayRefIlEE
FN:302,311,_ZNK5neml210TensorBaseINS_6ScalarEE11base_expandEN3c108ArrayRefIlEE
FN:302,311,_ZNK5neml210TensorBaseINS_6TensorEE11base_expandEN3c108ArrayRefIlEE
FN:315,325,_ZNK5neml210TensorBaseINS_10QuaternionEE11base_expandEll
FN:315,325,_ZNK5neml210TensorBaseINS_11MillerIndexEE11base_expandEll
FN:315,325,_ZNK5neml210TensorBaseINS_2R2EE11base_expandEll
FN:315,325,_ZNK5neml210TensorBaseINS_2R3EE11base_expandEll
FN:315,325,_ZNK5neml210TensorBaseINS_2R4EE11base_expandEll
FN:315,325,_ZNK5neml210TensorBaseINS_2R5EE11base_expandEll
FN:315,325,_ZNK5neml210TensorBaseINS_2R8EE11base_expandEll
FN:315,325,_ZNK5neml210TensorBaseINS_3RotEE11base_expandEll
FN:315,325,_ZNK5neml210TensorBaseINS_3SR2EE11base_expandEll
FN:315,325,_ZNK5neml210TensorBaseINS_3VecEE11base_expandEll
FN:315,325,_ZNK5neml210TensorBaseINS_3WR2EE11base_expandEll
FN:315,325,_ZNK5neml210TensorBaseINS_4SFR3EE11base_expandEll
FN:315,325,_ZNK5neml210TensorBaseINS_4SSR4EE11base_expandEll
FN:315,325,_ZNK5neml210TensorBaseINS_4SWR4EE11base_expandEll
FN:315,325,_ZNK5neml210TensorBaseINS_4WSR4EE11base_expandEll
FN:315,325,_ZNK5neml210TensorBaseINS_4WWR4EE11base_expandEll
FN:315,325,_ZNK5neml210TensorBaseINS_5SFFR4EE11base_expandEll
FN:315,325,_ZNK5neml210TensorBaseINS_5SSFR5EE11base_expandEll
FN:315,325,_ZNK5neml210TensorBaseINS_6SSSSR8EE11base_expandEll
FN:315,325,_ZNK5neml210TensorBaseINS_6ScalarEE11base_expandEll
FN:315,325,_ZNK5neml210TensorBaseINS_6TensorEE11base_expandEll
FN:329,332,_ZNK5neml210TensorBaseINS_10QuaternionEE17batch_expand_copyERKNS_20TraceableTensorShapeE
FN:329,332,_ZNK5neml210TensorBaseINS_11MillerIndexEE17batch_expand_copyERKNS_20TraceableTensorShapeE
FN:329,332,_ZNK5neml210TensorBaseINS_2R2EE17batch_expand_copyERKNS_20TraceableTensorShapeE
FN:329,332,_ZNK5neml210TensorBaseINS_2R3EE17batch_expand_copyERKNS_20TraceableTensorShapeE
FN:329,332,_ZNK5neml210TensorBaseINS_2R4EE17batch_expand_copyERKNS_20TraceableTensorShapeE
FN:329,332,_ZNK5neml210TensorBaseINS_2R5EE17batch_expand_copyERKNS_20TraceableTensorShapeE
FN:329,332,_ZNK5neml210TensorBaseINS_2R8EE17batch_expand_copyERKNS_20TraceableTensorShapeE
FN:329,332,_ZNK5neml210TensorBaseINS_3RotEE17batch_expand_copyERKNS_20TraceableTensorShapeE
FN:329,332,_ZNK5neml210TensorBaseINS_3SR2EE17batch_expand_copyERKNS_20TraceableTensorShapeE
FN:329,332,_ZNK5neml210TensorBaseINS_3VecEE17batch_expand_copyERKNS_20TraceableTensorShapeE
FN:329,332,_ZNK5neml210TensorBaseINS_3WR2EE17batch_expand_copyERKNS_20TraceableTensorShapeE
FN:329,332,_ZNK5neml210TensorBaseINS_4SFR3EE17batch_expand_copyERKNS_20TraceableTensorShapeE
FN:329,332,_ZNK5neml210TensorBaseINS_4SSR4EE17batch_expand_copyERKNS_20TraceableTensorShapeE
FN:329,332,_ZNK5neml210TensorBaseINS_4SWR4EE17batch_expand_copyERKNS_20TraceableTensorShapeE
FN:329,332,_ZNK5neml210TensorBaseINS_4WSR4EE17batch_expand_copyERKNS_20TraceableTensorShapeE
FN:329,332,_ZNK5neml210TensorBaseINS_4WWR4EE17batch_expand_copyERKNS_20TraceableTensorShapeE
FN:329,332,_ZNK5neml210TensorBaseINS_5SFFR4EE17batch_expand_copyERKNS_20TraceableTensorShapeE
FN:329,332,_ZNK5neml210TensorBaseINS_5SSFR5EE17batch_expand_copyERKNS_20TraceableTensorShapeE
FN:329,332,_ZNK5neml210TensorBaseINS_6SSSSR8EE17batch_expand_copyERKNS_20TraceableTensorShapeE
FN:329,332,_ZNK5neml210TensorBaseINS_6ScalarEE17batch_expand_copyERKNS_20TraceableTensorShapeE
FN:329,332,_ZNK5neml210TensorBaseINS_6TensorEE17batch_expand_copyERKNS_20TraceableTensorShapeE
FN:33,43,_ZN5neml210TensorBaseINS_10QuaternionEEC2ERKN2at6TensorEl
FN:33,43,_ZN5neml210TensorBaseINS_11MillerIndexEEC2ERKN2at6TensorEl
FN:33,43,_ZN5neml210TensorBaseINS_2R2EEC2ERKN2at6TensorEl
FN:33,43,_ZN5neml210TensorBaseINS_2R3EEC2ERKN2at6TensorEl
FN:33,43,_ZN5neml210TensorBaseINS_2R4EEC2ERKN2at6TensorEl
FN:33,43,_ZN5neml210TensorBaseINS_2R5EEC2ERKN2at6TensorEl
FN:33,43,_ZN5neml210TensorBaseINS_2R8EEC2ERKN2at6TensorEl
FN:33,43,_ZN5neml210TensorBaseINS_3RotEEC2ERKN2at6TensorEl
FN:33,43,_ZN5neml210TensorBaseINS_3SR2EEC2ERKN2at6TensorEl
FN:33,43,_ZN5neml210TensorBaseINS_3VecEEC2ERKN2at6TensorEl
FN:33,43,_ZN5neml210TensorBaseINS_3WR2EEC2ERKN2at6TensorEl
FN:33,43,_ZN5neml210TensorBaseINS_4SFR3EEC2ERKN2at6TensorEl
FN:33,43,_ZN5neml210TensorBaseINS_4SSR4EEC2ERKN2at6TensorEl
FN:33,43,_ZN5neml210TensorBaseINS_4SWR4EEC2ERKN2at6TensorEl
FN:33,43,_ZN5neml210TensorBaseINS_4WSR4EEC2ERKN2at6TensorEl
FN:33,43,_ZN5neml210TensorBaseINS_4WWR4EEC2ERKN2at6TensorEl
FN:33,43,_ZN5neml210TensorBaseINS_5SFFR4EEC2ERKN2at6TensorEl
FN:33,43,_ZN5neml210TensorBaseINS_5SSFR5EEC2ERKN2at6TensorEl
FN:33,43,_ZN5neml210TensorBaseINS_6SSSSR8EEC2ERKN2at6TensorEl
FN:33,43,_ZN5neml210TensorBaseINS_6ScalarEEC2ERKN2at6TensorEl
FN:33,43,_ZN5neml210TensorBaseINS_6TensorEEC2ERKN2at6TensorEl
FN:336,339,_ZNK5neml210TensorBaseINS_10QuaternionEE16base_expand_copyEN3c108ArrayRefIlEE
FN:336,339,_ZNK5neml210TensorBaseINS_11MillerIndexEE16base_expand_copyEN3c108ArrayRefIlEE
FN:336,339,_ZNK5neml210TensorBaseINS_2R2EE16base_expand_copyEN3c108ArrayRefIlEE
FN:336,339,_ZNK5neml210TensorBaseINS_2R3EE16base_expand_copyEN3c108ArrayRefIlEE
FN:336,339,_ZNK5neml210TensorBaseINS_2R4EE16base_expand_copyEN3c108ArrayRefIlEE
FN:336,339,_ZNK5neml210TensorBaseINS_2R5EE16base_expand_copyEN3c108ArrayRefIlEE
FN:336,339,_ZNK5neml210TensorBaseINS_2R8EE16base_expand_copyEN3c108ArrayRefIlEE
FN:336,339,_ZNK5neml210TensorBaseINS_3RotEE16base_expand_copyEN3c108ArrayRefIlEE
FN:336,339,_ZNK5neml210TensorBaseINS_3SR2EE16base_expand_copyEN3c108ArrayRefIlEE
FN:336,339,_ZNK5neml210TensorBaseINS_3VecEE16base_expand_copyEN3c108ArrayRefIlEE
FN:336,339,_ZNK5neml210TensorBaseINS_3WR2EE16base_expand_copyEN3c108ArrayRefIlEE
FN:336,339,_ZNK5neml210TensorBaseINS_4SFR3EE16base_expand_copyEN3c108ArrayRefIlEE
FN:336,339,_ZNK5neml210TensorBaseINS_4SSR4EE16base_expand_copyEN3c108ArrayRefIlEE
FN:336,339,_ZNK5neml210TensorBaseINS_4SWR4EE16base_expand_copyEN3c108ArrayRefIlEE
FN:336,339,_ZNK5neml210TensorBaseINS_4WSR4EE16base_expand_copyEN3c108ArrayRefIlEE
FN:336,339,_ZNK5neml210TensorBaseINS_4WWR4EE16base_expand_copyEN3c108ArrayRefIlEE
FN:336,339,_ZNK5neml210TensorBaseINS_5SFFR4EE16base_expand_copyEN3c108ArrayRefIlEE
FN:336,339,_ZNK5neml210TensorBaseINS_5SSFR5EE16base_expand_copyEN3c108ArrayRefIlEE
FN:336,339,_ZNK5neml210TensorBaseINS_6SSSSR8EE16base_expand_copyEN3c108ArrayRefIlEE
FN:336,339,_ZNK5neml210TensorBaseINS_6ScalarEE16base_expand_copyEN3c108ArrayRefIlEE
FN:336,339,_ZNK5neml210TensorBaseINS_6TensorEE16base_expand_copyEN3c108ArrayRefIlEE
FN:343,352,_ZNK5neml210TensorBaseINS_10QuaternionEE13batch_reshapeERKNS_20TraceableTensorShapeE
FN:343,352,_ZNK5neml210TensorBaseINS_11MillerIndexEE13batch_reshapeERKNS_20TraceableTensorShapeE
FN:343,352,_ZNK5neml210TensorBaseINS_2R2EE13batch_reshapeERKNS_20TraceableTensorShapeE
FN:343,352,_ZNK5neml210TensorBaseINS_2R3EE13batch_reshapeERKNS_20TraceableTensorShapeE
FN:343,352,_ZNK5neml210TensorBaseINS_2R4EE13batch_reshapeERKNS_20TraceableTensorShapeE
FN:343,352,_ZNK5neml210TensorBaseINS_2R5EE13batch_reshapeERKNS_20TraceableTensorShapeE
FN:343,352,_ZNK5neml210TensorBaseINS_2R8EE13batch_reshapeERKNS_20TraceableTensorShapeE
FN:343,352,_ZNK5neml210TensorBaseINS_3RotEE13batch_reshapeERKNS_20TraceableTensorShapeE
FN:343,352,_ZNK5neml210TensorBaseINS_3SR2EE13batch_reshapeERKNS_20TraceableTensorShapeE
FN:343,352,_ZNK5neml210TensorBaseINS_3VecEE13batch_reshapeERKNS_20TraceableTensorShapeE
FN:343,352,_ZNK5neml210TensorBaseINS_3WR2EE13batch_reshapeERKNS_20TraceableTensorShapeE
FN:343,352,_ZNK5neml210TensorBaseINS_4SFR3EE13batch_reshapeERKNS_20TraceableTensorShapeE
FN:343,352,_ZNK5neml210TensorBaseINS_4SSR4EE13batch_reshapeERKNS_20TraceableTensorShapeE
FN:343,352,_ZNK5neml210TensorBaseINS_4SWR4EE13batch_reshapeERKNS_20TraceableTensorShapeE
FN:343,352,_ZNK5neml210TensorBaseINS_4WSR4EE13batch_reshapeERKNS_20TraceableTensorShapeE
FN:343,352,_ZNK5neml210TensorBaseINS_4WWR4EE13batch_reshapeERKNS_20TraceableTensorShapeE
FN:343,352,_ZNK5neml210TensorBaseINS_5SFFR4EE13batch_reshapeERKNS_20TraceableTensorShapeE
FN:343,352,_ZNK5neml210TensorBaseINS_5SSFR5EE13batch_reshapeERKNS_20TraceableTensorShapeE
FN:343,352,_ZNK5neml210TensorBaseINS_6SSSSR8EE13batch_reshapeERKNS_20TraceableTensorShapeE
FN:343,352,_ZNK5neml210TensorBaseINS_6ScalarEE13batch_reshapeERKNS_20TraceableTensorShapeE
FN:343,352,_ZNK5neml210TensorBaseINS_6TensorEE13batch_reshapeERKNS_20TraceableTensorShapeE
FN:356,368,_ZNK5neml210TensorBaseINS_10QuaternionEE12base_reshapeEN3c108ArrayRefIlEE
FN:356,368,_ZNK5neml210TensorBaseINS_11MillerIndexEE12base_reshapeEN3c108ArrayRefIlEE
FN:356,368,_ZNK5neml210TensorBaseINS_2R2EE12base_reshapeEN3c108ArrayRefIlEE
FN:356,368,_ZNK5neml210TensorBaseINS_2R3EE12base_reshapeEN3c108ArrayRefIlEE
FN:356,368,_ZNK5neml210TensorBaseINS_2R4EE12base_reshapeEN3c108ArrayRefIlEE
FN:356,368,_ZNK5neml210TensorBaseINS_2R5EE12base_reshapeEN3c108ArrayRefIlEE
FN:356,368,_ZNK5neml210TensorBaseINS_2R8EE12base_reshapeEN3c108ArrayRefIlEE
FN:356,368,_ZNK5neml210TensorBaseINS_3RotEE12base_reshapeEN3c108ArrayRefIlEE
FN:356,368,_ZNK5neml210TensorBaseINS_3SR2EE12base_reshapeEN3c108ArrayRefIlEE
FN:356,368,_ZNK5neml210TensorBaseINS_3VecEE12base_reshapeEN3c108ArrayRefIlEE
FN:356,368,_ZNK5neml210TensorBaseINS_3WR2EE12base_reshapeEN3c108ArrayRefIlEE
FN:356,368,_ZNK5neml210TensorBaseINS_4SFR3EE12base_reshapeEN3c108ArrayRefIlEE
FN:356,368,_ZNK5neml210TensorBaseINS_4SSR4EE12base_reshapeEN3c108ArrayRefIlEE
FN:356,368,_ZNK5neml210TensorBaseINS_4SWR4EE12base_reshapeEN3c108ArrayRefIlEE
FN:356,368,_ZNK5neml210TensorBaseINS_4WSR4EE12base_reshapeEN3c108ArrayRefIlEE
FN:356,368,_ZNK5neml210TensorBaseINS_4WWR4EE12base_reshapeEN3c108ArrayRefIlEE
FN:356,368,_ZNK5neml210TensorBaseINS_5SFFR4EE12base_reshapeEN3c108ArrayRefIlEE
FN:356,368,_ZNK5neml210TensorBaseINS_5SSFR5EE12base_reshapeEN3c108ArrayRefIlEE
FN:356,368,_ZNK5neml210TensorBaseINS_6SSSSR8EE12base_reshapeEN3c108ArrayRefIlEE
FN:356,368,_ZNK5neml210TensorBaseINS_6ScalarEE12base_reshapeEN3c108ArrayRefIlEE
FN:356,368,_ZNK5neml210TensorBaseINS_6TensorEE12base_reshapeEN3c108ArrayRefIlEE
FN:372,376,_ZNK5neml210TensorBaseINS_10QuaternionEE15batch_unsqueezeEl
FN:372,376,_ZNK5neml210TensorBaseINS_11MillerIndexEE15batch_unsqueezeEl
FN:372,376,_ZNK5neml210TensorBaseINS_2R2EE15batch_unsqueezeEl
FN:372,376,_ZNK5neml210TensorBaseINS_2R3EE15batch_unsqueezeEl
FN:372,376,_ZNK5neml210TensorBaseINS_2R4EE15batch_unsqueezeEl
FN:372,376,_ZNK5neml210TensorBaseINS_2R5EE15batch_unsqueezeEl
FN:372,376,_ZNK5neml210TensorBaseINS_2R8EE15batch_unsqueezeEl
FN:372,376,_ZNK5neml210TensorBaseINS_3RotEE15batch_unsqueezeEl
FN:372,376,_ZNK5neml210TensorBaseINS_3SR2EE15batch_unsqueezeEl
FN:372,376,_ZNK5neml210TensorBaseINS_3VecEE15batch_unsqueezeEl
FN:372,376,_ZNK5neml210TensorBaseINS_3WR2EE15batch_unsqueezeEl
FN:372,376,_ZNK5neml210TensorBaseINS_4SFR3EE15batch_unsqueezeEl
FN:372,376,_ZNK5neml210TensorBaseINS_4SSR4EE15batch_unsqueezeEl
FN:372,376,_ZNK5neml210TensorBaseINS_4SWR4EE15batch_unsqueezeEl
FN:372,376,_ZNK5neml210TensorBaseINS_4WSR4EE15batch_unsqueezeEl
FN:372,376,_ZNK5neml210TensorBaseINS_4WWR4EE15batch_unsqueezeEl
FN:372,376,_ZNK5neml210TensorBaseINS_5SFFR4EE15batch_unsqueezeEl
FN:372,376,_ZNK5neml210TensorBaseINS_5SSFR5EE15batch_unsqueezeEl
FN:372,376,_ZNK5neml210TensorBaseINS_6SSSSR8EE15batch_unsqueezeEl
FN:372,376,_ZNK5neml210TensorBaseINS_6ScalarEE15batch_unsqueezeEl
FN:372,376,_ZNK5neml210TensorBaseINS_6TensorEE15batch_unsqueezeEl
FN:380,384,_ZNK5neml210TensorBaseINS_10QuaternionEE14base_unsqueezeEl
FN:380,384,_ZNK5neml210TensorBaseINS_11MillerIndexEE14base_unsqueezeEl
FN:380,384,_ZNK5neml210TensorBaseINS_2R2EE14base_unsqueezeEl
FN:380,384,_ZNK5neml210TensorBaseINS_2R3EE14base_unsqueezeEl
FN:380,384,_ZNK5neml210TensorBaseINS_2R4EE14base_unsqueezeEl
FN:380,384,_ZNK5neml210TensorBaseINS_2R5EE14base_unsqueezeEl
FN:380,384,_ZNK5neml210TensorBaseINS_2R8EE14base_unsqueezeEl
FN:380,384,_ZNK5neml210TensorBaseINS_3RotEE14base_unsqueezeEl
FN:380,384,_ZNK5neml210TensorBaseINS_3SR2EE14base_unsqueezeEl
FN:380,384,_ZNK5neml210TensorBaseINS_3VecEE14base_unsqueezeEl
FN:380,384,_ZNK5neml210TensorBaseINS_3WR2EE14base_unsqueezeEl
FN:380,384,_ZNK5neml210TensorBaseINS_4SFR3EE14base_unsqueezeEl
FN:380,384,_ZNK5neml210TensorBaseINS_4SSR4EE14base_unsqueezeEl
FN:380,384,_ZNK5neml210TensorBaseINS_4SWR4EE14base_unsqueezeEl
FN:380,384,_ZNK5neml210TensorBaseINS_4WSR4EE14base_unsqueezeEl
FN:380,384,_ZNK5neml210TensorBaseINS_4WWR4EE14base_unsqueezeEl
FN:380,384,_ZNK5neml210TensorBaseINS_5SFFR4EE14base_unsqueezeEl
FN:380,384,_ZNK5neml210TensorBaseINS_5SSFR5EE14base_unsqueezeEl
FN:380,384,_ZNK5neml210TensorBaseINS_6SSSSR8EE14base_unsqueezeEl
FN:380,384,_ZNK5neml210TensorBaseINS_6ScalarEE14base_unsqueezeEl
FN:380,384,_ZNK5neml210TensorBaseINS_6TensorEE14base_unsqueezeEl
FN:388,393,_ZNK5neml210TensorBaseINS_10QuaternionEE15batch_transposeEll
FN:388,393,_ZNK5neml210TensorBaseINS_11MillerIndexEE15batch_transposeEll
FN:388,393,_ZNK5neml210TensorBaseINS_2R2EE15batch_transposeEll
FN:388,393,_ZNK5neml210TensorBaseINS_2R3EE15batch_transposeEll
FN:388,393,_ZNK5neml210TensorBaseINS_2R4EE15batch_transposeEll
FN:388,393,_ZNK5neml210TensorBaseINS_2R5EE15batch_transposeEll
FN:388,393,_ZNK5neml210TensorBaseINS_2R8EE15batch_transposeEll
FN:388,393,_ZNK5neml210TensorBaseINS_3RotEE15batch_transposeEll
FN:388,393,_ZNK5neml210TensorBaseINS_3SR2EE15batch_transposeEll
FN:388,393,_ZNK5neml210TensorBaseINS_3VecEE15batch_transposeEll
FN:388,393,_ZNK5neml210TensorBaseINS_3WR2EE15batch_transposeEll
FN:388,393,_ZNK5neml210TensorBaseINS_4SFR3EE15batch_transposeEll
FN:388,393,_ZNK5neml210TensorBaseINS_4SSR4EE15batch_transposeEll
FN:388,393,_ZNK5neml210TensorBaseINS_4SWR4EE15batch_transposeEll
FN:388,393,_ZNK5neml210TensorBaseINS_4WSR4EE15batch_transposeEll
FN:388,393,_ZNK5neml210TensorBaseINS_4WWR4EE15batch_transposeEll
FN:388,393,_ZNK5neml210TensorBaseINS_5SFFR4EE15batch_transposeEll
FN:388,393,_ZNK5neml210TensorBaseINS_5SSFR5EE15batch_transposeEll
FN:388,393,_ZNK5neml210TensorBaseINS_6SSSSR8EE15batch_transposeEll
FN:388,393,_ZNK5neml210TensorBaseINS_6ScalarEE15batch_transposeEll
FN:388,393,_ZNK5neml210TensorBaseINS_6TensorEE15batch_transposeEll
FN:397,402,_ZNK5neml210TensorBaseINS_10QuaternionEE14base_transposeEll
FN:397,402,_ZNK5neml210TensorBaseINS_11MillerIndexEE14base_transposeEll
FN:397,402,_ZNK5neml210TensorBaseINS_2R2EE14base_transposeEll
FN:397,402,_ZNK5neml210TensorBaseINS_2R3EE14base_transposeEll
FN:397,402,_ZNK5neml210TensorBaseINS_2R4EE14base_transposeEll
FN:397,402,_ZNK5neml210TensorBaseINS_2R5EE14base_transposeEll
FN:397,402,_ZNK5neml210TensorBaseINS_2R8EE14base_transposeEll
FN:397,402,_ZNK5neml210TensorBaseINS_3RotEE14base_transposeEll
FN:397,402,_ZNK5neml210TensorBaseINS_3SR2EE14base_transposeEll
FN:397,402,_ZNK5neml210TensorBaseINS_3VecEE14base_transposeEll
FN:397,402,_ZNK5neml210TensorBaseINS_3WR2EE14base_transposeEll
FN:397,402,_ZNK5neml210TensorBaseINS_4SFR3EE14base_transposeEll
FN:397,402,_ZNK5neml210TensorBaseINS_4SSR4EE14base_transposeEll
FN:397,402,_ZNK5neml210TensorBaseINS_4SWR4EE14base_transposeEll
FN:397,402,_ZNK5neml210TensorBaseINS_4WSR4EE14base_transposeEll
FN:397,402,_ZNK5neml210TensorBaseINS_4WWR4EE14base_transposeEll
FN:397,402,_ZNK5neml210TensorBaseINS_5SFFR4EE14base_transposeEll
FN:397,402,_ZNK5neml210TensorBaseINS_5SSFR5EE14base_transposeEll
FN:397,402,_ZNK5neml210TensorBaseINS_6SSSSR8EE14base_transposeEll
FN:397,402,_ZNK5neml210TensorBaseINS_6ScalarEE14base_transposeEll
FN:397,402,_ZNK5neml210TensorBaseINS_6TensorEE14base_transposeEll
FN:406,412,_ZNK5neml210TensorBaseINS_10QuaternionEE12base_flattenEv
FN:406,412,_ZNK5neml210TensorBaseINS_11MillerIndexEE12base_flattenEv
FN:406,412,_ZNK5neml210TensorBaseINS_2R2EE12base_flattenEv
FN:406,412,_ZNK5neml210TensorBaseINS_2R3EE12base_flattenEv
FN:406,412,_ZNK5neml210TensorBaseINS_2R4EE12base_flattenEv
FN:406,412,_ZNK5neml210TensorBaseINS_2R5EE12base_flattenEv
FN:406,412,_ZNK5neml210TensorBaseINS_2R8EE12base_flattenEv
FN:406,412,_ZNK5neml210TensorBaseINS_3RotEE12base_flattenEv
FN:406,412,_ZNK5neml210TensorBaseINS_3SR2EE12base_flattenEv
FN:406,412,_ZNK5neml210TensorBaseINS_3VecEE12base_flattenEv
FN:406,412,_ZNK5neml210TensorBaseINS_3WR2EE12base_flattenEv
FN:406,412,_ZNK5neml210TensorBaseINS_4SFR3EE12base_flattenEv
FN:406,412,_ZNK5neml210TensorBaseINS_4SSR4EE12base_flattenEv
FN:406,412,_ZNK5neml210TensorBaseINS_4SWR4EE12base_flattenEv
FN:406,412,_ZNK5neml210TensorBaseINS_4WSR4EE12base_flattenEv
FN:406,412,_ZNK5neml210TensorBaseINS_4WWR4EE12base_flattenEv
FN:406,412,_ZNK5neml210TensorBaseINS_5SFFR4EE12base_flattenEv
FN:406,412,_ZNK5neml210TensorBaseINS_5SSFR5EE12base_flattenEv
FN:406,412,_ZNK5neml210TensorBaseINS_6SSSSR8EE12base_flattenEv
FN:406,412,_ZNK5neml210TensorBaseINS_6ScalarEE12base_flattenEv
FN:406,412,_ZNK5neml210TensorBaseINS_6TensorEE12base_flattenEv
FN:416,419,_ZNK5neml210TensorBaseINS_10QuaternionEEngEv
FN:416,419,_ZNK5neml210TensorBaseINS_11MillerIndexEEngEv
FN:416,419,_ZNK5neml210TensorBaseINS_2R2EEngEv
FN:416,419,_ZNK5neml210TensorBaseINS_2R3EEngEv
FN:416,419,_ZNK5neml210TensorBaseINS_2R4EEngEv
FN:416,419,_ZNK5neml210TensorBaseINS_2R5EEngEv
FN:416,419,_ZNK5neml210TensorBaseINS_2R8EEngEv
FN:416,419,_ZNK5neml210TensorBaseINS_3RotEEngEv
FN:416,419,_ZNK5neml210TensorBaseINS_3SR2EEngEv
FN:416,419,_ZNK5neml210TensorBaseINS_3VecEEngEv
FN:416,419,_ZNK5neml210TensorBaseINS_3WR2EEngEv
FN:416,419,_ZNK5neml210TensorBaseINS_4SFR3EEngEv
FN:416,419,_ZNK5neml210TensorBaseINS_4SSR4EEngEv
FN:416,419,_ZNK5neml210TensorBaseINS_4SWR4EEngEv
FN:416,419,_ZNK5neml210TensorBaseINS_4WSR4EEngEv
FN:416,419,_ZNK5neml210TensorBaseINS_4WWR4EEngEv
FN:416,419,_ZNK5neml210TensorBaseINS_5SFFR4EEngEv
FN:416,419,_ZNK5neml210TensorBaseINS_5SSFR5EEngEv
FN:416,419,_ZNK5neml210TensorBaseINS_6SSSSR8EEngEv
FN:416,419,_ZNK5neml210TensorBaseINS_6ScalarEEngEv
FN:416,419,_ZNK5neml210TensorBaseINS_6TensorEEngEv
FN:46,57,_ZN5neml210TensorBaseINS_10QuaternionEEC2ERKN2at6TensorERKNS_20TraceableTensorShapeE
FN:46,57,_ZN5neml210TensorBaseINS_11MillerIndexEEC2ERKN2at6TensorERKNS_20TraceableTensorShapeE
FN:46,57,_ZN5neml210TensorBaseINS_2R2EEC2ERKN2at6TensorERKNS_20TraceableTensorShapeE
FN:46,57,_ZN5neml210TensorBaseINS_2R3EEC2ERKN2at6TensorERKNS_20TraceableTensorShapeE
FN:46,57,_ZN5neml210TensorBaseINS_2R4EEC2ERKN2at6TensorERKNS_20TraceableTensorShapeE
FN:46,57,_ZN5neml210TensorBaseINS_2R5EEC2ERKN2at6TensorERKNS_20TraceableTensorShapeE
FN:46,57,_ZN5neml210TensorBaseINS_2R8EEC2ERKN2at6TensorERKNS_20TraceableTensorShapeE
FN:46,57,_ZN5neml210TensorBaseINS_3RotEEC2ERKN2at6TensorERKNS_20TraceableTensorShapeE
FN:46,57,_ZN5neml210TensorBaseINS_3SR2EEC2ERKN2at6TensorERKNS_20TraceableTensorShapeE
FN:46,57,_ZN5neml210TensorBaseINS_3VecEEC2ERKN2at6TensorERKNS_20TraceableTensorShapeE
FN:46,57,_ZN5neml210TensorBaseINS_3WR2EEC2ERKN2at6TensorERKNS_20TraceableTensorShapeE
FN:46,57,_ZN5neml210TensorBaseINS_4SFR3EEC2ERKN2at6TensorERKNS_20TraceableTensorShapeE
FN:46,57,_ZN5neml210TensorBaseINS_4SSR4EEC2ERKN2at6TensorERKNS_20TraceableTensorShapeE
FN:46,57,_ZN5neml210TensorBaseINS_4SWR4EEC2ERKN2at6TensorERKNS_20TraceableTensorShapeE
FN:46,57,_ZN5neml210TensorBaseINS_4WSR4EEC2ERKN2at6TensorERKNS_20TraceableTensorShapeE
FN:46,57,_ZN5neml210TensorBaseINS_4WWR4EEC2ERKN2at6TensorERKNS_20TraceableTensorShapeE
FN:46,57,_ZN5neml210TensorBaseINS_5SFFR4EEC2ERKN2at6TensorERKNS_20TraceableTensorShapeE
FN:46,57,_ZN5neml210TensorBaseINS_5SSFR5EEC2ERKN2at6TensorERKNS_20TraceableTensorShapeE
FN:46,57,_ZN5neml210TensorBaseINS_6SSSSR8EEC2ERKN2at6TensorERKNS_20TraceableTensorShapeE
FN:46,57,_ZN5neml210TensorBaseINS_6ScalarEEC2ERKN2at6TensorERKNS_20TraceableTensorShapeE
FN:46,57,_ZN5neml210TensorBaseINS_6TensorEEC2ERKN2at6TensorERKNS_20TraceableTensorShapeE
FN:61,64,_ZN5neml210TensorBaseINS_10QuaternionEE10empty_likeERKS1_
FN:61,64,_ZN5neml210TensorBaseINS_11MillerIndexEE10empty_likeERKS1_
FN:61,64,_ZN5neml210TensorBaseINS_2R2EE10empty_likeERKS1_
FN:61,64,_ZN5neml210TensorBaseINS_2R3EE10empty_likeERKS1_
FN:61,64,_ZN5neml210TensorBaseINS_2R4EE10empty_likeERKS1_
FN:61,64,_ZN5neml210TensorBaseINS_2R5EE10empty_likeERKS1_
FN:61,64,_ZN5neml210TensorBaseINS_2R8EE10empty_likeERKS1_
FN:61,64,_ZN5neml210TensorBaseINS_3RotEE10empty_likeERKS1_
FN:61,64,_ZN5neml210TensorBaseINS_3SR2EE10empty_likeERKS1_
FN:61,64,_ZN5neml210TensorBaseINS_3VecEE10empty_likeERKS1_
FN:61,64,_ZN5neml210TensorBaseINS_3WR2EE10empty_likeERKS1_
FN:61,64,_ZN5neml210TensorBaseINS_4SFR3EE10empty_likeERKS1_
FN:61,64,_ZN5neml210TensorBaseINS_4SSR4EE10empty_likeERKS1_
FN:61,64,_ZN5neml210TensorBaseINS_4SWR4EE10empty_likeERKS1_
FN:61,64,_ZN5neml210TensorBaseINS_4WSR4EE10empty_likeERKS1_
FN:61,64,_ZN5neml210TensorBaseINS_4WWR4EE10empty_likeERKS1_
FN:61,64,_ZN5neml210TensorBaseINS_5SFFR4EE10empty_likeERKS1_
FN:61,64,_ZN5neml210TensorBaseINS_5SSFR5EE10empty_likeERKS1_
FN:61,64,_ZN5neml210TensorBaseINS_6SSSSR8EE10empty_likeERKS1_
FN:61,64,_ZN5neml210TensorBaseINS_6ScalarEE10empty_likeERKS1_
FN:61,64,_ZN5neml210TensorBaseINS_6TensorEE10empty_likeERKS1_
FN:68,71,_ZN5neml210TensorBaseINS_10QuaternionEE10zeros_likeERKS1_
FN:68,71,_ZN5neml210TensorBaseINS_11MillerIndexEE10zeros_likeERKS1_
FN:68,71,_ZN5neml210TensorBaseINS_2R2EE10zeros_likeERKS1_
FN:68,71,_ZN5neml210TensorBaseINS_2R3EE10zeros_likeERKS1_
FN:68,71,_ZN5neml210TensorBaseINS_2R4EE10zeros_likeERKS1_
FN:68,71,_ZN5neml210TensorBaseINS_2R5EE10zeros_likeERKS1_
FN:68,71,_ZN5neml210TensorBaseINS_2R8EE10zeros_likeERKS1_
FN:68,71,_ZN5neml210TensorBaseINS_3RotEE10zeros_likeERKS1_
FN:68,71,_ZN5neml210TensorBaseINS_3SR2EE10zeros_likeERKS1_
FN:68,71,_ZN5neml210TensorBaseINS_3VecEE10zeros_likeERKS1_
FN:68,71,_ZN5neml210TensorBaseINS_3WR2EE10zeros_likeERKS1_
FN:68,71,_ZN5neml210TensorBaseINS_4SFR3EE10zeros_likeERKS1_
FN:68,71,_ZN5neml210TensorBaseINS_4SSR4EE10zeros_likeERKS1_
FN:68,71,_ZN5neml210TensorBaseINS_4SWR4EE10zeros_likeERKS1_
FN:68,71,_ZN5neml210TensorBaseINS_4WSR4EE10zeros_likeERKS1_
FN:68,71,_ZN5neml210TensorBaseINS_4WWR4EE10zeros_likeERKS1_
FN:68,71,_ZN5neml210TensorBaseINS_5SFFR4EE10zeros_likeERKS1_
FN:68,71,_ZN5neml210TensorBaseINS_5SSFR5EE10zeros_likeERKS1_
FN:68,71,_ZN5neml210TensorBaseINS_6SSSSR8EE10zeros_likeERKS1_
FN:68,71,_ZN5neml210TensorBaseINS_6ScalarEE10zeros_likeERKS1_
FN:68,71,_ZN5neml210TensorBaseINS_6TensorEE10zeros_likeERKS1_
FN:75,78,_ZN5neml210TensorBaseINS_10QuaternionEE9ones_likeERKS1_
FN:75,78,_ZN5neml210TensorBaseINS_11MillerIndexEE9ones_likeERKS1_
FN:75,78,_ZN5neml210TensorBaseINS_2R2EE9ones_likeERKS1_
FN:75,78,_ZN5neml210TensorBaseINS_2R3EE9ones_likeERKS1_
FN:75,78,_ZN5neml210TensorBaseINS_2R4EE9ones_likeERKS1_
FN:75,78,_ZN5neml210TensorBaseINS_2R5EE9ones_likeERKS1_
FN:75,78,_ZN5neml210TensorBaseINS_2R8EE9ones_likeERKS1_
FN:75,78,_ZN5neml210TensorBaseINS_3RotEE9ones_likeERKS1_
FN:75,78,_ZN5neml210TensorBaseINS_3SR2EE9ones_likeERKS1_
FN:75,78,_ZN5neml210TensorBaseINS_3VecEE9ones_likeERKS1_
FN:75,78,_ZN5neml210TensorBaseINS_3WR2EE9ones_likeERKS1_
FN:75,78,_ZN5neml210TensorBaseINS_4SFR3EE9ones_likeERKS1_
FN:75,78,_ZN5neml210TensorBaseINS_4SSR4EE9ones_likeERKS1_
FN:75,78,_ZN5neml210TensorBaseINS_4SWR4EE9ones_likeERKS1_
FN:75,78,_ZN5neml210TensorBaseINS_4WSR4EE9ones_likeERKS1_
FN:75,78,_ZN5neml210TensorBaseINS_4WWR4EE9ones_likeERKS1_
FN:75,78,_ZN5neml210TensorBaseINS_5SFFR4EE9ones_likeERKS1_
FN:75,78,_ZN5neml210TensorBaseINS_5SSFR5EE9ones_likeERKS1_
FN:75,78,_ZN5neml210TensorBaseINS_6SSSSR8EE9ones_likeERKS1_
FN:75,78,_ZN5neml210TensorBaseINS_6ScalarEE9ones_likeERKS1_
FN:75,78,_ZN5neml210TensorBaseINS_6TensorEE9ones_likeERKS1_
FN:82,85,_ZN5neml210TensorBaseINS_10QuaternionEE9full_likeERKS1_d
FN:82,85,_ZN5neml210TensorBaseINS_11MillerIndexEE9full_likeERKS1_d
FN:82,85,_ZN5neml210TensorBaseINS_2R2EE9full_likeERKS1_d
FN:82,85,_ZN5neml210TensorBaseINS_2R3EE9full_likeERKS1_d
FN:82,85,_ZN5neml210TensorBaseINS_2R4EE9full_likeERKS1_d
FN:82,85,_ZN5neml210TensorBaseINS_2R5EE9full_likeERKS1_d
FN:82,85,_ZN5neml210TensorBaseINS_2R8EE9full_likeERKS1_d
FN:82,85,_ZN5neml210TensorBaseINS_3RotEE9full_likeERKS1_d
FN:82,85,_ZN5neml210TensorBaseINS_3SR2EE9full_likeERKS1_d
FN:82,85,_ZN5neml210TensorBaseINS_3VecEE9full_likeERKS1_d
FN:82,85,_ZN5neml210TensorBaseINS_3WR2EE9full_likeERKS1_d
FN:82,85,_ZN5neml210TensorBaseINS_4SFR3EE9full_likeERKS1_d
FN:82,85,_ZN5neml210TensorBaseINS_4SSR4EE9full_likeERKS1_d
FN:82,85,_ZN5neml210TensorBaseINS_4SWR4EE9full_likeERKS1_d
FN:82,85,_ZN5neml210TensorBaseINS_4WSR4EE9full_likeERKS1_d
FN:82,85,_ZN5neml210TensorBaseINS_4WWR4EE9full_likeERKS1_d
FN:82,85,_ZN5neml210TensorBaseINS_5SFFR4EE9full_likeERKS1_d
FN:82,85,_ZN5neml210TensorBaseINS_5SSFR5EE9full_likeERKS1_d
FN:82,85,_ZN5neml210TensorBaseINS_6SSSSR8EE9full_likeERKS1_d
FN:82,85,_ZN5neml210TensorBaseINS_6ScalarEE9full_likeERKS1_d
FN:82,85,_ZN5neml210TensorBaseINS_6TensorEE9full_likeERKS1_d
FN:89,110,_ZN5neml210TensorBaseINS_10QuaternionEE8linspaceERKS1_S4_ll
FN:89,110,_ZN5neml210TensorBaseINS_11MillerIndexEE8linspaceERKS1_S4_ll
FN:89,110,_ZN5neml210TensorBaseINS_2R2EE8linspaceERKS1_S4_ll
FN:89,110,_ZN5neml210TensorBaseINS_2R3EE8linspaceERKS1_S4_ll
FN:89,110,_ZN5neml210TensorBaseINS_2R4EE8linspaceERKS1_S4_ll
FN:89,110,_ZN5neml210TensorBaseINS_2R5EE8linspaceERKS1_S4_ll
FN:89,110,_ZN5neml210TensorBaseINS_2R8EE8linspaceERKS1_S4_ll
FN:89,110,_ZN5neml210TensorBaseINS_3RotEE8linspaceERKS1_S4_ll
FN:89,110,_ZN5neml210TensorBaseINS_3SR2EE8linspaceERKS1_S4_ll
FN:89,110,_ZN5neml210TensorBaseINS_3VecEE8linspaceERKS1_S4_ll
FN:89,110,_ZN5neml210TensorBaseINS_3WR2EE8linspaceERKS1_S4_ll
FN:89,110,_ZN5neml210TensorBaseINS_4SFR3EE8linspaceERKS1_S4_ll
FN:89,110,_ZN5neml210TensorBaseINS_4SSR4EE8linspaceERKS1_S4_ll
FN:89,110,_ZN5neml210TensorBaseINS_4SWR4EE8linspaceERKS1_S4_ll
FN:89,110,_ZN5neml210TensorBaseINS_4WSR4EE8linspaceERKS1_S4_ll
FN:89,110,_ZN5neml210TensorBaseINS_4WWR4EE8linspaceERKS1_S4_ll
FN:89,110,_ZN5neml210TensorBaseINS_5SFFR4EE8linspaceERKS1_S4_ll
FN:89,110,_ZN5neml210TensorBaseINS_5SSFR5EE8linspaceERKS1_S4_ll
FN:89,110,_ZN5neml210TensorBaseINS_6SSSSR8EE8linspaceERKS1_S4_ll
FN:89,110,_ZN5neml210TensorBaseINS_6ScalarEE8linspaceERKS1_S4_ll
FN:89,110,_ZN5neml210TensorBaseINS_6TensorEE8linspaceERKS1_S4_ll
FNDA:0,_ZN5neml210TensorBaseINS_10QuaternionEE8logspaceERKS1_S4_lld
FNDA:0,_ZN5neml210TensorBaseINS_11MillerIndexEE8logspaceERKS1_S4_lld
FNDA:2,_ZN5neml210TensorBaseINS_2R2EE8logspaceERKS1_S4_lld
FNDA:2,_ZN5neml210TensorBaseINS_2R3EE8logspaceERKS1_S4_lld
FNDA:2,_ZN5neml210TensorBaseINS_2R4EE8logspaceERKS1_S4_lld
FNDA:2,_ZN5neml210TensorBaseINS_2R5EE8logspaceERKS1_S4_lld
FNDA:0,_ZN5neml210TensorBaseINS_2R8EE8logspaceERKS1_S4_lld
FNDA:2,_ZN5neml210TensorBaseINS_3RotEE8logspaceERKS1_S4_lld
FNDA:2,_ZN5neml210TensorBaseINS_3SR2EE8logspaceERKS1_S4_lld
FNDA:2,_ZN5neml210TensorBaseINS_3VecEE8logspaceERKS1_S4_lld
FNDA:0,_ZN5neml210TensorBaseINS_3WR2EE8logspaceERKS1_S4_lld
FNDA:2,_ZN5neml210TensorBaseINS_4SFR3EE8logspaceERKS1_S4_lld
FNDA:2,_ZN5neml210TensorBaseINS_4SSR4EE8logspaceERKS1_S4_lld
FNDA:0,_ZN5neml210TensorBaseINS_4SWR4EE8logspaceERKS1_S4_lld
FNDA:0,_ZN5neml210TensorBaseINS_4WSR4EE8logspaceERKS1_S4_lld
FNDA:0,_ZN5neml210TensorBaseINS_4WWR4EE8logspaceERKS1_S4_lld
FNDA:0,_ZN5neml210TensorBaseINS_5SFFR4EE8logspaceERKS1_S4_lld
FNDA:2,_ZN5neml210TensorBaseINS_5SSFR5EE8logspaceERKS1_S4_lld
FNDA:0,_ZN5neml210TensorBaseINS_6SSSSR8EE8logspaceERKS1_S4_lld
FNDA:8,_ZN5neml210TensorBaseINS_6ScalarEE8logspaceERKS1_S4_lld
FNDA:2,_ZN5neml210TensorBaseINS_6TensorEE8logspaceERKS1_S4_lld
FNDA:0,_ZNK5neml210TensorBaseINS_10QuaternionEE5cloneEN3c1012MemoryFormatE
FNDA:0,_ZNK5neml210TensorBaseINS_11MillerIndexEE5cloneEN3c1012MemoryFormatE
FNDA:0,_ZNK5neml210TensorBaseINS_2R2EE5cloneEN3c1012MemoryFormatE
FNDA:0,_ZNK5neml210TensorBaseINS_2R3EE5cloneEN3c1012MemoryFormatE
FNDA:0,_ZNK5neml210TensorBaseINS_2R4EE5cloneEN3c1012MemoryFormatE
FNDA:0,_ZNK5neml210TensorBaseINS_2R5EE5cloneEN3c1012MemoryFormatE
FNDA:0,_ZNK5neml210TensorBaseINS_2R8EE5cloneEN3c1012MemoryFormatE
FNDA:0,_ZNK5neml210TensorBaseINS_3RotEE5cloneEN3c1012MemoryFormatE
FNDA:0,_ZNK5neml210TensorBaseINS_3SR2EE5cloneEN3c1012MemoryFormatE
FNDA:0,_ZNK5neml210TensorBaseINS_3VecEE5cloneEN3c1012MemoryFormatE
FNDA:0,_ZNK5neml210TensorBaseINS_3WR2EE5cloneEN3c1012MemoryFormatE
FNDA:0,_ZNK5neml210TensorBaseINS_4SFR3EE5cloneEN3c1012MemoryFormatE
FNDA:0,_ZNK5neml210TensorBaseINS_4SSR4EE5cloneEN3c1012MemoryFormatE
FNDA:0,_ZNK5neml210TensorBaseINS_4SWR4EE5cloneEN3c1012MemoryFormatE
FNDA:0,_ZNK5neml210TensorBaseINS_4WSR4EE5cloneEN3c1012MemoryFormatE
FNDA:0,_ZNK5neml210TensorBaseINS_4WWR4EE5cloneEN3c1012MemoryFormatE
FNDA:0,_ZNK5neml210TensorBaseINS_5SFFR4EE5cloneEN3c1012MemoryFormatE
FNDA:0,_ZNK5neml210TensorBaseINS_5SSFR5EE5cloneEN3c1012MemoryFormatE
FNDA:0,_ZNK5neml210TensorBaseINS_6SSSSR8EE5cloneEN3c1012MemoryFormatE
FNDA:0,_ZNK5neml210TensorBaseINS_6ScalarEE5cloneEN3c1012MemoryFormatE
FNDA:15247,_ZNK5neml210TensorBaseINS_6TensorEE5cloneEN3c1012MemoryFormatE
FNDA:0,_ZNK5neml210TensorBaseINS_10QuaternionEE6detachEv
FNDA:0,_ZNK5neml210TensorBaseINS_11MillerIndexEE6detachEv
FNDA:0,_ZNK5neml210TensorBaseINS_2R2EE6detachEv
FNDA:0,_ZNK5neml210TensorBaseINS_2R3EE6detachEv
FNDA:0,_ZNK5neml210TensorBaseINS_2R4EE6detachEv
FNDA:0,_ZNK5neml210TensorBaseINS_2R5EE6detachEv
FNDA:0,_ZNK5neml210TensorBaseINS_2R8EE6detachEv
FNDA:0,_ZNK5neml210TensorBaseINS_3RotEE6detachEv
FNDA:0,_ZNK5neml210TensorBaseINS_3SR2EE6detachEv
FNDA:0,_ZNK5neml210TensorBaseINS_3VecEE6detachEv
FNDA:0,_ZNK5neml210TensorBaseINS_3WR2EE6detachEv
FNDA:0,_ZNK5neml210TensorBaseINS_4SFR3EE6detachEv
FNDA:0,_ZNK5neml210TensorBaseINS_4SSR4EE6detachEv
FNDA:0,_ZNK5neml210TensorBaseINS_4SWR4EE6detachEv
FNDA:0,_ZNK5neml210TensorBaseINS_4WSR4EE6detachEv
FNDA:0,_ZNK5neml210TensorBaseINS_4WWR4EE6detachEv
FNDA:0,_ZNK5neml210TensorBaseINS_5SFFR4EE6detachEv
FNDA:0,_ZNK5neml210TensorBaseINS_5SSFR5EE6detachEv
FNDA:0,_ZNK5neml210TensorBaseINS_6SSSSR8EE6detachEv
FNDA:0,_ZNK5neml210TensorBaseINS_6ScalarEE6detachEv
FNDA:0,_ZNK5neml210TensorBaseINS_6TensorEE6detachEv
FNDA:0,_ZNK5neml210TensorBaseINS_10QuaternionEE2toERKN3c1013TensorOptionsE
FNDA:74,_ZNK5neml210TensorBaseINS_11MillerIndexEE2toERKN3c1013TensorOptionsE
FNDA:0,_ZNK5neml210TensorBaseINS_2R2EE2toERKN3c1013TensorOptionsE
FNDA:0,_ZNK5neml210TensorBaseINS_2R3EE2toERKN3c1013TensorOptionsE
FNDA:0,_ZNK5neml210TensorBaseINS_2R4EE2toERKN3c1013TensorOptionsE
FNDA:0,_ZNK5neml210TensorBaseINS_2R5EE2toERKN3c1013TensorOptionsE
FNDA:0,_ZNK5neml210TensorBaseINS_2R8EE2toERKN3c1013TensorOptionsE
FNDA:1,_ZNK5neml210TensorBaseINS_3RotEE2toERKN3c1013TensorOptionsE
FNDA:8,_ZNK5neml210TensorBaseINS_3SR2EE2toERKN3c1013TensorOptionsE
FNDA:0,_ZNK5neml210TensorBaseINS_3VecEE2toERKN3c1013TensorOptionsE
FNDA:1,_ZNK5neml210TensorBaseINS_3WR2EE2toERKN3c1013TensorOptionsE
FNDA:0,_ZNK5neml210TensorBaseINS_4SFR3EE2toERKN3c1013TensorOptionsE
FNDA:0,_ZNK5neml210TensorBaseINS_4SSR4EE2toERKN3c1013TensorOptionsE
FNDA:0,_ZNK5neml210TensorBaseINS_4SWR4EE2toERKN3c1013TensorOptionsE
FNDA:0,_ZNK5neml210TensorBaseINS_4WSR4EE2toERKN3c1013TensorOptionsE
FNDA:0,_ZNK5neml210TensorBaseINS_4WWR4EE2toERKN3c1013TensorOptionsE
FNDA:0,_ZNK5neml210TensorBaseINS_5SFFR4EE2toERKN3c1013TensorOptionsE
FNDA:0,_ZNK5neml210TensorBaseINS_5SSFR5EE2toERKN3c1013TensorOptionsE
FNDA:0,_ZNK5neml210TensorBaseINS_6SSSSR8EE2toERKN3c1013TensorOptionsE
FNDA:8,_ZNK5neml210TensorBaseINS_6ScalarEE2toERKN3c1013TensorOptionsE
FNDA:14,_ZNK5neml210TensorBaseINS_6TensorEE2toERKN3c1013TensorOptionsE
FNDA:0,_ZNK5neml210TensorBaseINS_10QuaternionEE7batchedEv
FNDA:0,_ZNK5neml210TensorBaseINS_11MillerIndexEE7batchedEv
FNDA:0,_ZNK5neml210TensorBaseINS_2R2EE7batchedEv
FNDA:0,_ZNK5neml210TensorBaseINS_2R3EE7batchedEv
FNDA:0,_ZNK5neml210TensorBaseINS_2R4EE7batchedEv
FNDA:8,_ZNK5neml210TensorBaseINS_2R5EE7batchedEv
FNDA:0,_ZNK5neml210TensorBaseINS_2R8EE7batchedEv
FNDA:0,_ZNK5neml210TensorBaseINS_3RotEE7batchedEv
FNDA:0,_ZNK5neml210TensorBaseINS_3SR2EE7batchedEv
FNDA:0,_ZNK5neml210TensorBaseINS_3VecEE7batchedEv
FNDA:0,_ZNK5neml210TensorBaseINS_3WR2EE7batchedEv
FNDA:0,_ZNK5neml210TensorBaseINS_4SFR3EE7batchedEv
FNDA:0,_ZNK5neml210TensorBaseINS_4SSR4EE7batchedEv
FNDA:0,_ZNK5neml210TensorBaseINS_4SWR4EE7batchedEv
FNDA:0,_ZNK5neml210TensorBaseINS_4WSR4EE7batchedEv
FNDA:0,_ZNK5neml210TensorBaseINS_4WWR4EE7batchedEv
FNDA:0,_ZNK5neml210TensorBaseINS_5SFFR4EE7batchedEv
FNDA:0,_ZNK5neml210TensorBaseINS_5SSFR5EE7batchedEv
FNDA:0,_ZNK5neml210TensorBaseINS_6SSSSR8EE7batchedEv
FNDA:0,_ZNK5neml210TensorBaseINS_6ScalarEE7batchedEv
FNDA:10,_ZNK5neml210TensorBaseINS_6TensorEE7batchedEv
FNDA:2821,_ZNK5neml210TensorBaseINS_10QuaternionEE9batch_dimEv
FNDA:471,_ZNK5neml210TensorBaseINS_11MillerIndexEE9batch_dimEv
FNDA:27373,_ZNK5neml210TensorBaseINS_2R2EE9batch_dimEv
FNDA:1458,_ZNK5neml210TensorBaseINS_2R3EE9batch_dimEv
FNDA:2615,_ZNK5neml210TensorBaseINS_2R4EE9batch_dimEv
FNDA:36,_ZNK5neml210TensorBaseINS_2R5EE9batch_dimEv
FNDA:6,_ZNK5neml210TensorBaseINS_2R8EE9batch_dimEv
FNDA:6329,_ZNK5neml210TensorBaseINS_3RotEE9batch_dimEv
FNDA:66958,_ZNK5neml210TensorBaseINS_3SR2EE9batch_dimEv
FNDA:15659,_ZNK5neml210TensorBaseINS_3VecEE9batch_dimEv
FNDA:5838,_ZNK5neml210TensorBaseINS_3WR2EE9batch_dimEv
FNDA:16,_ZNK5neml210TensorBaseINS_4SFR3EE9batch_dimEv
FNDA:15711,_ZNK5neml210TensorBaseINS_4SSR4EE9batch_dimEv
FNDA:0,_ZNK5neml210TensorBaseINS_4SWR4EE9batch_dimEv
FNDA:0,_ZNK5neml210TensorBaseINS_4WSR4EE9batch_dimEv
FNDA:0,_ZNK5neml210TensorBaseINS_4WWR4EE9batch_dimEv
FNDA:0,_ZNK5neml210TensorBaseINS_5SFFR4EE9batch_dimEv
FNDA:16,_ZNK5neml210TensorBaseINS_5SSFR5EE9batch_dimEv
FNDA:0,_ZNK5neml210TensorBaseINS_6SSSSR8EE9batch_dimEv
FNDA:136192,_ZNK5neml210TensorBaseINS_6ScalarEE9batch_dimEv
FNDA:366250,_ZNK5neml210TensorBaseINS_6TensorEE9batch_dimEv
FNDA:1,_ZNK5neml210TensorBaseINS_10QuaternionEE8base_dimEv
FNDA:143,_ZNK5neml210TensorBaseINS_11MillerIndexEE8base_dimEv
FNDA:5545,_ZNK5neml210TensorBaseINS_2R2EE8base_dimEv
FNDA:392,_ZNK5neml210TensorBaseINS_2R3EE8base_dimEv
FNDA:16,_ZNK5neml210TensorBaseINS_2R4EE8base_dimEv
FNDA:12,_ZNK5neml210TensorBaseINS_2R5EE8base_dimEv
FNDA:2,_ZNK5neml210TensorBaseINS_2R8EE8base_dimEv
FNDA:1408,_ZNK5neml210TensorBaseINS_3RotEE8base_dimEv
FNDA:14318,_ZNK5neml210TensorBaseINS_3SR2EE8base_dimEv
FNDA:6229,_ZNK5neml210TensorBaseINS_3VecEE8base_dimEv
FNDA:1719,_ZNK5neml210TensorBaseINS_3WR2EE8base_dimEv
FNDA:2,_ZNK5neml210TensorBaseINS_4SFR3EE8base_dimEv
FNDA:7341,_ZNK5neml210TensorBaseINS_4SSR4EE8base_dimEv
FNDA:0,_ZNK5neml210TensorBaseINS_4SWR4EE8base_dimEv
FNDA:0,_ZNK5neml210TensorBaseINS_4WSR4EE8base_dimEv
FNDA:0,_ZNK5neml210TensorBaseINS_4WWR4EE8base_dimEv
FNDA:0,_ZNK5neml210TensorBaseINS_5SFFR4EE8base_dimEv
FNDA:2,_ZNK5neml210TensorBaseINS_5SSFR5EE8base_dimEv
FNDA:0,_ZNK5neml210TensorBaseINS_6SSSSR8EE8base_dimEv
FNDA:4140,_ZNK5neml210TensorBaseINS_6ScalarEE8base_dimEv
FNDA:172469,_ZNK5neml210TensorBaseINS_6TensorEE8base_dimEv
FNDA:2823,_ZNK5neml210TensorBaseINS_10QuaternionEE11batch_sizesEv
FNDA:695,_ZNK5neml210TensorBaseINS_11MillerIndexEE11batch_sizesEv
FNDA:53856,_ZNK5neml210TensorBaseINS_2R2EE11batch_sizesEv
FNDA:2201,_ZNK5neml210TensorBaseINS_2R3EE11batch_sizesEv
FNDA:7014,_ZNK5neml210TensorBaseINS_2R4EE11batch_sizesEv
FNDA:58,_ZNK5neml210TensorBaseINS_2R5EE11batch_sizesEv
FNDA:8,_ZNK5neml210TensorBaseINS_2R8EE11batch_sizesEv
FNDA:20689,_ZNK5neml210TensorBaseINS_3RotEE11batch_sizesEv
FNDA:128723,_ZNK5neml210TensorBaseINS_3SR2EE11batch_sizesEv
FNDA:21952,_ZNK5neml210TensorBaseINS_3VecEE11batch_sizesEv
FNDA:10007,_ZNK5neml210TensorBaseINS_3WR2EE11batch_sizesEv
FNDA:39,_ZNK5neml210TensorBaseINS_4SFR3EE11batch_sizesEv
FNDA:27905,_ZNK5neml210TensorBaseINS_4SSR4EE11batch_sizesEv
FNDA:1,_ZNK5neml210TensorBaseINS_4SWR4EE11batch_sizesEv
FNDA:126,_ZNK5neml210TensorBaseINS_4WSR4EE11batch_sizesEv
FNDA:190,_ZNK5neml210TensorBaseINS_4WWR4EE11batch_sizesEv
FNDA:63,_ZNK5neml210TensorBaseINS_5SFFR4EE11batch_sizesEv
FNDA:39,_ZNK5neml210TensorBaseINS_5SSFR5EE11batch_sizesEv
FNDA:2,_ZNK5neml210TensorBaseINS_6SSSSR8EE11batch_sizesEv
FNDA:519191,_ZNK5neml210TensorBaseINS_6ScalarEE11batch_sizesEv
FNDA:610760,_ZNK5neml210TensorBaseINS_6TensorEE11batch_sizesEv
FNDA:0,_ZNK5neml210TensorBaseINS_10QuaternionEE10batch_sizeEl
FNDA:0,_ZNK5neml210TensorBaseINS_11MillerIndexEE10batch_sizeEl
FNDA:1314,_ZNK5neml210TensorBaseINS_2R2EE10batch_sizeEl
FNDA:0,_ZNK5neml210TensorBaseINS_2R3EE10batch_sizeEl
FNDA:0,_ZNK5neml210TensorBaseINS_2R4EE10batch_sizeEl
FNDA:0,_ZNK5neml210TensorBaseINS_2R5EE10batch_sizeEl
FNDA:0,_ZNK5neml210TensorBaseINS_2R8EE10batch_sizeEl
FNDA:0,_ZNK5neml210TensorBaseINS_3RotEE10batch_sizeEl
FNDA:16,_ZNK5neml210TensorBaseINS_3SR2EE10batch_sizeEl
FNDA:1925,_ZNK5neml210TensorBaseINS_3VecEE10batch_sizeEl
FNDA:2,_ZNK5neml210TensorBaseINS_3WR2EE10batch_sizeEl
FNDA:0,_ZNK5neml210TensorBaseINS_4SFR3EE10batch_sizeEl
FNDA:0,_ZNK5neml210TensorBaseINS_4SSR4EE10batch_sizeEl
FNDA:0,_ZNK5neml210TensorBaseINS_4SWR4EE10batch_sizeEl
FNDA:0,_ZNK5neml210TensorBaseINS_4WSR4EE10batch_sizeEl
FNDA:0,_ZNK5neml210TensorBaseINS_4WWR4EE10batch_sizeEl
FNDA:0,_ZNK5neml210TensorBaseINS_5SFFR4EE10batch_sizeEl
FNDA:0,_ZNK5neml210TensorBaseINS_5SSFR5EE10batch_sizeEl
FNDA:0,_ZNK5neml210TensorBaseINS_6SSSSR8EE10batch_sizeEl
FNDA:27,_ZNK5neml210TensorBaseINS_6ScalarEE10batch_sizeEl
FNDA:0,_ZNK5neml210TensorBaseINS_6TensorEE10batch_sizeEl
FNDA:96,_ZNK5neml210TensorBaseINS_10QuaternionEE10base_sizesEv
FNDA:593,_ZNK5neml210TensorBaseINS_11MillerIndexEE10base_sizesEv
FNDA:85827,_ZNK5neml210TensorBaseINS_2R2EE10base_sizesEv
FNDA:4708,_ZNK5neml210TensorBaseINS_2R3EE10base_sizesEv
FNDA:9580,_ZNK5neml210TensorBaseINS_2R4EE10base_sizesEv
FNDA:153,_ZNK5neml210TensorBaseINS_2R5EE10base_sizesEv
FNDA:24,_ZNK5neml210TensorBaseINS_2R8EE10base_sizesEv
FNDA:26984,_ZNK5neml210TensorBaseINS_3RotEE10base_sizesEv
FNDA:150421,_ZNK5neml210TensorBaseINS_3SR2EE10base_sizesEv
FNDA:22948,_ZNK5neml210TensorBaseINS_3VecEE10base_sizesEv
FNDA:12258,_ZNK5neml210TensorBaseINS_3WR2EE10base_sizesEv
FNDA:96,_ZNK5neml210TensorBaseINS_4SFR3EE10base_sizesEv
FNDA:37230,_ZNK5neml210TensorBaseINS_4SSR4EE10base_sizesEv
FNDA:4,_ZNK5neml210TensorBaseINS_4SWR4EE10base_sizesEv
FNDA:256,_ZNK5neml210TensorBaseINS_4WSR4EE10base_sizesEv
FNDA:258,_ZNK5neml210TensorBaseINS_4WWR4EE10base_sizesEv
FNDA:260,_ZNK5neml210TensorBaseINS_5SFFR4EE10base_sizesEv
FNDA:106,_ZNK5neml210TensorBaseINS_5SSFR5EE10base_sizesEv
FNDA:20,_ZNK5neml210TensorBaseINS_6SSSSR8EE10base_sizesEv
FNDA:528424,_ZNK5neml210TensorBaseINS_6ScalarEE10base_sizesEv
FNDA:99559,_ZNK5neml210TensorBaseINS_6TensorEE10base_sizesEv
FNDA:0,_ZNK5neml210TensorBaseINS_10QuaternionEE9base_sizeEl
FNDA:0,_ZNK5neml210TensorBaseINS_11MillerIndexEE9base_sizeEl
FNDA:0,_ZNK5neml210TensorBaseINS_2R2EE9base_sizeEl
FNDA:0,_ZNK5neml210TensorBaseINS_2R3EE9base_sizeEl
FNDA:0,_ZNK5neml210TensorBaseINS_2R4EE9base_sizeEl
FNDA:0,_ZNK5neml210TensorBaseINS_2R5EE9base_sizeEl
FNDA:0,_ZNK5neml210TensorBaseINS_2R8EE9base_sizeEl
FNDA:0,_ZNK5neml210TensorBaseINS_3RotEE9base_sizeEl
FNDA:0,_ZNK5neml210TensorBaseINS_3SR2EE9base_sizeEl
FNDA:0,_ZNK5neml210TensorBaseINS_3VecEE9base_sizeEl
FNDA:0,_ZNK5neml210TensorBaseINS_3WR2EE9base_sizeEl
FNDA:0,_ZNK5neml210TensorBaseINS_4SFR3EE9base_sizeEl
FNDA:0,_ZNK5neml210TensorBaseINS_4SSR4EE9base_sizeEl
FNDA:0,_ZNK5neml210TensorBaseINS_4SWR4EE9base_sizeEl
FNDA:0,_ZNK5neml210TensorBaseINS_4WSR4EE9base_sizeEl
FNDA:0,_ZNK5neml210TensorBaseINS_4WWR4EE9base_sizeEl
FNDA:0,_ZNK5neml210TensorBaseINS_5SFFR4EE9base_sizeEl
FNDA:0,_ZNK5neml210TensorBaseINS_5SSFR5EE9base_sizeEl
FNDA:0,_ZNK5neml210TensorBaseINS_6SSSSR8EE9base_sizeEl
FNDA:0,_ZNK5neml210TensorBaseINS_6ScalarEE9base_sizeEl
FNDA:41780,_ZNK5neml210TensorBaseINS_6TensorEE9base_sizeEl
FNDA:0,_ZNK5neml210TensorBaseINS_10QuaternionEE12base_storageEv
FNDA:0,_ZNK5neml210TensorBaseINS_11MillerIndexEE12base_storageEv
FNDA:1,_ZNK5neml210TensorBaseINS_2R2EE12base_storageEv
FNDA:1,_ZNK5neml210TensorBaseINS_2R3EE12base_storageEv
FNDA:1,_ZNK5neml210TensorBaseINS_2R4EE12base_storageEv
FNDA:11,_ZNK5neml210TensorBaseINS_2R5EE12base_storageEv
FNDA:0,_ZNK5neml210TensorBaseINS_2R8EE12base_storageEv
FNDA:1,_ZNK5neml210TensorBaseINS_3RotEE12base_storageEv
FNDA:3,_ZNK5neml210TensorBaseINS_3SR2EE12base_storageEv
FNDA:23,_ZNK5neml210TensorBaseINS_3VecEE12base_storageEv
FNDA:0,_ZNK5neml210TensorBaseINS_3WR2EE12base_storageEv
FNDA:1,_ZNK5neml210TensorBaseINS_4SFR3EE12base_storageEv
FNDA:9,_ZNK5neml210TensorBaseINS_4SSR4EE12base_storageEv
FNDA:0,_ZNK5neml210TensorBaseINS_4SWR4EE12base_storageEv
FNDA:0,_ZNK5neml210TensorBaseINS_4WSR4EE12base_storageEv
FNDA:0,_ZNK5neml210TensorBaseINS_4WWR4EE12base_storageEv
FNDA:0,_ZNK5neml210TensorBaseINS_5SFFR4EE12base_storageEv
FNDA:1,_ZNK5neml210TensorBaseINS_5SSFR5EE12base_storageEv
FNDA:0,_ZNK5neml210TensorBaseINS_6SSSSR8EE12base_storageEv
FNDA:64,_ZNK5neml210TensorBaseINS_6ScalarEE12base_storageEv
FNDA:4621,_ZNK5neml210TensorBaseINS_6TensorEE12base_storageEv
FNDA:0,_ZNK5neml210TensorBaseINS_10QuaternionEE11batch_indexEN3c108ArrayRefIN2at8indexing11TensorIndexEEE
FNDA:70,_ZNK5neml210TensorBaseINS_11MillerIndexEE11batch_indexEN3c108ArrayRefIN2at8indexing11TensorIndexEEE
FNDA:1210,_ZNK5neml210TensorBaseINS_2R2EE11batch_indexEN3c108ArrayRefIN2at8indexing11TensorIndexEEE
FNDA:0,_ZNK5neml210TensorBaseINS_2R3EE11batch_indexEN3c108ArrayRefIN2at8indexing11TensorIndexEEE
FNDA:0,_ZNK5neml210TensorBaseINS_2R4EE11batch_indexEN3c108ArrayRefIN2at8indexing11TensorIndexEEE
FNDA:0,_ZNK5neml210TensorBaseINS_2R5EE11batch_indexEN3c108ArrayRefIN2at8indexing11TensorIndexEEE
FNDA:0,_ZNK5neml210TensorBaseINS_2R8EE11batch_indexEN3c108ArrayRefIN2at8indexing11TensorIndexEEE
FNDA:0,_ZNK5neml210TensorBaseINS_3RotEE11batch_indexEN3c108ArrayRefIN2at8indexing11TensorIndexEEE
FNDA:110,_ZNK5neml210TensorBaseINS_3SR2EE11batch_indexEN3c108ArrayRefIN2at8indexing11TensorIndexEEE
FNDA:2532,_ZNK5neml210TensorBaseINS_3VecEE11batch_indexEN3c108ArrayRefIN2at8indexing11TensorIndexEEE
FNDA:10,_ZNK5neml210TensorBaseINS_3WR2EE11batch_indexEN3c108ArrayRefIN2at8indexing11TensorIndexEEE
FNDA:0,_ZNK5neml210TensorBaseINS_4SFR3EE11batch_indexEN3c108ArrayRefIN2at8indexing11TensorIndexEEE
FNDA:1160,_ZNK5neml210TensorBaseINS_4SSR4EE11batch_indexEN3c108ArrayRefIN2at8indexing11TensorIndexEEE
FNDA:0,_ZNK5neml210TensorBaseINS_4SWR4EE11batch_indexEN3c108ArrayRefIN2at8indexing11TensorIndexEEE
FNDA:0,_ZNK5neml210TensorBaseINS_4WSR4EE11batch_indexEN3c108ArrayRefIN2at8indexing11TensorIndexEEE
FNDA:0,_ZNK5neml210TensorBaseINS_4WWR4EE11batch_indexEN3c108ArrayRefIN2at8indexing11TensorIndexEEE
FNDA:0,_ZNK5neml210TensorBaseINS_5SFFR4EE11batch_indexEN3c108ArrayRefIN2at8indexing11TensorIndexEEE
FNDA:0,_ZNK5neml210TensorBaseINS_5SSFR5EE11batch_indexEN3c108ArrayRefIN2at8indexing11TensorIndexEEE
FNDA:0,_ZNK5neml210TensorBaseINS_6SSSSR8EE11batch_indexEN3c108ArrayRefIN2at8indexing11TensorIndexEEE
FNDA:470,_ZNK5neml210TensorBaseINS_6ScalarEE11batch_indexEN3c108ArrayRefIN2at8indexing11TensorIndexEEE
FNDA:4,_ZNK5neml210TensorBaseINS_6TensorEE11batch_indexEN3c108ArrayRefIN2at8indexing11TensorIndexEEE
FNDA:2820,_ZNK5neml210TensorBaseINS_10QuaternionEE10base_indexEN3c108ArrayRefIN2at8indexing11TensorIndexEEE
FNDA:219,_ZNK5neml210TensorBaseINS_11MillerIndexEE10base_indexEN3c108ArrayRefIN2at8indexing11TensorIndexEEE
FNDA:27,_ZNK5neml210TensorBaseINS_2R2EE10base_indexEN3c108ArrayRefIN2at8indexing11TensorIndexEEE
FNDA:54,_ZNK5neml210TensorBaseINS_2R3EE10base_indexEN3c108ArrayRefIN2at8indexing11TensorIndexEEE
FNDA:486,_ZNK5neml210TensorBaseINS_2R4EE10base_indexEN3c108ArrayRefIN2at8indexing11TensorIndexEEE
FNDA:0,_ZNK5neml210TensorBaseINS_2R5EE10base_indexEN3c108ArrayRefIN2at8indexing11TensorIndexEEE
FNDA:0,_ZNK5neml210TensorBaseINS_2R8EE10base_indexEN3c108ArrayRefIN2at8indexing11TensorIndexEEE
FNDA:0,_ZNK5neml210TensorBaseINS_3RotEE10base_indexEN3c108ArrayRefIN2at8indexing11TensorIndexEEE
FNDA:6458,_ZNK5neml210TensorBaseINS_3SR2EE10base_indexEN3c108ArrayRefIN2at8indexing11TensorIndexEEE
FNDA:6184,_ZNK5neml210TensorBaseINS_3VecEE10base_indexEN3c108ArrayRefIN2at8indexing11TensorIndexEEE
FNDA:9,_ZNK5neml210TensorBaseINS_3WR2EE10base_indexEN3c108ArrayRefIN2at8indexing11TensorIndexEEE
FNDA:0,_ZNK5neml210TensorBaseINS_4SFR3EE10base_indexEN3c108ArrayRefIN2at8indexing11TensorIndexEEE
FNDA:324,_ZNK5neml210TensorBaseINS_4SSR4EE10base_indexEN3c108ArrayRefIN2at8indexing11TensorIndexEEE
FNDA:0,_ZNK5neml210TensorBaseINS_4SWR4EE10base_indexEN3c108ArrayRefIN2at8indexing11TensorIndexEEE
FNDA:0,_ZNK5neml210TensorBaseINS_4WSR4EE10base_indexEN3c108ArrayRefIN2at8indexing11TensorIndexEEE
FNDA:0,_ZNK5neml210TensorBaseINS_4WWR4EE10base_indexEN3c108ArrayRefIN2at8indexing11TensorIndexEEE
FNDA:0,_ZNK5neml210TensorBaseINS_5SFFR4EE10base_indexEN3c108ArrayRefIN2at8indexing11TensorIndexEEE
FNDA:0,_ZNK5neml210TensorBaseINS_5SSFR5EE10base_indexEN3c108ArrayRefIN2at8indexing11TensorIndexEEE
FNDA:0,_ZNK5neml210TensorBaseINS_6SSSSR8EE10base_indexEN3c108ArrayRefIN2at8indexing11TensorIndexEEE
FNDA:0,_ZNK5neml210TensorBaseINS_6ScalarEE10base_indexEN3c108ArrayRefIN2at8indexing11TensorIndexEEE
FNDA:9094,_ZNK5neml210TensorBaseINS_6TensorEE10base_indexEN3c108ArrayRefIN2at8indexing11TensorIndexEEE
FNDA:0,_ZN5neml210TensorBaseINS_10QuaternionEE16batch_index_put_EN3c108ArrayRefIN2at8indexing11TensorIndexEEERKNS5_6TensorE
FNDA:0,_ZN5neml210TensorBaseINS_11MillerIndexEE16batch_index_put_EN3c108ArrayRefIN2at8indexing11TensorIndexEEERKNS5_6TensorE
FNDA:0,_ZN5neml210TensorBaseINS_2R2EE16batch_index_put_EN3c108ArrayRefIN2at8indexing11TensorIndexEEERKNS5_6TensorE
FNDA:0,_ZN5neml210TensorBaseINS_2R3EE16batch_index_put_EN3c108ArrayRefIN2at8indexing11TensorIndexEEERKNS5_6TensorE
FNDA:0,_ZN5neml210TensorBaseINS_2R4EE16batch_index_put_EN3c108ArrayRefIN2at8indexing11TensorIndexEEERKNS5_6TensorE
FNDA:0,_ZN5neml210TensorBaseINS_2R5EE16batch_index_put_EN3c108ArrayRefIN2at8indexing11TensorIndexEEERKNS5_6TensorE
FNDA:0,_ZN5neml210TensorBaseINS_2R8EE16batch_index_put_EN3c108ArrayRefIN2at8indexing11TensorIndexEEERKNS5_6TensorE
FNDA:0,_ZN5neml210TensorBaseINS_3RotEE16batch_index_put_EN3c108ArrayRefIN2at8indexing11TensorIndexEEERKNS5_6TensorE
FNDA:0,_ZN5neml210TensorBaseINS_3SR2EE16batch_index_put_EN3c108ArrayRefIN2at8indexing11TensorIndexEEERKNS5_6TensorE
FNDA:0,_ZN5neml210TensorBaseINS_3VecEE16batch_index_put_EN3c108ArrayRefIN2at8indexing11TensorIndexEEERKNS5_6TensorE
FNDA:0,_ZN5neml210TensorBaseINS_3WR2EE16batch_index_put_EN3c108ArrayRefIN2at8indexing11TensorIndexEEERKNS5_6TensorE
FNDA:0,_ZN5neml210TensorBaseINS_4SFR3EE16batch_index_put_EN3c108ArrayRefIN2at8indexing11TensorIndexEEERKNS5_6TensorE
FNDA:0,_ZN5neml210TensorBaseINS_4SSR4EE16batch_index_put_EN3c108ArrayRefIN2at8indexing11TensorIndexEEERKNS5_6TensorE
FNDA:0,_ZN5neml210TensorBaseINS_4SWR4EE16batch_index_put_EN3c108ArrayRefIN2at8indexing11TensorIndexEEERKNS5_6TensorE
FNDA:0,_ZN5neml210TensorBaseINS_4WSR4EE16batch_index_put_EN3c108ArrayRefIN2at8indexing11TensorIndexEEERKNS5_6TensorE
FNDA:0,_ZN5neml210TensorBaseINS_4WWR4EE16batch_index_put_EN3c108ArrayRefIN2at8indexing11TensorIndexEEERKNS5_6TensorE
FNDA:0,_ZN5neml210TensorBaseINS_5SFFR4EE16batch_index_put_EN3c108ArrayRefIN2at8indexing11TensorIndexEEERKNS5_6TensorE
FNDA:0,_ZN5neml210TensorBaseINS_5SSFR5EE16batch_index_put_EN3c108ArrayRefIN2at8indexing11TensorIndexEEERKNS5_6TensorE
FNDA:0,_ZN5neml210TensorBaseINS_6SSSSR8EE16batch_index_put_EN3c108ArrayRefIN2at8indexing11TensorIndexEEERKNS5_6TensorE
FNDA:149,_ZN5neml210TensorBaseINS_6ScalarEE16batch_index_put_EN3c108ArrayRefIN2at8indexing11TensorIndexEEERKNS5_6TensorE
FNDA:1,_ZN5neml210TensorBaseINS_6TensorEE16batch_index_put_EN3c108ArrayRefIN2at8indexing11TensorIndexEEERKNS5_6TensorE
FNDA:0,_ZN5neml210TensorBaseINS_10QuaternionEE16batch_index_put_EN3c108ArrayRefIN2at8indexing11TensorIndexEEEd
FNDA:0,_ZN5neml210TensorBaseINS_11MillerIndexEE16batch_index_put_EN3c108ArrayRefIN2at8indexing11TensorIndexEEEd
FNDA:0,_ZN5neml210TensorBaseINS_2R2EE16batch_index_put_EN3c108ArrayRefIN2at8indexing11TensorIndexEEEd
FNDA:0,_ZN5neml210TensorBaseINS_2R3EE16batch_index_put_EN3c108ArrayRefIN2at8indexing11TensorIndexEEEd
FNDA:0,_ZN5neml210TensorBaseINS_2R4EE16batch_index_put_EN3c108ArrayRefIN2at8indexing11TensorIndexEEEd
FNDA:0,_ZN5neml210TensorBaseINS_2R5EE16batch_index_put_EN3c108ArrayRefIN2at8indexing11TensorIndexEEEd
FNDA:0,_ZN5neml210TensorBaseINS_2R8EE16batch_index_put_EN3c108ArrayRefIN2at8indexing11TensorIndexEEEd
FNDA:0,_ZN5neml210TensorBaseINS_3RotEE16batch_index_put_EN3c108ArrayRefIN2at8indexing11TensorIndexEEEd
FNDA:0,_ZN5neml210TensorBaseINS_3SR2EE16batch_index_put_EN3c108ArrayRefIN2at8indexing11TensorIndexEEEd
FNDA:0,_ZN5neml210TensorBaseINS_3VecEE16batch_index_put_EN3c108ArrayRefIN2at8indexing11TensorIndexEEEd
FNDA:0,_ZN5neml210TensorBaseINS_3WR2EE16batch_index_put_EN3c108ArrayRefIN2at8indexing11TensorIndexEEEd
FNDA:0,_ZN5neml210TensorBaseINS_4SFR3EE16batch_index_put_EN3c108ArrayRefIN2at8indexing11TensorIndexEEEd
FNDA:0,_ZN5neml210TensorBaseINS_4SSR4EE16batch_index_put_EN3c108ArrayRefIN2at8indexing11TensorIndexEEEd
FNDA:0,_ZN5neml210TensorBaseINS_4SWR4EE16batch_index_put_EN3c108ArrayRefIN2at8indexing11TensorIndexEEEd
FNDA:0,_ZN5neml210TensorBaseINS_4WSR4EE16batch_index_put_EN3c108ArrayRefIN2at8indexing11TensorIndexEEEd
FNDA:0,_ZN5neml210TensorBaseINS_4WWR4EE16batch_index_put_EN3c108ArrayRefIN2at8indexing11TensorIndexEEEd
FNDA:0,_ZN5neml210TensorBaseINS_5SFFR4EE16batch_index_put_EN3c108ArrayRefIN2at8indexing11TensorIndexEEEd
FNDA:0,_ZN5neml210TensorBaseINS_5SSFR5EE16batch_index_put_EN3c108ArrayRefIN2at8indexing11TensorIndexEEEd
FNDA:0,_ZN5neml210TensorBaseINS_6SSSSR8EE16batch_index_put_EN3c108ArrayRefIN2at8indexing11TensorIndexEEEd
FNDA:0,_ZN5neml210TensorBaseINS_6ScalarEE16batch_index_put_EN3c108ArrayRefIN2at8indexing11TensorIndexEEEd
FNDA:0,_ZN5neml210TensorBaseINS_6TensorEE16batch_index_put_EN3c108ArrayRefIN2at8indexing11TensorIndexEEEd
FNDA:0,_ZN5neml210TensorBaseINS_10QuaternionEE15base_index_put_EN3c108ArrayRefIN2at8indexing11TensorIndexEEERKNS5_6TensorE
FNDA:0,_ZN5neml210TensorBaseINS_11MillerIndexEE15base_index_put_EN3c108ArrayRefIN2at8indexing11TensorIndexEEERKNS5_6TensorE
FNDA:0,_ZN5neml210TensorBaseINS_2R2EE15base_index_put_EN3c108ArrayRefIN2at8indexing11TensorIndexEEERKNS5_6TensorE
FNDA:0,_ZN5neml210TensorBaseINS_2R3EE15base_index_put_EN3c108ArrayRefIN2at8indexing11TensorIndexEEERKNS5_6TensorE
FNDA:0,_ZN5neml210TensorBaseINS_2R4EE15base_index_put_EN3c108ArrayRefIN2at8indexing11TensorIndexEEERKNS5_6TensorE
FNDA:0,_ZN5neml210TensorBaseINS_2R5EE15base_index_put_EN3c108ArrayRefIN2at8indexing11TensorIndexEEERKNS5_6TensorE
FNDA:0,_ZN5neml210TensorBaseINS_2R8EE15base_index_put_EN3c108ArrayRefIN2at8indexing11TensorIndexEEERKNS5_6TensorE
FNDA:0,_ZN5neml210TensorBaseINS_3RotEE15base_index_put_EN3c108ArrayRefIN2at8indexing11TensorIndexEEERKNS5_6TensorE
FNDA:0,_ZN5neml210TensorBaseINS_3SR2EE15base_index_put_EN3c108ArrayRefIN2at8indexing11TensorIndexEEERKNS5_6TensorE
FNDA:0,_ZN5neml210TensorBaseINS_3VecEE15base_index_put_EN3c108ArrayRefIN2at8indexing11TensorIndexEEERKNS5_6TensorE
FNDA:0,_ZN5neml210TensorBaseINS_3WR2EE15base_index_put_EN3c108ArrayRefIN2at8indexing11TensorIndexEEERKNS5_6TensorE
FNDA:0,_ZN5neml210TensorBaseINS_4SFR3EE15base_index_put_EN3c108ArrayRefIN2at8indexing11TensorIndexEEERKNS5_6TensorE
FNDA:0,_ZN5neml210TensorBaseINS_4SSR4EE15base_index_put_EN3c108ArrayRefIN2at8indexing11TensorIndexEEERKNS5_6TensorE
FNDA:0,_ZN5neml210TensorBaseINS_4SWR4EE15base_index_put_EN3c108ArrayRefIN2at8indexing11TensorIndexEEERKNS5_6TensorE
FNDA:0,_ZN5neml210TensorBaseINS_4WSR4EE15base_index_put_EN3c108ArrayRefIN2at8indexing11TensorIndexEEERKNS5_6TensorE
FNDA:0,_ZN5neml210TensorBaseINS_4WWR4EE15base_index_put_EN3c108ArrayRefIN2at8indexing11TensorIndexEEERKNS5_6TensorE
FNDA:0,_ZN5neml210TensorBaseINS_5SFFR4EE15base_index_put_EN3c108ArrayRefIN2at8indexing11TensorIndexEEERKNS5_6TensorE
FNDA:0,_ZN5neml210TensorBaseINS_5SSFR5EE15base_index_put_EN3c108ArrayRefIN2at8indexing11TensorIndexEEERKNS5_6TensorE
FNDA:0,_ZN5neml210TensorBaseINS_6SSSSR8EE15base_index_put_EN3c108ArrayRefIN2at8indexing11TensorIndexEEERKNS5_6TensorE
FNDA:0,_ZN5neml210TensorBaseINS_6ScalarEE15base_index_put_EN3c108ArrayRefIN2at8indexing11TensorIndexEEERKNS5_6TensorE
FNDA:7355,_ZN5neml210TensorBaseINS_6TensorEE15base_index_put_EN3c108ArrayRefIN2at8indexing11TensorIndexEEERKNS5_6TensorE
FNDA:0,_ZN5neml210TensorBaseINS_10QuaternionEE15base_index_put_EN3c108ArrayRefIN2at8indexing11TensorIndexEEEd
FNDA:0,_ZN5neml210TensorBaseINS_11MillerIndexEE15base_index_put_EN3c108ArrayRefIN2at8indexing11TensorIndexEEEd
FNDA:0,_ZN5neml210TensorBaseINS_2R2EE15base_index_put_EN3c108ArrayRefIN2at8indexing11TensorIndexEEEd
FNDA:0,_ZN5neml210TensorBaseINS_2R3EE15base_index_put_EN3c108ArrayRefIN2at8indexing11TensorIndexEEEd
FNDA:0,_ZN5neml210TensorBaseINS_2R4EE15base_index_put_EN3c108ArrayRefIN2at8indexing11TensorIndexEEEd
FNDA:0,_ZN5neml210TensorBaseINS_2R5EE15base_index_put_EN3c108ArrayRefIN2at8indexing11TensorIndexEEEd
FNDA:0,_ZN5neml210TensorBaseINS_2R8EE15base_index_put_EN3c108ArrayRefIN2at8indexing11TensorIndexEEEd
FNDA:0,_ZN5neml210TensorBaseINS_3RotEE15base_index_put_EN3c108ArrayRefIN2at8indexing11TensorIndexEEEd
FNDA:0,_ZN5neml210TensorBaseINS_3SR2EE15base_index_put_EN3c108ArrayRefIN2at8indexing11TensorIndexEEEd
FNDA:0,_ZN5neml210TensorBaseINS_3VecEE15base_index_put_EN3c108ArrayRefIN2at8indexing11TensorIndexEEEd
FNDA:0,_ZN5neml210TensorBaseINS_3WR2EE15base_index_put_EN3c108ArrayRefIN2at8indexing11TensorIndexEEEd
FNDA:0,_ZN5neml210TensorBaseINS_4SFR3EE15base_index_put_EN3c108ArrayRefIN2at8indexing11TensorIndexEEEd
FNDA:0,_ZN5neml210TensorBaseINS_4SSR4EE15base_index_put_EN3c108ArrayRefIN2at8indexing11TensorIndexEEEd
FNDA:0,_ZN5neml210TensorBaseINS_4SWR4EE15base_index_put_EN3c108ArrayRefIN2at8indexing11TensorIndexEEEd
FNDA:0,_ZN5neml210TensorBaseINS_4WSR4EE15base_index_put_EN3c108ArrayRefIN2at8indexing11TensorIndexEEEd
FNDA:0,_ZN5neml210TensorBaseINS_4WWR4EE15base_index_put_EN3c108ArrayRefIN2at8indexing11TensorIndexEEEd
FNDA:0,_ZN5neml210TensorBaseINS_5SFFR4EE15base_index_put_EN3c108ArrayRefIN2at8indexing11TensorIndexEEEd
FNDA:0,_ZN5neml210TensorBaseINS_5SSFR5EE15base_index_put_EN3c108ArrayRefIN2at8indexing11TensorIndexEEEd
FNDA:0,_ZN5neml210TensorBaseINS_6SSSSR8EE15base_index_put_EN3c108ArrayRefIN2at8indexing11TensorIndexEEEd
FNDA:0,_ZN5neml210TensorBaseINS_6ScalarEE15base_index_put_EN3c108ArrayRefIN2at8indexing11TensorIndexEEEd
FNDA:0,_ZN5neml210TensorBaseINS_6TensorEE15base_index_put_EN3c108ArrayRefIN2at8indexing11TensorIndexEEEd
FNDA:0,_ZNK5neml210TensorBaseINS_10QuaternionEE13variable_dataEv
FNDA:0,_ZNK5neml210TensorBaseINS_11MillerIndexEE13variable_dataEv
FNDA:0,_ZNK5neml210TensorBaseINS_2R2EE13variable_dataEv
FNDA:0,_ZNK5neml210TensorBaseINS_2R3EE13variable_dataEv
FNDA:0,_ZNK5neml210TensorBaseINS_2R4EE13variable_dataEv
FNDA:0,_ZNK5neml210TensorBaseINS_2R5EE13variable_dataEv
FNDA:0,_ZNK5neml210TensorBaseINS_2R8EE13variable_dataEv
FNDA:0,_ZNK5neml210TensorBaseINS_3RotEE13variable_dataEv
FNDA:0,_ZNK5neml210TensorBaseINS_3SR2EE13variable_dataEv
FNDA:0,_ZNK5neml210TensorBaseINS_3VecEE13variable_dataEv
FNDA:0,_ZNK5neml210TensorBaseINS_3WR2EE13variable_dataEv
FNDA:0,_ZNK5neml210TensorBaseINS_4SFR3EE13variable_dataEv
FNDA:0,_ZNK5neml210TensorBaseINS_4SSR4EE13variable_dataEv
FNDA:0,_ZNK5neml210TensorBaseINS_4SWR4EE13variable_dataEv
FNDA:0,_ZNK5neml210TensorBaseINS_4WSR4EE13variable_dataEv
FNDA:0,_ZNK5neml210TensorBaseINS_4WWR4EE13variable_dataEv
FNDA:0,_ZNK5neml210TensorBaseINS_5SFFR4EE13variable_dataEv
FNDA:0,_ZNK5neml210TensorBaseINS_5SSFR5EE13variable_dataEv
FNDA:0,_ZNK5neml210TensorBaseINS_6SSSSR8EE13variable_dataEv
FNDA:0,_ZNK5neml210TensorBaseINS_6ScalarEE13variable_dataEv
FNDA:1128,_ZNK5neml210TensorBaseINS_6TensorEE13variable_dataEv
FNDA:1,_ZNK5neml210TensorBaseINS_10QuaternionEE12batch_expandERKNS_20TraceableTensorShapeE
FNDA:3,_ZNK5neml210TensorBaseINS_11MillerIndexEE12batch_expandERKNS_20TraceableTensorShapeE
FNDA:55,_ZNK5neml210TensorBaseINS_2R2EE12batch_expandERKNS_20TraceableTensorShapeE
FNDA:2,_ZNK5neml210TensorBaseINS_2R3EE12batch_expandERKNS_20TraceableTensorShapeE
FNDA:14,_ZNK5neml210TensorBaseINS_2R4EE12batch_expandERKNS_20TraceableTensorShapeE
FNDA:0,_ZNK5neml210TensorBaseINS_2R5EE12batch_expandERKNS_20TraceableTensorShapeE
FNDA:2,_ZNK5neml210TensorBaseINS_2R8EE12batch_expandERKNS_20TraceableTensorShapeE
FNDA:81,_ZNK5neml210TensorBaseINS_3RotEE12batch_expandERKNS_20TraceableTensorShapeE
FNDA:142,_ZNK5neml210TensorBaseINS_3SR2EE12batch_expandERKNS_20TraceableTensorShapeE
FNDA:41,_ZNK5neml210TensorBaseINS_3VecEE12batch_expandERKNS_20TraceableTensorShapeE
FNDA:23,_ZNK5neml210TensorBaseINS_3WR2EE12batch_expandERKNS_20TraceableTensorShapeE
FNDA:0,_ZNK5neml210TensorBaseINS_4SFR3EE12batch_expandERKNS_20TraceableTensorShapeE
FNDA:654,_ZNK5neml210TensorBaseINS_4SSR4EE12batch_expandERKNS_20TraceableTensorShapeE
FNDA:0,_ZNK5neml210TensorBaseINS_4SWR4EE12batch_expandERKNS_20TraceableTensorShapeE
FNDA:0,_ZNK5neml210TensorBaseINS_4WSR4EE12batch_expandERKNS_20TraceableTensorShapeE
FNDA:0,_ZNK5neml210TensorBaseINS_4WWR4EE12batch_expandERKNS_20TraceableTensorShapeE
FNDA:0,_ZNK5neml210TensorBaseINS_5SFFR4EE12batch_expandERKNS_20TraceableTensorShapeE
FNDA:0,_ZNK5neml210TensorBaseINS_5SSFR5EE12batch_expandERKNS_20TraceableTensorShapeE
FNDA:0,_ZNK5neml210TensorBaseINS_6SSSSR8EE12batch_expandERKNS_20TraceableTensorShapeE
FNDA:427,_ZNK5neml210TensorBaseINS_6ScalarEE12batch_expandERKNS_20TraceableTensorShapeE
FNDA:20957,_ZNK5neml210TensorBaseINS_6TensorEE12batch_expandERKNS_20TraceableTensorShapeE
FNDA:0,_ZNK5neml210TensorBaseINS_10QuaternionEE12batch_expandERKNS_13TraceableSizeEl
FNDA:0,_ZNK5neml210TensorBaseINS_11MillerIndexEE12batch_expandERKNS_13TraceableSizeEl
FNDA:0,_ZNK5neml210TensorBaseINS_2R2EE12batch_expandERKNS_13TraceableSizeEl
FNDA:0,_ZNK5neml210TensorBaseINS_2R3EE12batch_expandERKNS_13TraceableSizeEl
FNDA:0,_ZNK5neml210TensorBaseINS_2R4EE12batch_expandERKNS_13TraceableSizeEl
FNDA:0,_ZNK5neml210TensorBaseINS_2R5EE12batch_expandERKNS_13TraceableSizeEl
FNDA:0,_ZNK5neml210TensorBaseINS_2R8EE12batch_expandERKNS_13TraceableSizeEl
FNDA:0,_ZNK5neml210TensorBaseINS_3RotEE12batch_expandERKNS_13TraceableSizeEl
FNDA:0,_ZNK5neml210TensorBaseINS_3SR2EE12batch_expandERKNS_13TraceableSizeEl
FNDA:0,_ZNK5neml210TensorBaseINS_3VecEE12batch_expandERKNS_13TraceableSizeEl
FNDA:0,_ZNK5neml210TensorBaseINS_3WR2EE12batch_expandERKNS_13TraceableSizeEl
FNDA:0,_ZNK5neml210TensorBaseINS_4SFR3EE12batch_expandERKNS_13TraceableSizeEl
FNDA:0,_ZNK5neml210TensorBaseINS_4SSR4EE12batch_expandERKNS_13TraceableSizeEl
FNDA:0,_ZNK5neml210TensorBaseINS_4SWR4EE12batch_expandERKNS_13TraceableSizeEl
FNDA:0,_ZNK5neml210TensorBaseINS_4WSR4EE12batch_expandERKNS_13TraceableSizeEl
FNDA:0,_ZNK5neml210TensorBaseINS_4WWR4EE12batch_expandERKNS_13TraceableSizeEl
FNDA:0,_ZNK5neml210TensorBaseINS_5SFFR4EE12batch_expandERKNS_13TraceableSizeEl
FNDA:0,_ZNK5neml210TensorBaseINS_5SSFR5EE12batch_expandERKNS_13TraceableSizeEl
FNDA:0,_ZNK5neml210TensorBaseINS_6SSSSR8EE12batch_expandERKNS_13TraceableSizeEl
FNDA:292,_ZNK5neml210TensorBaseINS_6ScalarEE12batch_expandERKNS_13TraceableSizeEl
FNDA:0,_ZNK5neml210TensorBaseINS_6TensorEE12batch_expandERKNS_13TraceableSizeEl
FNDA:0,_ZNK5neml210TensorBaseINS_10QuaternionEE11base_expandEN3c108ArrayRefIlEE
FNDA:0,_ZNK5neml210TensorBaseINS_11MillerIndexEE11base_expandEN3c108ArrayRefIlEE
FNDA:0,_ZNK5neml210TensorBaseINS_2R2EE11base_expandEN3c108ArrayRefIlEE
FNDA:0,_ZNK5neml210TensorBaseINS_2R3EE11base_expandEN3c108ArrayRefIlEE
FNDA:0,_ZNK5neml210TensorBaseINS_2R4EE11base_expandEN3c108ArrayRefIlEE
FNDA:0,_ZNK5neml210TensorBaseINS_2R5EE11base_expandEN3c108ArrayRefIlEE
FNDA:0,_ZNK5neml210TensorBaseINS_2R8EE11base_expandEN3c108ArrayRefIlEE
FNDA:0,_ZNK5neml210TensorBaseINS_3RotEE11base_expandEN3c108ArrayRefIlEE
FNDA:0,_ZNK5neml210TensorBaseINS_3SR2EE11base_expandEN3c108ArrayRefIlEE
FNDA:0,_ZNK5neml210TensorBaseINS_3VecEE11base_expandEN3c108ArrayRefIlEE
FNDA:0,_ZNK5neml210TensorBaseINS_3WR2EE11base_expandEN3c108ArrayRefIlEE
FNDA:0,_ZNK5neml210TensorBaseINS_4SFR3EE11base_expandEN3c108ArrayRefIlEE
FNDA:0,_ZNK5neml210TensorBaseINS_4SSR4EE11base_expandEN3c108ArrayRefIlEE
FNDA:0,_ZNK5neml210TensorBaseINS_4SWR4EE11base_expandEN3c108ArrayRefIlEE
FNDA:0,_ZNK5neml210TensorBaseINS_4WSR4EE11base_expandEN3c108ArrayRefIlEE
FNDA:0,_ZNK5neml210TensorBaseINS_4WWR4EE11base_expandEN3c108ArrayRefIlEE
FNDA:0,_ZNK5neml210TensorBaseINS_5SFFR4EE11base_expandEN3c108ArrayRefIlEE
FNDA:0,_ZNK5neml210TensorBaseINS_5SSFR5EE11base_expandEN3c108ArrayRefIlEE
FNDA:0,_ZNK5neml210TensorBaseINS_6SSSSR8EE11base_expandEN3c108ArrayRefIlEE
FNDA:0,_ZNK5neml210TensorBaseINS_6ScalarEE11base_expandEN3c108ArrayRefIlEE
FNDA:3,_ZNK5neml210TensorBaseINS_6TensorEE11base_expandEN3c108ArrayRefIlEE
FNDA:0,_ZNK5neml210TensorBaseINS_10QuaternionEE11base_expandEll
FNDA:0,_ZNK5neml210TensorBaseINS_11MillerIndexEE11base_expandEll
FNDA:0,_ZNK5neml210TensorBaseINS_2R2EE11base_expandEll
FNDA:0,_ZNK5neml210TensorBaseINS_2R3EE11base_expandEll
FNDA:0,_ZNK5neml210TensorBaseINS_2R4EE11base_expandEll
FNDA:0,_ZNK5neml210TensorBaseINS_2R5EE11base_expandEll
FNDA:0,_ZNK5neml210TensorBaseINS_2R8EE11base_expandEll
FNDA:0,_ZNK5neml210TensorBaseINS_3RotEE11base_expandEll
FNDA:0,_ZNK5neml210TensorBaseINS_3SR2EE11base_expandEll
FNDA:0,_ZNK5neml210TensorBaseINS_3VecEE11base_expandEll
FNDA:0,_ZNK5neml210TensorBaseINS_3WR2EE11base_expandEll
FNDA:0,_ZNK5neml210TensorBaseINS_4SFR3EE11base_expandEll
FNDA:0,_ZNK5neml210TensorBaseINS_4SSR4EE11base_expandEll
FNDA:0,_ZNK5neml210TensorBaseINS_4SWR4EE11base_expandEll
FNDA:0,_ZNK5neml210TensorBaseINS_4WSR4EE11base_expandEll
FNDA:0,_ZNK5neml210TensorBaseINS_4WWR4EE11base_expandEll
FNDA:0,_ZNK5neml210TensorBaseINS_5SFFR4EE11base_expandEll
FNDA:0,_ZNK5neml210TensorBaseINS_5SSFR5EE11base_expandEll
FNDA:0,_ZNK5neml210TensorBaseINS_6SSSSR8EE11base_expandEll
FNDA:0,_ZNK5neml210TensorBaseINS_6ScalarEE11base_expandEll
FNDA:0,_ZNK5neml210TensorBaseINS_6TensorEE11base_expandEll
FNDA:0,_ZNK5neml210TensorBaseINS_10QuaternionEE17batch_expand_copyERKNS_20TraceableTensorShapeE
FNDA:0,_ZNK5neml210TensorBaseINS_11MillerIndexEE17batch_expand_copyERKNS_20TraceableTensorShapeE
FNDA:0,_ZNK5neml210TensorBaseINS_2R2EE17batch_expand_copyERKNS_20TraceableTensorShapeE
FNDA:0,_ZNK5neml210TensorBaseINS_2R3EE17batch_expand_copyERKNS_20TraceableTensorShapeE
FNDA:0,_ZNK5neml210TensorBaseINS_2R4EE17batch_expand_copyERKNS_20TraceableTensorShapeE
FNDA:0,_ZNK5neml210TensorBaseINS_2R5EE17batch_expand_copyERKNS_20TraceableTensorShapeE
FNDA:0,_ZNK5neml210TensorBaseINS_2R8EE17batch_expand_copyERKNS_20TraceableTensorShapeE
FNDA:0,_ZNK5neml210TensorBaseINS_3RotEE17batch_expand_copyERKNS_20TraceableTensorShapeE
FNDA:0,_ZNK5neml210TensorBaseINS_3SR2EE17batch_expand_copyERKNS_20TraceableTensorShapeE
FNDA:0,_ZNK5neml210TensorBaseINS_3VecEE17batch_expand_copyERKNS_20TraceableTensorShapeE
FNDA:0,_ZNK5neml210TensorBaseINS_3WR2EE17batch_expand_copyERKNS_20TraceableTensorShapeE
FNDA:0,_ZNK5neml210TensorBaseINS_4SFR3EE17batch_expand_copyERKNS_20TraceableTensorShapeE
FNDA:0,_ZNK5neml210TensorBaseINS_4SSR4EE17batch_expand_copyERKNS_20TraceableTensorShapeE
FNDA:0,_ZNK5neml210TensorBaseINS_4SWR4EE17batch_expand_copyERKNS_20TraceableTensorShapeE
FNDA:0,_ZNK5neml210TensorBaseINS_4WSR4EE17batch_expand_copyERKNS_20TraceableTensorShapeE
FNDA:0,_ZNK5neml210TensorBaseINS_4WWR4EE17batch_expand_copyERKNS_20TraceableTensorShapeE
FNDA:0,_ZNK5neml210TensorBaseINS_5SFFR4EE17batch_expand_copyERKNS_20TraceableTensorShapeE
FNDA:0,_ZNK5neml210TensorBaseINS_5SSFR5EE17batch_expand_copyERKNS_20TraceableTensorShapeE
FNDA:0,_ZNK5neml210TensorBaseINS_6SSSSR8EE17batch_expand_copyERKNS_20TraceableTensorShapeE
FNDA:0,_ZNK5neml210TensorBaseINS_6ScalarEE17batch_expand_copyERKNS_20TraceableTensorShapeE
FNDA:4,_ZNK5neml210TensorBaseINS_6TensorEE17batch_expand_copyERKNS_20TraceableTensorShapeE
FNDA:90,_ZN5neml210TensorBaseINS_10QuaternionEEC2ERKN2at6TensorEl
FNDA:223,_ZN5neml210TensorBaseINS_11MillerIndexEEC2ERKN2at6TensorEl
FNDA:15374,_ZN5neml210TensorBaseINS_2R2EEC2ERKN2at6TensorEl
FNDA:1964,_ZN5neml210TensorBaseINS_2R3EEC2ERKN2at6TensorEl
FNDA:1532,_ZN5neml210TensorBaseINS_2R4EEC2ERKN2at6TensorEl
FNDA:25,_ZN5neml210TensorBaseINS_2R5EEC2ERKN2at6TensorEl
FNDA:10,_ZN5neml210TensorBaseINS_2R8EEC2ERKN2at6TensorEl
FNDA:3299,_ZN5neml210TensorBaseINS_3RotEEC2ERKN2at6TensorEl
FNDA:25862,_ZN5neml210TensorBaseINS_3SR2EEC2ERKN2at6TensorEl
FNDA:6046,_ZN5neml210TensorBaseINS_3VecEEC2ERKN2at6TensorEl
FNDA:2012,_ZN5neml210TensorBaseINS_3WR2EEC2ERKN2at6TensorEl
FNDA:10,_ZN5neml210TensorBaseINS_4SFR3EEC2ERKN2at6TensorEl
FNDA:11802,_ZN5neml210TensorBaseINS_4SSR4EEC2ERKN2at6TensorEl
FNDA:0,_ZN5neml210TensorBaseINS_4SWR4EEC2ERKN2at6TensorEl
FNDA:0,_ZN5neml210TensorBaseINS_4WSR4EEC2ERKN2at6TensorEl
FNDA:64,_ZN5neml210TensorBaseINS_4WWR4EEC2ERKN2at6TensorEl
FNDA:0,_ZN5neml210TensorBaseINS_5SFFR4EEC2ERKN2at6TensorEl
FNDA:10,_ZN5neml210TensorBaseINS_5SSFR5EEC2ERKN2at6TensorEl
FNDA:8,_ZN5neml210TensorBaseINS_6SSSSR8EEC2ERKN2at6TensorEl
FNDA:83687,_ZN5neml210TensorBaseINS_6ScalarEEC2ERKN2at6TensorEl
FNDA:67217,_ZN5neml210TensorBaseINS_6TensorEEC2ERKN2at6TensorEl
FNDA:0,_ZNK5neml210TensorBaseINS_10QuaternionEE16base_expand_copyEN3c108ArrayRefIlEE
FNDA:0,_ZNK5neml210TensorBaseINS_11MillerIndexEE16base_expand_copyEN3c108ArrayRefIlEE
FNDA:0,_ZNK5neml210TensorBaseINS_2R2EE16base_expand_copyEN3c108ArrayRefIlEE
FNDA:0,_ZNK5neml210TensorBaseINS_2R3EE16base_expand_copyEN3c108ArrayRefIlEE
FNDA:0,_ZNK5neml210TensorBaseINS_2R4EE16base_expand_copyEN3c108ArrayRefIlEE
FNDA:0,_ZNK5neml210TensorBaseINS_2R5EE16base_expand_copyEN3c108ArrayRefIlEE
FNDA:0,_ZNK5neml210TensorBaseINS_2R8EE16base_expand_copyEN3c108ArrayRefIlEE
FNDA:0,_ZNK5neml210TensorBaseINS_3RotEE16base_expand_copyEN3c108ArrayRefIlEE
FNDA:0,_ZNK5neml210TensorBaseINS_3SR2EE16base_expand_copyEN3c108ArrayRefIlEE
FNDA:0,_ZNK5neml210TensorBaseINS_3VecEE16base_expand_copyEN3c108ArrayRefIlEE
FNDA:0,_ZNK5neml210TensorBaseINS_3WR2EE16base_expand_copyEN3c108ArrayRefIlEE
FNDA:0,_ZNK5neml210TensorBaseINS_4SFR3EE16base_expand_copyEN3c108ArrayRefIlEE
FNDA:0,_ZNK5neml210TensorBaseINS_4SSR4EE16base_expand_copyEN3c108ArrayRefIlEE
FNDA:0,_ZNK5neml210TensorBaseINS_4SWR4EE16base_expand_copyEN3c108ArrayRefIlEE
FNDA:0,_ZNK5neml210TensorBaseINS_4WSR4EE16base_expand_copyEN3c108ArrayRefIlEE
FNDA:0,_ZNK5neml210TensorBaseINS_4WWR4EE16base_expand_copyEN3c108ArrayRefIlEE
FNDA:0,_ZNK5neml210TensorBaseINS_5SFFR4EE16base_expand_copyEN3c108ArrayRefIlEE
FNDA:0,_ZNK5neml210TensorBaseINS_5SSFR5EE16base_expand_copyEN3c108ArrayRefIlEE
FNDA:0,_ZNK5neml210TensorBaseINS_6SSSSR8EE16base_expand_copyEN3c108ArrayRefIlEE
FNDA:0,_ZNK5neml210TensorBaseINS_6ScalarEE16base_expand_copyEN3c108ArrayRefIlEE
FNDA:1,_ZNK5neml210TensorBaseINS_6TensorEE16base_expand_copyEN3c108ArrayRefIlEE
FNDA:0,_ZNK5neml210TensorBaseINS_10QuaternionEE13batch_reshapeERKNS_20TraceableTensorShapeE
FNDA:0,_ZNK5neml210TensorBaseINS_11MillerIndexEE13batch_reshapeERKNS_20TraceableTensorShapeE
FNDA:0,_ZNK5neml210TensorBaseINS_2R2EE13batch_reshapeERKNS_20TraceableTensorShapeE
FNDA:0,_ZNK5neml210TensorBaseINS_2R3EE13batch_reshapeERKNS_20TraceableTensorShapeE
FNDA:0,_ZNK5neml210TensorBaseINS_2R4EE13batch_reshapeERKNS_20TraceableTensorShapeE
FNDA:0,_ZNK5neml210TensorBaseINS_2R5EE13batch_reshapeERKNS_20TraceableTensorShapeE
FNDA:0,_ZNK5neml210TensorBaseINS_2R8EE13batch_reshapeERKNS_20TraceableTensorShapeE
FNDA:0,_ZNK5neml210TensorBaseINS_3RotEE13batch_reshapeERKNS_20TraceableTensorShapeE
FNDA:40,_ZNK5neml210TensorBaseINS_3SR2EE13batch_reshapeERKNS_20TraceableTensorShapeE
FNDA:0,_ZNK5neml210TensorBaseINS_3VecEE13batch_reshapeERKNS_20TraceableTensorShapeE
FNDA:0,_ZNK5neml210TensorBaseINS_3WR2EE13batch_reshapeERKNS_20TraceableTensorShapeE
FNDA:0,_ZNK5neml210TensorBaseINS_4SFR3EE13batch_reshapeERKNS_20TraceableTensorShapeE
FNDA:0,_ZNK5neml210TensorBaseINS_4SSR4EE13batch_reshapeERKNS_20TraceableTensorShapeE
FNDA:0,_ZNK5neml210TensorBaseINS_4SWR4EE13batch_reshapeERKNS_20TraceableTensorShapeE
FNDA:0,_ZNK5neml210TensorBaseINS_4WSR4EE13batch_reshapeERKNS_20TraceableTensorShapeE
FNDA:0,_ZNK5neml210TensorBaseINS_4WWR4EE13batch_reshapeERKNS_20TraceableTensorShapeE
FNDA:0,_ZNK5neml210TensorBaseINS_5SFFR4EE13batch_reshapeERKNS_20TraceableTensorShapeE
FNDA:0,_ZNK5neml210TensorBaseINS_5SSFR5EE13batch_reshapeERKNS_20TraceableTensorShapeE
FNDA:0,_ZNK5neml210TensorBaseINS_6SSSSR8EE13batch_reshapeERKNS_20TraceableTensorShapeE
FNDA:154,_ZNK5neml210TensorBaseINS_6ScalarEE13batch_reshapeERKNS_20TraceableTensorShapeE
FNDA:0,_ZNK5neml210TensorBaseINS_6TensorEE13batch_reshapeERKNS_20TraceableTensorShapeE
FNDA:0,_ZNK5neml210TensorBaseINS_10QuaternionEE12base_reshapeEN3c108ArrayRefIlEE
FNDA:0,_ZNK5neml210TensorBaseINS_11MillerIndexEE12base_reshapeEN3c108ArrayRefIlEE
FNDA:0,_ZNK5neml210TensorBaseINS_2R2EE12base_reshapeEN3c108ArrayRefIlEE
FNDA:0,_ZNK5neml210TensorBaseINS_2R3EE12base_reshapeEN3c108ArrayRefIlEE
FNDA:0,_ZNK5neml210TensorBaseINS_2R4EE12base_reshapeEN3c108ArrayRefIlEE
FNDA:0,_ZNK5neml210TensorBaseINS_2R5EE12base_reshapeEN3c108ArrayRefIlEE
FNDA:0,_ZNK5neml210TensorBaseINS_2R8EE12base_reshapeEN3c108ArrayRefIlEE
FNDA:0,_ZNK5neml210TensorBaseINS_3RotEE12base_reshapeEN3c108ArrayRefIlEE
FNDA:0,_ZNK5neml210TensorBaseINS_3SR2EE12base_reshapeEN3c108ArrayRefIlEE
FNDA:0,_ZNK5neml210TensorBaseINS_3VecEE12base_reshapeEN3c108ArrayRefIlEE
FNDA:0,_ZNK5neml210TensorBaseINS_3WR2EE12base_reshapeEN3c108ArrayRefIlEE
FNDA:0,_ZNK5neml210TensorBaseINS_4SFR3EE12base_reshapeEN3c108ArrayRefIlEE
FNDA:1,_ZNK5neml210TensorBaseINS_4SSR4EE12base_reshapeEN3c108ArrayRefIlEE
FNDA:0,_ZNK5neml210TensorBaseINS_4SWR4EE12base_reshapeEN3c108ArrayRefIlEE
FNDA:0,_ZNK5neml210TensorBaseINS_4WSR4EE12base_reshapeEN3c108ArrayRefIlEE
FNDA:0,_ZNK5neml210TensorBaseINS_4WWR4EE12base_reshapeEN3c108ArrayRefIlEE
FNDA:0,_ZNK5neml210TensorBaseINS_5SFFR4EE12base_reshapeEN3c108ArrayRefIlEE
FNDA:0,_ZNK5neml210TensorBaseINS_5SSFR5EE12base_reshapeEN3c108ArrayRefIlEE
FNDA:0,_ZNK5neml210TensorBaseINS_6SSSSR8EE12base_reshapeEN3c108ArrayRefIlEE
FNDA:9,_ZNK5neml210TensorBaseINS_6ScalarEE12base_reshapeEN3c108ArrayRefIlEE
FNDA:43555,_ZNK5neml210TensorBaseINS_6TensorEE12base_reshapeEN3c108ArrayRefIlEE
FNDA:0,_ZNK5neml210TensorBaseINS_10QuaternionEE15batch_unsqueezeEl
FNDA:0,_ZNK5neml210TensorBaseINS_11MillerIndexEE15batch_unsqueezeEl
FNDA:440,_ZNK5neml210TensorBaseINS_2R2EE15batch_unsqueezeEl
FNDA:4,_ZNK5neml210TensorBaseINS_2R3EE15batch_unsqueezeEl
FNDA:4,_ZNK5neml210TensorBaseINS_2R4EE15batch_unsqueezeEl
FNDA:4,_ZNK5neml210TensorBaseINS_2R5EE15batch_unsqueezeEl
FNDA:0,_ZNK5neml210TensorBaseINS_2R8EE15batch_unsqueezeEl
FNDA:6,_ZNK5neml210TensorBaseINS_3RotEE15batch_unsqueezeEl
FNDA:328,_ZNK5neml210TensorBaseINS_3SR2EE15batch_unsqueezeEl
FNDA:4,_ZNK5neml210TensorBaseINS_3VecEE15batch_unsqueezeEl
FNDA:2,_ZNK5neml210TensorBaseINS_3WR2EE15batch_unsqueezeEl
FNDA:4,_ZNK5neml210TensorBaseINS_4SFR3EE15batch_unsqueezeEl
FNDA:4,_ZNK5neml210TensorBaseINS_4SSR4EE15batch_unsqueezeEl
FNDA:0,_ZNK5neml210TensorBaseINS_4SWR4EE15batch_unsqueezeEl
FNDA:0,_ZNK5neml210TensorBaseINS_4WSR4EE15batch_unsqueezeEl
FNDA:0,_ZNK5neml210TensorBaseINS_4WWR4EE15batch_unsqueezeEl
FNDA:0,_ZNK5neml210TensorBaseINS_5SFFR4EE15batch_unsqueezeEl
FNDA:4,_ZNK5neml210TensorBaseINS_5SSFR5EE15batch_unsqueezeEl
FNDA:0,_ZNK5neml210TensorBaseINS_6SSSSR8EE15batch_unsqueezeEl
FNDA:651,_ZNK5neml210TensorBaseINS_6ScalarEE15batch_unsqueezeEl
FNDA:77,_ZNK5neml210TensorBaseINS_6TensorEE15batch_unsqueezeEl
FNDA:0,_ZNK5neml210TensorBaseINS_10QuaternionEE14base_unsqueezeEl
FNDA:0,_ZNK5neml210TensorBaseINS_11MillerIndexEE14base_unsqueezeEl
FNDA:0,_ZNK5neml210TensorBaseINS_2R2EE14base_unsqueezeEl
FNDA:0,_ZNK5neml210TensorBaseINS_2R3EE14base_unsqueezeEl
FNDA:0,_ZNK5neml210TensorBaseINS_2R4EE14base_unsqueezeEl
FNDA:0,_ZNK5neml210TensorBaseINS_2R5EE14base_unsqueezeEl
FNDA:0,_ZNK5neml210TensorBaseINS_2R8EE14base_unsqueezeEl
FNDA:0,_ZNK5neml210TensorBaseINS_3RotEE14base_unsqueezeEl
FNDA:0,_ZNK5neml210TensorBaseINS_3SR2EE14base_unsqueezeEl
FNDA:0,_ZNK5neml210TensorBaseINS_3VecEE14base_unsqueezeEl
FNDA:0,_ZNK5neml210TensorBaseINS_3WR2EE14base_unsqueezeEl
FNDA:0,_ZNK5neml210TensorBaseINS_4SFR3EE14base_unsqueezeEl
FNDA:0,_ZNK5neml210TensorBaseINS_4SSR4EE14base_unsqueezeEl
FNDA:0,_ZNK5neml210TensorBaseINS_4SWR4EE14base_unsqueezeEl
FNDA:0,_ZNK5neml210TensorBaseINS_4WSR4EE14base_unsqueezeEl
FNDA:0,_ZNK5neml210TensorBaseINS_4WWR4EE14base_unsqueezeEl
FNDA:0,_ZNK5neml210TensorBaseINS_5SFFR4EE14base_unsqueezeEl
FNDA:0,_ZNK5neml210TensorBaseINS_5SSFR5EE14base_unsqueezeEl
FNDA:0,_ZNK5neml210TensorBaseINS_6SSSSR8EE14base_unsqueezeEl
FNDA:0,_ZNK5neml210TensorBaseINS_6ScalarEE14base_unsqueezeEl
FNDA:39,_ZNK5neml210TensorBaseINS_6TensorEE14base_unsqueezeEl
FNDA:0,_ZNK5neml210TensorBaseINS_10QuaternionEE15batch_transposeEll
FNDA:0,_ZNK5neml210TensorBaseINS_11MillerIndexEE15batch_transposeEll
FNDA:0,_ZNK5neml210TensorBaseINS_2R2EE15batch_transposeEll
FNDA:0,_ZNK5neml210TensorBaseINS_2R3EE15batch_transposeEll
FNDA:0,_ZNK5neml210TensorBaseINS_2R4EE15batch_transposeEll
FNDA:0,_ZNK5neml210TensorBaseINS_2R5EE15batch_transposeEll
FNDA:0,_ZNK5neml210TensorBaseINS_2R8EE15batch_transposeEll
FNDA:0,_ZNK5neml210TensorBaseINS_3RotEE15batch_transposeEll
FNDA:0,_ZNK5neml210TensorBaseINS_3SR2EE15batch_transposeEll
FNDA:0,_ZNK5neml210TensorBaseINS_3VecEE15batch_transposeEll
FNDA:0,_ZNK5neml210TensorBaseINS_3WR2EE15batch_transposeEll
FNDA:0,_ZNK5neml210TensorBaseINS_4SFR3EE15batch_transposeEll
FNDA:0,_ZNK5neml210TensorBaseINS_4SSR4EE15batch_transposeEll
FNDA:0,_ZNK5neml210TensorBaseINS_4SWR4EE15batch_transposeEll
FNDA:0,_ZNK5neml210TensorBaseINS_4WSR4EE15batch_transposeEll
FNDA:0,_ZNK5neml210TensorBaseINS_4WWR4EE15batch_transposeEll
FNDA:0,_ZNK5neml210TensorBaseINS_5SFFR4EE15batch_transposeEll
FNDA:0,_ZNK5neml210TensorBaseINS_5SSFR5EE15batch_transposeEll
FNDA:0,_ZNK5neml210TensorBaseINS_6SSSSR8EE15batch_transposeEll
FNDA:0,_ZNK5neml210TensorBaseINS_6ScalarEE15batch_transposeEll
FNDA:1,_ZNK5neml210TensorBaseINS_6TensorEE15batch_transposeEll
FNDA:0,_ZNK5neml210TensorBaseINS_10QuaternionEE14base_transposeEll
FNDA:0,_ZNK5neml210TensorBaseINS_11MillerIndexEE14base_transposeEll
FNDA:2411,_ZNK5neml210TensorBaseINS_2R2EE14base_transposeEll
FNDA:0,_ZNK5neml210TensorBaseINS_2R3EE14base_transposeEll
FNDA:906,_ZNK5neml210TensorBaseINS_2R4EE14base_transposeEll
FNDA:0,_ZNK5neml210TensorBaseINS_2R5EE14base_transposeEll
FNDA:0,_ZNK5neml210TensorBaseINS_2R8EE14base_transposeEll
FNDA:0,_ZNK5neml210TensorBaseINS_3RotEE14base_transposeEll
FNDA:0,_ZNK5neml210TensorBaseINS_3SR2EE14base_transposeEll
FNDA:0,_ZNK5neml210TensorBaseINS_3VecEE14base_transposeEll
FNDA:0,_ZNK5neml210TensorBaseINS_3WR2EE14base_transposeEll
FNDA:0,_ZNK5neml210TensorBaseINS_4SFR3EE14base_transposeEll
FNDA:0,_ZNK5neml210TensorBaseINS_4SSR4EE14base_transposeEll
FNDA:0,_ZNK5neml210TensorBaseINS_4SWR4EE14base_transposeEll
FNDA:0,_ZNK5neml210TensorBaseINS_4WSR4EE14base_transposeEll
FNDA:0,_ZNK5neml210TensorBaseINS_4WWR4EE14base_transposeEll
FNDA:0,_ZNK5neml210TensorBaseINS_5SFFR4EE14base_transposeEll
FNDA:0,_ZNK5neml210TensorBaseINS_5SSFR5EE14base_transposeEll
FNDA:0,_ZNK5neml210TensorBaseINS_6SSSSR8EE14base_transposeEll
FNDA:0,_ZNK5neml210TensorBaseINS_6ScalarEE14base_transposeEll
FNDA:430,_ZNK5neml210TensorBaseINS_6TensorEE14base_transposeEll
FNDA:0,_ZNK5neml210TensorBaseINS_10QuaternionEE12base_flattenEv
FNDA:0,_ZNK5neml210TensorBaseINS_11MillerIndexEE12base_flattenEv
FNDA:0,_ZNK5neml210TensorBaseINS_2R2EE12base_flattenEv
FNDA:0,_ZNK5neml210TensorBaseINS_2R3EE12base_flattenEv
FNDA:0,_ZNK5neml210TensorBaseINS_2R4EE12base_flattenEv
FNDA:0,_ZNK5neml210TensorBaseINS_2R5EE12base_flattenEv
FNDA:0,_ZNK5neml210TensorBaseINS_2R8EE12base_flattenEv
FNDA:0,_ZNK5neml210TensorBaseINS_3RotEE12base_flattenEv
FNDA:3,_ZNK5neml210TensorBaseINS_3SR2EE12base_flattenEv
FNDA:0,_ZNK5neml210TensorBaseINS_3VecEE12base_flattenEv
FNDA:0,_ZNK5neml210TensorBaseINS_3WR2EE12base_flattenEv
FNDA:0,_ZNK5neml210TensorBaseINS_4SFR3EE12base_flattenEv
FNDA:0,_ZNK5neml210TensorBaseINS_4SSR4EE12base_flattenEv
FNDA:0,_ZNK5neml210TensorBaseINS_4SWR4EE12base_flattenEv
FNDA:0,_ZNK5neml210TensorBaseINS_4WSR4EE12base_flattenEv
FNDA:0,_ZNK5neml210TensorBaseINS_4WWR4EE12base_flattenEv
FNDA:0,_ZNK5neml210TensorBaseINS_5SFFR4EE12base_flattenEv
FNDA:0,_ZNK5neml210TensorBaseINS_5SSFR5EE12base_flattenEv
FNDA:0,_ZNK5neml210TensorBaseINS_6SSSSR8EE12base_flattenEv
FNDA:9,_ZNK5neml210TensorBaseINS_6ScalarEE12base_flattenEv
FNDA:8487,_ZNK5neml210TensorBaseINS_6TensorEE12base_flattenEv
FNDA:0,_ZNK5neml210TensorBaseINS_10QuaternionEEngEv
FNDA:0,_ZNK5neml210TensorBaseINS_11MillerIndexEEngEv
FNDA:143,_ZNK5neml210TensorBaseINS_2R2EEngEv
FNDA:0,_ZNK5neml210TensorBaseINS_2R3EEngEv
FNDA:0,_ZNK5neml210TensorBaseINS_2R4EEngEv
FNDA:0,_ZNK5neml210TensorBaseINS_2R5EEngEv
FNDA:0,_ZNK5neml210TensorBaseINS_2R8EEngEv
FNDA:13,_ZNK5neml210TensorBaseINS_3RotEEngEv
FNDA:23,_ZNK5neml210TensorBaseINS_3SR2EEngEv
FNDA:1120,_ZNK5neml210TensorBaseINS_3VecEEngEv
FNDA:0,_ZNK5neml210TensorBaseINS_3WR2EEngEv
FNDA:0,_ZNK5neml210TensorBaseINS_4SFR3EEngEv
FNDA:1254,_ZNK5neml210TensorBaseINS_4SSR4EEngEv
FNDA:0,_ZNK5neml210TensorBaseINS_4SWR4EEngEv
FNDA:0,_ZNK5neml210TensorBaseINS_4WSR4EEngEv
FNDA:63,_ZNK5neml210TensorBaseINS_4WWR4EEngEv
FNDA:0,_ZNK5neml210TensorBaseINS_5SFFR4EEngEv
FNDA:0,_ZNK5neml210TensorBaseINS_5SSFR5EEngEv
FNDA:0,_ZNK5neml210TensorBaseINS_6SSSSR8EEngEv
FNDA:9446,_ZNK5neml210TensorBaseINS_6ScalarEEngEv
FNDA:1302,_ZNK5neml210TensorBaseINS_6TensorEEngEv
FNDA:3,_ZN5neml210TensorBaseINS_10QuaternionEEC2ERKN2at6TensorERKNS_20TraceableTensorShapeE
FNDA:150,_ZN5neml210TensorBaseINS_11MillerIndexEEC2ERKN2at6TensorERKNS_20TraceableTensorShapeE
FNDA:3653,_ZN5neml210TensorBaseINS_2R2EEC2ERKN2at6TensorERKNS_20TraceableTensorShapeE
FNDA:2,_ZN5neml210TensorBaseINS_2R3EEC2ERKN2at6TensorERKNS_20TraceableTensorShapeE
FNDA:398,_ZN5neml210TensorBaseINS_2R4EEC2ERKN2at6TensorERKNS_20TraceableTensorShapeE
FNDA:0,_ZN5neml210TensorBaseINS_2R5EEC2ERKN2at6TensorERKNS_20TraceableTensorShapeE
FNDA:2,_ZN5neml210TensorBaseINS_2R8EEC2ERKN2at6TensorERKNS_20TraceableTensorShapeE
FNDA:1177,_ZN5neml210TensorBaseINS_3RotEEC2ERKN2at6TensorERKNS_20TraceableTensorShapeE
FNDA:9919,_ZN5neml210TensorBaseINS_3SR2EEC2ERKN2at6TensorERKNS_20TraceableTensorShapeE
FNDA:1202,_ZN5neml210TensorBaseINS_3VecEEC2ERKN2at6TensorERKNS_20TraceableTensorShapeE
FNDA:485,_ZN5neml210TensorBaseINS_3WR2EEC2ERKN2at6TensorERKNS_20TraceableTensorShapeE
FNDA:0,_ZN5neml210TensorBaseINS_4SFR3EEC2ERKN2at6TensorERKNS_20TraceableTensorShapeE
FNDA:2945,_ZN5neml210TensorBaseINS_4SSR4EEC2ERKN2at6TensorERKNS_20TraceableTensorShapeE
FNDA:0,_ZN5neml210TensorBaseINS_4SWR4EEC2ERKN2at6TensorERKNS_20TraceableTensorShapeE
FNDA:0,_ZN5neml210TensorBaseINS_4WSR4EEC2ERKN2at6TensorERKNS_20TraceableTensorShapeE
FNDA:63,_ZN5neml210TensorBaseINS_4WWR4EEC2ERKN2at6TensorERKNS_20TraceableTensorShapeE
FNDA:0,_ZN5neml210TensorBaseINS_5SFFR4EEC2ERKN2at6TensorERKNS_20TraceableTensorShapeE
FNDA:0,_ZN5neml210TensorBaseINS_5SSFR5EEC2ERKN2at6TensorERKNS_20TraceableTensorShapeE
FNDA:0,_ZN5neml210TensorBaseINS_6SSSSR8EEC2ERKN2at6TensorERKNS_20TraceableTensorShapeE
FNDA:68822,_ZN5neml210TensorBaseINS_6ScalarEEC2ERKN2at6TensorERKNS_20TraceableTensorShapeE
FNDA:213078,_ZN5neml210TensorBaseINS_6TensorEEC2ERKN2at6TensorERKNS_20TraceableTensorShapeE
FNDA:0,_ZN5neml210TensorBaseINS_10QuaternionEE10empty_likeERKS1_
FNDA:0,_ZN5neml210TensorBaseINS_11MillerIndexEE10empty_likeERKS1_
FNDA:0,_ZN5neml210TensorBaseINS_2R2EE10empty_likeERKS1_
FNDA:0,_ZN5neml210TensorBaseINS_2R3EE10empty_likeERKS1_
FNDA:0,_ZN5neml210TensorBaseINS_2R4EE10empty_likeERKS1_
FNDA:0,_ZN5neml210TensorBaseINS_2R5EE10empty_likeERKS1_
FNDA:0,_ZN5neml210TensorBaseINS_2R8EE10empty_likeERKS1_
FNDA:0,_ZN5neml210TensorBaseINS_3RotEE10empty_likeERKS1_
FNDA:0,_ZN5neml210TensorBaseINS_3SR2EE10empty_likeERKS1_
FNDA:0,_ZN5neml210TensorBaseINS_3VecEE10empty_likeERKS1_
FNDA:0,_ZN5neml210TensorBaseINS_3WR2EE10empty_likeERKS1_
FNDA:0,_ZN5neml210TensorBaseINS_4SFR3EE10empty_likeERKS1_
FNDA:0,_ZN5neml210TensorBaseINS_4SSR4EE10empty_likeERKS1_
FNDA:0,_ZN5neml210TensorBaseINS_4SWR4EE10empty_likeERKS1_
FNDA:0,_ZN5neml210TensorBaseINS_4WSR4EE10empty_likeERKS1_
FNDA:0,_ZN5neml210TensorBaseINS_4WWR4EE10empty_likeERKS1_
FNDA:0,_ZN5neml210TensorBaseINS_5SFFR4EE10empty_likeERKS1_
FNDA:0,_ZN5neml210TensorBaseINS_5SSFR5EE10empty_likeERKS1_
FNDA:0,_ZN5neml210TensorBaseINS_6SSSSR8EE10empty_likeERKS1_
FNDA:0,_ZN5neml210TensorBaseINS_6ScalarEE10empty_likeERKS1_
FNDA:1,_ZN5neml210TensorBaseINS_6TensorEE10empty_likeERKS1_
FNDA:0,_ZN5neml210TensorBaseINS_10QuaternionEE10zeros_likeERKS1_
FNDA:0,_ZN5neml210TensorBaseINS_11MillerIndexEE10zeros_likeERKS1_
FNDA:0,_ZN5neml210TensorBaseINS_2R2EE10zeros_likeERKS1_
FNDA:0,_ZN5neml210TensorBaseINS_2R3EE10zeros_likeERKS1_
FNDA:0,_ZN5neml210TensorBaseINS_2R4EE10zeros_likeERKS1_
FNDA:0,_ZN5neml210TensorBaseINS_2R5EE10zeros_likeERKS1_
FNDA:0,_ZN5neml210TensorBaseINS_2R8EE10zeros_likeERKS1_
FNDA:0,_ZN5neml210TensorBaseINS_3RotEE10zeros_likeERKS1_
FNDA:0,_ZN5neml210TensorBaseINS_3SR2EE10zeros_likeERKS1_
FNDA:0,_ZN5neml210TensorBaseINS_3VecEE10zeros_likeERKS1_
FNDA:0,_ZN5neml210TensorBaseINS_3WR2EE10zeros_likeERKS1_
FNDA:0,_ZN5neml210TensorBaseINS_4SFR3EE10zeros_likeERKS1_
FNDA:0,_ZN5neml210TensorBaseINS_4SSR4EE10zeros_likeERKS1_
FNDA:0,_ZN5neml210TensorBaseINS_4SWR4EE10zeros_likeERKS1_
FNDA:0,_ZN5neml210TensorBaseINS_4WSR4EE10zeros_likeERKS1_
FNDA:0,_ZN5neml210TensorBaseINS_4WWR4EE10zeros_likeERKS1_
FNDA:0,_ZN5neml210TensorBaseINS_5SFFR4EE10zeros_likeERKS1_
FNDA:0,_ZN5neml210TensorBaseINS_5SSFR5EE10zeros_likeERKS1_
FNDA:0,_ZN5neml210TensorBaseINS_6SSSSR8EE10zeros_likeERKS1_
FNDA:63,_ZN5neml210TensorBaseINS_6ScalarEE10zeros_likeERKS1_
FNDA:115,_ZN5neml210TensorBaseINS_6TensorEE10zeros_likeERKS1_
FNDA:0,_ZN5neml210TensorBaseINS_10QuaternionEE9ones_likeERKS1_
FNDA:0,_ZN5neml210TensorBaseINS_11MillerIndexEE9ones_likeERKS1_
FNDA:0,_ZN5neml210TensorBaseINS_2R2EE9ones_likeERKS1_
FNDA:0,_ZN5neml210TensorBaseINS_2R3EE9ones_likeERKS1_
FNDA:0,_ZN5neml210TensorBaseINS_2R4EE9ones_likeERKS1_
FNDA:0,_ZN5neml210TensorBaseINS_2R5EE9ones_likeERKS1_
FNDA:0,_ZN5neml210TensorBaseINS_2R8EE9ones_likeERKS1_
FNDA:0,_ZN5neml210TensorBaseINS_3RotEE9ones_likeERKS1_
FNDA:0,_ZN5neml210TensorBaseINS_3SR2EE9ones_likeERKS1_
FNDA:0,_ZN5neml210TensorBaseINS_3VecEE9ones_likeERKS1_
FNDA:0,_ZN5neml210TensorBaseINS_3WR2EE9ones_likeERKS1_
FNDA:0,_ZN5neml210TensorBaseINS_4SFR3EE9ones_likeERKS1_
FNDA:0,_ZN5neml210TensorBaseINS_4SSR4EE9ones_likeERKS1_
FNDA:0,_ZN5neml210TensorBaseINS_4SWR4EE9ones_likeERKS1_
FNDA:0,_ZN5neml210TensorBaseINS_4WSR4EE9ones_likeERKS1_
FNDA:0,_ZN5neml210TensorBaseINS_4WWR4EE9ones_likeERKS1_
FNDA:0,_ZN5neml210TensorBaseINS_5SFFR4EE9ones_likeERKS1_
FNDA:0,_ZN5neml210TensorBaseINS_5SSFR5EE9ones_likeERKS1_
FNDA:0,_ZN5neml210TensorBaseINS_6SSSSR8EE9ones_likeERKS1_
FNDA:26,_ZN5neml210TensorBaseINS_6ScalarEE9ones_likeERKS1_
FNDA:242,_ZN5neml210TensorBaseINS_6TensorEE9ones_likeERKS1_
FNDA:0,_ZN5neml210TensorBaseINS_10QuaternionEE9full_likeERKS1_d
FNDA:0,_ZN5neml210TensorBaseINS_11MillerIndexEE9full_likeERKS1_d
FNDA:0,_ZN5neml210TensorBaseINS_2R2EE9full_likeERKS1_d
FNDA:0,_ZN5neml210TensorBaseINS_2R3EE9full_likeERKS1_d
FNDA:0,_ZN5neml210TensorBaseINS_2R4EE9full_likeERKS1_d
FNDA:0,_ZN5neml210TensorBaseINS_2R5EE9full_likeERKS1_d
FNDA:0,_ZN5neml210TensorBaseINS_2R8EE9full_likeERKS1_d
FNDA:0,_ZN5neml210TensorBaseINS_3RotEE9full_likeERKS1_d
FNDA:0,_ZN5neml210TensorBaseINS_3SR2EE9full_likeERKS1_d
FNDA:0,_ZN5neml210TensorBaseINS_3VecEE9full_likeERKS1_d
FNDA:0,_ZN5neml210TensorBaseINS_3WR2EE9full_likeERKS1_d
FNDA:0,_ZN5neml210TensorBaseINS_4SFR3EE9full_likeERKS1_d
FNDA:0,_ZN5neml210TensorBaseINS_4SSR4EE9full_likeERKS1_d
FNDA:0,_ZN5neml210TensorBaseINS_4SWR4EE9full_likeERKS1_d
FNDA:0,_ZN5neml210TensorBaseINS_4WSR4EE9full_likeERKS1_d
FNDA:0,_ZN5neml210TensorBaseINS_4WWR4EE9full_likeERKS1_d
FNDA:0,_ZN5neml210TensorBaseINS_5SFFR4EE9full_likeERKS1_d
FNDA:0,_ZN5neml210TensorBaseINS_5SSFR5EE9full_likeERKS1_d
FNDA:0,_ZN5neml210TensorBaseINS_6SSSSR8EE9full_likeERKS1_d
FNDA:8,_ZN5neml210TensorBaseINS_6ScalarEE9full_likeERKS1_d
FNDA:1,_ZN5neml210TensorBaseINS_6TensorEE9full_likeERKS1_d
FNDA:0,_ZN5neml210TensorBaseINS_10QuaternionEE8linspaceERKS1_S4_ll
FNDA:0,_ZN5neml210TensorBaseINS_11MillerIndexEE8linspaceERKS1_S4_ll
FNDA:2,_ZN5neml210TensorBaseINS_2R2EE8linspaceERKS1_S4_ll
FNDA:2,_ZN5neml210TensorBaseINS_2R3EE8linspaceERKS1_S4_ll
FNDA:2,_ZN5neml210TensorBaseINS_2R4EE8linspaceERKS1_S4_ll
FNDA:2,_ZN5neml210TensorBaseINS_2R5EE8linspaceERKS1_S4_ll
FNDA:0,_ZN5neml210TensorBaseINS_2R8EE8linspaceERKS1_S4_ll
FNDA:2,_ZN5neml210TensorBaseINS_3RotEE8linspaceERKS1_S4_ll
FNDA:13,_ZN5neml210TensorBaseINS_3SR2EE8linspaceERKS1_S4_ll
FNDA:2,_ZN5neml210TensorBaseINS_3VecEE8linspaceERKS1_S4_ll
FNDA:1,_ZN5neml210TensorBaseINS_3WR2EE8linspaceERKS1_S4_ll
FNDA:2,_ZN5neml210TensorBaseINS_4SFR3EE8linspaceERKS1_S4_ll
FNDA:2,_ZN5neml210TensorBaseINS_4SSR4EE8linspaceERKS1_S4_ll
FNDA:0,_ZN5neml210TensorBaseINS_4SWR4EE8linspaceERKS1_S4_ll
FNDA:0,_ZN5neml210TensorBaseINS_4WSR4EE8linspaceERKS1_S4_ll
FNDA:0,_ZN5neml210TensorBaseINS_4WWR4EE8linspaceERKS1_S4_ll
FNDA:0,_ZN5neml210TensorBaseINS_5SFFR4EE8linspaceERKS1_S4_ll
FNDA:2,_ZN5neml210TensorBaseINS_5SSFR5EE8linspaceERKS1_S4_ll
FNDA:0,_ZN5neml210TensorBaseINS_6SSSSR8EE8linspaceERKS1_S4_ll
FNDA:61,_ZN5neml210TensorBaseINS_6ScalarEE8linspaceERKS1_S4_ll
FNDA:37,_ZN5neml210TensorBaseINS_6TensorEE8linspaceERKS1_S4_ll
FNF:840
FNH:238
DA:33,219235
DA:35,219235
DA:36,219235
DA:38,219235
DA:40,219235
DA:42,219235
DA:43,219235
DA:46,301899
DA:49,301899
DA:50,603798
DA:52,301899
DA:54,301899
DA:57,301899
DA:61,1
DA:63,1
DA:68,178
DA:70,178
DA:75,268
DA:77,268
DA:82,9
DA:84,9
DA:89,130
DA:91,130
DA:92,130
DA:94,130
DA:96,130
DA:98,130
DA:99,130
DA:101,130
DA:102,130
DA:103,130
DA:104,130
DA:106,130
DA:107,130
DA:109,130
DA:110,0
DA:114,30
DA:117,30
DA:118,60
DA:119,30
DA:123,15247
DA:125,15247
DA:130,0
DA:132,0
DA:137,106
DA:139,106
DA:144,18
DA:146,18
DA:151,647749
DA:153,647749
DA:158,213739
DA:160,213739
DA:165,1406342
DA:167,1406342
DA:172,3284
DA:174,3284
DA:177,3284
DA:178,0
DA:180,3284
DA:185,979805
DA:187,979805
DA:192,41780
DA:194,41780
DA:199,4737
DA:201,4737
DA:206,5566
DA:208,5566
DA:209,5566
DA:210,5566
DA:211,11132
DA:212,5566
DA:216,25675
DA:218,25675
DA:219,25675
DA:220,51350
DA:221,25675
DA:225,150
DA:228,150
DA:229,150
DA:230,150
DA:231,150
DA:235,0
DA:237,0
DA:238,0
DA:239,0
DA:240,0
DA:244,7355
DA:247,7355
DA:248,7355
DA:249,7355
DA:250,7355
DA:254,0
DA:256,0
DA:257,0
DA:258,0
DA:259,0
DA:263,1128
DA:265,1128
DA:270,22402
DA:273,22402
DA:274,22402
DA:277,31236
DA:278,8834
DA:279,16245
DA:281,44804
DA:282,22402
DA:286,292
DA:289,292
DA:290,292
DA:291,292
DA:294,292
DA:295,0
DA:297,584
DA:298,292
DA:302,3
DA:304,3
DA:305,0
DA:308,3
DA:309,3
DA:310,3
DA:311,3
DA:315,0
DA:317,0
DA:318,0
DA:321,0
DA:322,0
DA:323,0
DA:324,0
DA:325,0
DA:329,4
DA:331,4
DA:336,1
DA:338,1
DA:343,194
DA:346,324
DA:347,130
DA:348,0
DA:349,0
DA:351,194
DA:356,43565
DA:358,43565
DA:361,50695
DA:362,7130
DA:363,225
DA:364,75
DA:367,87130
DA:368,43565
DA:372,1532
DA:374,1532
DA:375,1532
DA:380,39
DA:382,39
DA:383,39
DA:388,1
DA:391,0
DA:392,1
DA:397,3747
DA:400,7242
DA:401,3747
DA:406,8499
DA:408,8499
DA:409,3902
DA:411,4597
DA:416,13364
DA:418,13364
LF:165
LH:138
end_of_record
TN:
SF:/home/runner/work/neml2/neml2/src/neml2/tensors/TensorValue.cxx
FN:32,35,_ZN5neml211TensorValueINS_10QuaternionEE3to_ERKN3c1013TensorOptionsE
FN:32,35,_ZN5neml211TensorValueINS_11MillerIndexEE3to_ERKN3c1013TensorOptionsE
FN:32,35,_ZN5neml211TensorValueINS_2R2EE3to_ERKN3c1013TensorOptionsE
FN:32,35,_ZN5neml211TensorValueINS_2R3EE3to_ERKN3c1013TensorOptionsE
FN:32,35,_ZN5neml211TensorValueINS_2R4EE3to_ERKN3c1013TensorOptionsE
FN:32,35,_ZN5neml211TensorValueINS_2R5EE3to_ERKN3c1013TensorOptionsE
FN:32,35,_ZN5neml211TensorValueINS_2R8EE3to_ERKN3c1013TensorOptionsE
FN:32,35,_ZN5neml211TensorValueINS_3RotEE3to_ERKN3c1013TensorOptionsE
FN:32,35,_ZN5neml211TensorValueINS_3SR2EE3to_ERKN3c1013TensorOptionsE
FN:32,35,_ZN5neml211TensorValueINS_3VecEE3to_ERKN3c1013TensorOptionsE
FN:32,35,_ZN5neml211TensorValueINS_3WR2EE3to_ERKN3c1013TensorOptionsE
FN:32,35,_ZN5neml211TensorValueINS_4SFR3EE3to_ERKN3c1013TensorOptionsE
FN:32,35,_ZN5neml211TensorValueINS_4SSR4EE3to_ERKN3c1013TensorOptionsE
FN:32,35,_ZN5neml211TensorValueINS_4SWR4EE3to_ERKN3c1013TensorOptionsE
FN:32,35,_ZN5neml211TensorValueINS_4WSR4EE3to_ERKN3c1013TensorOptionsE
FN:32,35,_ZN5neml211TensorValueINS_4WWR4EE3to_ERKN3c1013TensorOptionsE
FN:32,35,_ZN5neml211TensorValueINS_5SFFR4EE3to_ERKN3c1013TensorOptionsE
FN:32,35,_ZN5neml211TensorValueINS_5SSFR5EE3to_ERKN3c1013TensorOptionsE
FN:32,35,_ZN5neml211TensorValueINS_6SSSSR8EE3to_ERKN3c1013TensorOptionsE
FN:32,35,_ZN5neml211TensorValueINS_6ScalarEE3to_ERKN3c1013TensorOptionsE
FN:32,35,_ZN5neml211TensorValueINS_6TensorEE3to_ERKN3c1013TensorOptionsE
FN:39,42,_ZN5neml211TensorValueINS_10QuaternionEE14requires_grad_Eb
FN:39,42,_ZN5neml211TensorValueINS_11MillerIndexEE14requires_grad_Eb
FN:39,42,_ZN5neml211TensorValueINS_2R2EE14requires_grad_Eb
FN:39,42,_ZN5neml211TensorValueINS_2R3EE14requires_grad_Eb
FN:39,42,_ZN5neml211TensorValueINS_2R4EE14requires_grad_Eb
FN:39,42,_ZN5neml211TensorValueINS_2R5EE14requires_grad_Eb
FN:39,42,_ZN5neml211TensorValueINS_2R8EE14requires_grad_Eb
FN:39,42,_ZN5neml211TensorValueINS_3RotEE14requires_grad_Eb
FN:39,42,_ZN5neml211TensorValueINS_3SR2EE14requires_grad_Eb
FN:39,42,_ZN5neml211TensorValueINS_3VecEE14requires_grad_Eb
FN:39,42,_ZN5neml211TensorValueINS_3WR2EE14requires_grad_Eb
FN:39,42,_ZN5neml211TensorValueINS_4SFR3EE14requires_grad_Eb
FN:39,42,_ZN5neml211TensorValueINS_4SSR4EE14requires_grad_Eb
FN:39,42,_ZN5neml211TensorValueINS_4SWR4EE14requires_grad_Eb
FN:39,42,_ZN5neml211TensorValueINS_4WSR4EE14requires_grad_Eb
FN:39,42,_ZN5neml211TensorValueINS_4WWR4EE14requires_grad_Eb
FN:39,42,_ZN5neml211TensorValueINS_5SFFR4EE14requires_grad_Eb
FN:39,42,_ZN5neml211TensorValueINS_5SSFR5EE14requires_grad_Eb
FN:39,42,_ZN5neml211TensorValueINS_6SSSSR8EE14requires_grad_Eb
FN:39,42,_ZN5neml211TensorValueINS_6ScalarEE14requires_grad_Eb
FN:39,42,_ZN5neml211TensorValueINS_6TensorEE14requires_grad_Eb
FN:45,48,_ZNK5neml211TensorValueINS_10QuaternionEEcvNS_6TensorEEv
FN:45,48,_ZNK5neml211TensorValueINS_11MillerIndexEEcvNS_6TensorEEv
FN:45,48,_ZNK5neml211TensorValueINS_2R2EEcvNS_6TensorEEv
FN:45,48,_ZNK5neml211TensorValueINS_2R3EEcvNS_6TensorEEv
FN:45,48,_ZNK5neml211TensorValueINS_2R4EEcvNS_6TensorEEv
FN:45,48,_ZNK5neml211TensorValueINS_2R5EEcvNS_6TensorEEv
FN:45,48,_ZNK5neml211TensorValueINS_2R8EEcvNS_6TensorEEv
FN:45,48,_ZNK5neml211TensorValueINS_3RotEEcvNS_6TensorEEv
FN:45,48,_ZNK5neml211TensorValueINS_3SR2EEcvNS_6TensorEEv
FN:45,48,_ZNK5neml211TensorValueINS_3VecEEcvNS_6TensorEEv
FN:45,48,_ZNK5neml211TensorValueINS_3WR2EEcvNS_6TensorEEv
FN:45,48,_ZNK5neml211TensorValueINS_4SFR3EEcvNS_6TensorEEv
FN:45,48,_ZNK5neml211TensorValueINS_4SSR4EEcvNS_6TensorEEv
FN:45,48,_ZNK5neml211TensorValueINS_4SWR4EEcvNS_6TensorEEv
FN:45,48,_ZNK5neml211TensorValueINS_4WSR4EEcvNS_6TensorEEv
FN:45,48,_ZNK5neml211TensorValueINS_4WWR4EEcvNS_6TensorEEv
FN:45,48,_ZNK5neml211TensorValueINS_5SFFR4EEcvNS_6TensorEEv
FN:45,48,_ZNK5neml211TensorValueINS_5SSFR5EEcvNS_6TensorEEv
FN:45,48,_ZNK5neml211TensorValueINS_6SSSSR8EEcvNS_6TensorEEv
FN:45,48,_ZNK5neml211TensorValueINS_6ScalarEEcvNS_6TensorEEv
FN:45,48,_ZNK5neml211TensorValueINS_6TensorEEcvS1_Ev
FN:52,55,_ZN5neml211TensorValueINS_10QuaternionEEaSERKNS_6TensorE
FN:52,55,_ZN5neml211TensorValueINS_11MillerIndexEEaSERKNS_6TensorE
FN:52,55,_ZN5neml211TensorValueINS_2R2EEaSERKNS_6TensorE
FN:52,55,_ZN5neml211TensorValueINS_2R3EEaSERKNS_6TensorE
FN:52,55,_ZN5neml211TensorValueINS_2R4EEaSERKNS_6TensorE
FN:52,55,_ZN5neml211TensorValueINS_2R5EEaSERKNS_6TensorE
FN:52,55,_ZN5neml211TensorValueINS_2R8EEaSERKNS_6TensorE
FN:52,55,_ZN5neml211TensorValueINS_3RotEEaSERKNS_6TensorE
FN:52,55,_ZN5neml211TensorValueINS_3SR2EEaSERKNS_6TensorE
FN:52,55,_ZN5neml211TensorValueINS_3VecEEaSERKNS_6TensorE
FN:52,55,_ZN5neml211TensorValueINS_3WR2EEaSERKNS_6TensorE
FN:52,55,_ZN5neml211TensorValueINS_4SFR3EEaSERKNS_6TensorE
FN:52,55,_ZN5neml211TensorValueINS_4SSR4EEaSERKNS_6TensorE
FN:52,55,_ZN5neml211TensorValueINS_4SWR4EEaSERKNS_6TensorE
FN:52,55,_ZN5neml211TensorValueINS_4WSR4EEaSERKNS_6TensorE
FN:52,55,_ZN5neml211TensorValueINS_4WWR4EEaSERKNS_6TensorE
FN:52,55,_ZN5neml211TensorValueINS_5SFFR4EEaSERKNS_6TensorE
FN:52,55,_ZN5neml211TensorValueINS_5SSFR5EEaSERKNS_6TensorE
FN:52,55,_ZN5neml211TensorValueINS_6SSSSR8EEaSERKNS_6TensorE
FN:52,55,_ZN5neml211TensorValueINS_6ScalarEEaSERKNS_6TensorE
FN:52,55,_ZN5neml211TensorValueINS_6TensorEEaSERKS1_
FN:59,62,_ZNK5neml211TensorValueINS_10QuaternionEE4typeEv
FN:59,62,_ZNK5neml211TensorValueINS_11MillerIndexEE4typeEv
FN:59,62,_ZNK5neml211TensorValueINS_2R2EE4typeEv
FN:59,62,_ZNK5neml211TensorValueINS_2R3EE4typeEv
FN:59,62,_ZNK5neml211TensorValueINS_2R4EE4typeEv
FN:59,62,_ZNK5neml211TensorValueINS_2R5EE4typeEv
FN:59,62,_ZNK5neml211TensorValueINS_2R8EE4typeEv
FN:59,62,_ZNK5neml211TensorValueINS_3RotEE4typeEv
FN:59,62,_ZNK5neml211TensorValueINS_3SR2EE4typeEv
FN:59,62,_ZNK5neml211TensorValueINS_3VecEE4typeEv
FN:59,62,_ZNK5neml211TensorValueINS_3WR2EE4typeEv
FN:59,62,_ZNK5neml211TensorValueINS_4SFR3EE4typeEv
FN:59,62,_ZNK5neml211TensorValueINS_4SSR4EE4typeEv
FN:59,62,_ZNK5neml211TensorValueINS_4SWR4EE4typeEv
FN:59,62,_ZNK5neml211TensorValueINS_4WSR4EE4typeEv
FN:59,62,_ZNK5neml211TensorValueINS_4WWR4EE4typeEv
FN:59,62,_ZNK5neml211TensorValueINS_5SFFR4EE4typeEv
FN:59,62,_ZNK5neml211TensorValueINS_5SSFR5EE4typeEv
FN:59,62,_ZNK5neml211TensorValueINS_6SSSSR8EE4typeEv
FN:59,62,_ZNK5neml211TensorValueINS_6ScalarEE4typeEv
FN:59,62,_ZNK5neml211TensorValueINS_6TensorEE4typeEv
FNDA:0,_ZN5neml211TensorValueINS_10QuaternionEE3to_ERKN3c1013TensorOptionsE
FNDA:0,_ZN5neml211TensorValueINS_11MillerIndexEE3to_ERKN3c1013TensorOptionsE
FNDA:0,_ZN5neml211TensorValueINS_2R2EE3to_ERKN3c1013TensorOptionsE
FNDA:0,_ZN5neml211TensorValueINS_2R3EE3to_ERKN3c1013TensorOptionsE
FNDA:0,_ZN5neml211TensorValueINS_2R4EE3to_ERKN3c1013TensorOptionsE
FNDA:0,_ZN5neml211TensorValueINS_2R5EE3to_ERKN3c1013TensorOptionsE
FNDA:0,_ZN5neml211TensorValueINS_2R8EE3to_ERKN3c1013TensorOptionsE
FNDA:0,_ZN5neml211TensorValueINS_3RotEE3to_ERKN3c1013TensorOptionsE
FNDA:0,_ZN5neml211TensorValueINS_3SR2EE3to_ERKN3c1013TensorOptionsE
FNDA:0,_ZN5neml211TensorValueINS_3VecEE3to_ERKN3c1013TensorOptionsE
FNDA:0,_ZN5neml211TensorValueINS_3WR2EE3to_ERKN3c1013TensorOptionsE
FNDA:0,_ZN5neml211TensorValueINS_4SFR3EE3to_ERKN3c1013TensorOptionsE
FNDA:0,_ZN5neml211TensorValueINS_4SSR4EE3to_ERKN3c1013TensorOptionsE
FNDA:0,_ZN5neml211TensorValueINS_4SWR4EE3to_ERKN3c1013TensorOptionsE
FNDA:0,_ZN5neml211TensorValueINS_4WSR4EE3to_ERKN3c1013TensorOptionsE
FNDA:0,_ZN5neml211TensorValueINS_4WWR4EE3to_ERKN3c1013TensorOptionsE
FNDA:0,_ZN5neml211TensorValueINS_5SFFR4EE3to_ERKN3c1013TensorOptionsE
FNDA:0,_ZN5neml211TensorValueINS_5SSFR5EE3to_ERKN3c1013TensorOptionsE
FNDA:0,_ZN5neml211TensorValueINS_6SSSSR8EE3to_ERKN3c1013TensorOptionsE
FNDA:0,_ZN5neml211TensorValueINS_6ScalarEE3to_ERKN3c1013TensorOptionsE
FNDA:0,_ZN5neml211TensorValueINS_6TensorEE3to_ERKN3c1013TensorOptionsE
FNDA:0,_ZN5neml211TensorValueINS_10QuaternionEE14requires_grad_Eb
FNDA:0,_ZN5neml211TensorValueINS_11MillerIndexEE14requires_grad_Eb
FNDA:0,_ZN5neml211TensorValueINS_2R2EE14requires_grad_Eb
FNDA:0,_ZN5neml211TensorValueINS_2R3EE14requires_grad_Eb
FNDA:0,_ZN5neml211TensorValueINS_2R4EE14requires_grad_Eb
FNDA:0,_ZN5neml211TensorValueINS_2R5EE14requires_grad_Eb
FNDA:0,_ZN5neml211TensorValueINS_2R8EE14requires_grad_Eb
FNDA:0,_ZN5neml211TensorValueINS_3RotEE14requires_grad_Eb
FNDA:0,_ZN5neml211TensorValueINS_3SR2EE14requires_grad_Eb
FNDA:0,_ZN5neml211TensorValueINS_3VecEE14requires_grad_Eb
FNDA:0,_ZN5neml211TensorValueINS_3WR2EE14requires_grad_Eb
FNDA:0,_ZN5neml211TensorValueINS_4SFR3EE14requires_grad_Eb
FNDA:0,_ZN5neml211TensorValueINS_4SSR4EE14requires_grad_Eb
FNDA:0,_ZN5neml211TensorValueINS_4SWR4EE14requires_grad_Eb
FNDA:0,_ZN5neml211TensorValueINS_4WSR4EE14requires_grad_Eb
FNDA:0,_ZN5neml211TensorValueINS_4WWR4EE14requires_grad_Eb
FNDA:0,_ZN5neml211TensorValueINS_5SFFR4EE14requires_grad_Eb
FNDA:0,_ZN5neml211TensorValueINS_5SSFR5EE14requires_grad_Eb
FNDA:0,_ZN5neml211TensorValueINS_6SSSSR8EE14requires_grad_Eb
FNDA:2,_ZN5neml211TensorValueINS_6ScalarEE14requires_grad_Eb
FNDA:0,_ZN5neml211TensorValueINS_6TensorEE14requires_grad_Eb
FNDA:0,_ZNK5neml211TensorValueINS_10QuaternionEEcvNS_6TensorEEv
FNDA:0,_ZNK5neml211TensorValueINS_11MillerIndexEEcvNS_6TensorEEv
FNDA:0,_ZNK5neml211TensorValueINS_2R2EEcvNS_6TensorEEv
FNDA:0,_ZNK5neml211TensorValueINS_2R3EEcvNS_6TensorEEv
FNDA:0,_ZNK5neml211TensorValueINS_2R4EEcvNS_6TensorEEv
FNDA:0,_ZNK5neml211TensorValueINS_2R5EEcvNS_6TensorEEv
FNDA:0,_ZNK5neml211TensorValueINS_2R8EEcvNS_6TensorEEv
FNDA:0,_ZNK5neml211TensorValueINS_3RotEEcvNS_6TensorEEv
FNDA:0,_ZNK5neml211TensorValueINS_3SR2EEcvNS_6TensorEEv
FNDA:0,_ZNK5neml211TensorValueINS_3VecEEcvNS_6TensorEEv
FNDA:0,_ZNK5neml211TensorValueINS_3WR2EEcvNS_6TensorEEv
FNDA:0,_ZNK5neml211TensorValueINS_4SFR3EEcvNS_6TensorEEv
FNDA:0,_ZNK5neml211TensorValueINS_4SSR4EEcvNS_6TensorEEv
FNDA:0,_ZNK5neml211TensorValueINS_4SWR4EEcvNS_6TensorEEv
FNDA:0,_ZNK5neml211TensorValueINS_4WSR4EEcvNS_6TensorEEv
FNDA:0,_ZNK5neml211TensorValueINS_4WWR4EEcvNS_6TensorEEv
FNDA:0,_ZNK5neml211TensorValueINS_5SFFR4EEcvNS_6TensorEEv
FNDA:0,_ZNK5neml211TensorValueINS_5SSFR5EEcvNS_6TensorEEv
FNDA:0,_ZNK5neml211TensorValueINS_6SSSSR8EEcvNS_6TensorEEv
FNDA:6,_ZNK5neml211TensorValueINS_6ScalarEEcvNS_6TensorEEv
FNDA:0,_ZNK5neml211TensorValueINS_6TensorEEcvS1_Ev
FNDA:0,_ZN5neml211TensorValueINS_10QuaternionEEaSERKNS_6TensorE
FNDA:0,_ZN5neml211TensorValueINS_11MillerIndexEEaSERKNS_6TensorE
FNDA:0,_ZN5neml211TensorValueINS_2R2EEaSERKNS_6TensorE
FNDA:0,_ZN5neml211TensorValueINS_2R3EEaSERKNS_6TensorE
FNDA:0,_ZN5neml211TensorValueINS_2R4EEaSERKNS_6TensorE
FNDA:0,_ZN5neml211TensorValueINS_2R5EEaSERKNS_6TensorE
FNDA:0,_ZN5neml211TensorValueINS_2R8EEaSERKNS_6TensorE
FNDA:0,_ZN5neml211TensorValueINS_3RotEEaSERKNS_6TensorE
FNDA:0,_ZN5neml211TensorValueINS_3SR2EEaSERKNS_6TensorE
FNDA:0,_ZN5neml211TensorValueINS_3VecEEaSERKNS_6TensorE
FNDA:0,_ZN5neml211TensorValueINS_3WR2EEaSERKNS_6TensorE
FNDA:0,_ZN5neml211TensorValueINS_4SFR3EEaSERKNS_6TensorE
FNDA:0,_ZN5neml211TensorValueINS_4SSR4EEaSERKNS_6TensorE
FNDA:0,_ZN5neml211TensorValueINS_4SWR4EEaSERKNS_6TensorE
FNDA:0,_ZN5neml211TensorValueINS_4WSR4EEaSERKNS_6TensorE
FNDA:0,_ZN5neml211TensorValueINS_4WWR4EEaSERKNS_6TensorE
FNDA:0,_ZN5neml211TensorValueINS_5SFFR4EEaSERKNS_6TensorE
FNDA:0,_ZN5neml211TensorValueINS_5SSFR5EEaSERKNS_6TensorE
FNDA:0,_ZN5neml211TensorValueINS_6SSSSR8EEaSERKNS_6TensorE
FNDA:2,_ZN5neml211TensorValueINS_6ScalarEEaSERKNS_6TensorE
FNDA:0,_ZN5neml211TensorValueINS_6TensorEEaSERKS1_
FNDA:0,_ZNK5neml211TensorValueINS_10QuaternionEE4typeEv
FNDA:0,_ZNK5neml211TensorValueINS_11MillerIndexEE4typeEv
FNDA:0,_ZNK5neml211TensorValueINS_2R2EE4typeEv
FNDA:0,_ZNK5neml211TensorValueINS_2R3EE4typeEv
FNDA:0,_ZNK5neml211TensorValueINS_2R4EE4typeEv
FNDA:0,_ZNK5neml211TensorValueINS_2R5EE4typeEv
FNDA:0,_ZNK5neml211TensorValueINS_2R8EE4typeEv
FNDA:0,_ZNK5neml211TensorValueINS_3RotEE4typeEv
FNDA:0,_ZNK5neml211TensorValueINS_3SR2EE4typeEv
FNDA:0,_ZNK5neml211TensorValueINS_3VecEE4typeEv
FNDA:0,_ZNK5neml211TensorValueINS_3WR2EE4typeEv
FNDA:0,_ZNK5neml211TensorValueINS_4SFR3EE4typeEv
FNDA:0,_ZNK5neml211TensorValueINS_4SSR4EE4typeEv
FNDA:0,_ZNK5neml211TensorValueINS_4SWR4EE4typeEv
FNDA:0,_ZNK5neml211TensorValueINS_4WSR4EE4typeEv
FNDA:0,_ZNK5neml211TensorValueINS_4WWR4EE4typeEv
FNDA:0,_ZNK5neml211TensorValueINS_5SFFR4EE4typeEv
FNDA:0,_ZNK5neml211TensorValueINS_5SSFR5EE4typeEv
FNDA:0,_ZNK5neml211TensorValueINS_6SSSSR8EE4typeEv
FNDA:2,_ZNK5neml211TensorValueINS_6ScalarEE4typeEv
FNDA:0,_ZNK5neml211TensorValueINS_6TensorEE4typeEv
FNF:105
FNH:4
DA:32,0
DA:34,0
DA:35,0
DA:39,2
DA:41,2
DA:42,2
DA:45,6
DA:47,6
DA:52,2
DA:54,2
DA:55,2
DA:59,2
DA:61,2
LF:13
LH:10
end_of_record
TN:
SF:/home/runner/work/neml2/neml2/src/neml2/tensors/Transformable.cxx
FN:33,36,_ZN5neml225transform_from_quaternionERKNS_10QuaternionE
FN:39,42,_ZN5neml218identity_transformERKN3c1013TensorOptionsE
FN:45,48,_ZN5neml225proper_rotation_transformERKNS_3RotE
FN:51,55,_ZN5neml227improper_rotation_transformERKNS_3RotE
FN:58,61,_ZN5neml220reflection_transformERKNS_3VecE
FN:64,67,_ZN5neml219inversion_transformERKN3c1013TensorOptionsE
FNDA:91,_ZN5neml225transform_from_quaternionERKNS_10QuaternionE
FNDA:2,_ZN5neml218identity_transformERKN3c1013TensorOptionsE
FNDA:2,_ZN5neml225proper_rotation_transformERKNS_3RotE
FNDA:3,_ZN5neml227improper_rotation_transformERKNS_3RotE
FNDA:0,_ZN5neml220reflection_transformERKNS_3VecE
FNDA:2,_ZN5neml219inversion_transformERKN3c1013TensorOptionsE
FNF:6
FNH:5
DA:33,91
DA:35,91
DA:39,2
DA:41,2
DA:45,2
DA:47,2
DA:51,3
DA:53,3
DA:54,6
DA:55,3
DA:58,0
DA:60,0
DA:64,2
DA:66,4
LF:14
LH:12
end_of_record
TN:
SF:/home/runner/work/neml2/neml2/src/neml2/tensors/Vec.cxx
FN:32,35,_ZN5neml23VecC2ERKNS_3RotE
FN:38,41,_ZN5neml23Vec12identity_mapERKN3c1013TensorOptionsE
FN:44,47,_ZNK5neml23Vec9transformERKNS_2R2E
FNDA:884,_ZN5neml23VecC2ERKNS_3RotE
FNDA:1,_ZN5neml23Vec12identity_mapERKN3c1013TensorOptionsE
FNDA:8,_ZNK5neml23Vec9transformERKNS_2R2E
FNF:3
FNH:3
DA:32,884
DA:33,884
DA:35,884
DA:38,1
DA:40,1
DA:44,8
DA:46,8
LF:7
LH:7
end_of_record
TN:
SF:/home/runner/work/neml2/neml2/src/neml2/tensors/VecBase.cxx
FN:33,39,_ZN5neml27VecBaseINS_3RotEE4fillERKdS4_S4_RKN3c1013TensorOptionsE
FN:33,39,_ZN5neml27VecBaseINS_3VecEE4fillERKdS4_S4_RKN3c1013TensorOptionsE
FN:33,39,_ZN5neml27VecBaseINS_3WR2EE4fillERKdS4_S4_RKN3c1013TensorOptionsE
FN:43,46,_ZN5neml27VecBaseINS_3RotEE4fillERKNS_6ScalarES5_S5_
FN:43,46,_ZN5neml27VecBaseINS_3VecEE4fillERKNS_6ScalarES5_S5_
FN:43,46,_ZN5neml27VecBaseINS_3WR2EE4fillERKNS_6ScalarES5_S5_
FN:50,53,_ZN5neml27VecBaseINS_3RotEE12identity_mapERKN3c1013TensorOptionsE
FN:50,53,_ZN5neml27VecBaseINS_3VecEE12identity_mapERKN3c1013TensorOptionsE
FN:50,53,_ZN5neml27VecBaseINS_3WR2EE12identity_mapERKN3c1013TensorOptionsE
FN:57,60,_ZNK5neml27VecBaseINS_3RotEEclEl
FN:57,60,_ZNK5neml27VecBaseINS_3VecEEclEl
FN:57,60,_ZNK5neml27VecBaseINS_3WR2EEclEl
FN:64,67,_ZNK5neml27VecBaseINS_3RotEE7norm_sqEv
FN:64,67,_ZNK5neml27VecBaseINS_3VecEE7norm_sqEv
FN:64,67,_ZNK5neml27VecBaseINS_3WR2EE7norm_sqEv
FN:71,74,_ZNK5neml27VecBaseINS_3RotEE4normEv
FN:71,74,_ZNK5neml27VecBaseINS_3VecEE4normEv
FN:71,74,_ZNK5neml27VecBaseINS_3WR2EE4normEv
FN:78,81,_ZNK5neml27VecBaseINS_3RotEE6rotateERKS1_
FN:78,81,_ZNK5neml27VecBaseINS_3VecEE6rotateERKNS_3RotE
FN:78,81,_ZNK5neml27VecBaseINS_3WR2EE6rotateERKNS_3RotE
FN:85,88,_ZNK5neml27VecBaseINS_3RotEE6rotateERKNS_2R2E
FN:85,88,_ZNK5neml27VecBaseINS_3VecEE6rotateERKNS_2R2E
FN:85,88,_ZNK5neml27VecBaseINS_3WR2EE6rotateERKNS_2R2E
FN:92,95,_ZNK5neml27VecBaseINS_3RotEE7drotateERKS1_
FN:92,95,_ZNK5neml27VecBaseINS_3VecEE7drotateERKNS_3RotE
FN:92,95,_ZNK5neml27VecBaseINS_3WR2EE7drotateERKNS_3RotE
FN:99,103,_ZNK5neml27VecBaseINS_3RotEE7drotateERKNS_2R2E
FN:99,103,_ZNK5neml27VecBaseINS_3VecEE7drotateERKNS_2R2E
FN:99,103,_ZNK5neml27VecBaseINS_3WR2EE7drotateERKNS_2R2E
FNDA:90,_ZN5neml27VecBaseINS_3RotEE4fillERKdS4_S4_RKN3c1013TensorOptionsE
FNDA:39,_ZN5neml27VecBaseINS_3VecEE4fillERKdS4_S4_RKN3c1013TensorOptionsE
FNDA:26,_ZN5neml27VecBaseINS_3WR2EE4fillERKdS4_S4_RKN3c1013TensorOptionsE
FNDA:106,_ZN5neml27VecBaseINS_3RotEE4fillERKNS_6ScalarES5_S5_
FNDA:41,_ZN5neml27VecBaseINS_3VecEE4fillERKNS_6ScalarES5_S5_
FNDA:37,_ZN5neml27VecBaseINS_3WR2EE4fillERKNS_6ScalarES5_S5_
FNDA:0,_ZN5neml27VecBaseINS_3RotEE12identity_mapERKN3c1013TensorOptionsE
FNDA:0,_ZN5neml27VecBaseINS_3VecEE12identity_mapERKN3c1013TensorOptionsE
FNDA:1,_ZN5neml27VecBaseINS_3WR2EE12identity_mapERKN3c1013TensorOptionsE
FNDA:0,_ZNK5neml27VecBaseINS_3RotEEclEl
FNDA:6184,_ZNK5neml27VecBaseINS_3VecEEclEl
FNDA:0,_ZNK5neml27VecBaseINS_3WR2EEclEl
FNDA:1795,_ZNK5neml27VecBaseINS_3RotEE7norm_sqEv
FNDA:2,_ZNK5neml27VecBaseINS_3VecEE7norm_sqEv
FNDA:407,_ZNK5neml27VecBaseINS_3WR2EE7norm_sqEv
FNDA:5,_ZNK5neml27VecBaseINS_3RotEE4normEv
FNDA:1339,_ZNK5neml27VecBaseINS_3VecEE4normEv
FNDA:0,_ZNK5neml27VecBaseINS_3WR2EE4normEv
FNDA:0,_ZNK5neml27VecBaseINS_3RotEE6rotateERKS1_
FNDA:13,_ZNK5neml27VecBaseINS_3VecEE6rotateERKNS_3RotE
FNDA:6,_ZNK5neml27VecBaseINS_3WR2EE6rotateERKNS_3RotE
FNDA:0,_ZNK5neml27VecBaseINS_3RotEE6rotateERKNS_2R2E
FNDA:13,_ZNK5neml27VecBaseINS_3VecEE6rotateERKNS_2R2E
FNDA:387,_ZNK5neml27VecBaseINS_3WR2EE6rotateERKNS_2R2E
FNDA:0,_ZNK5neml27VecBaseINS_3RotEE7drotateERKS1_
FNDA:4,_ZNK5neml27VecBaseINS_3VecEE7drotateERKNS_3RotE
FNDA:2,_ZNK5neml27VecBaseINS_3WR2EE7drotateERKNS_3RotE
FNDA:0,_ZNK5neml27VecBaseINS_3RotEE7drotateERKNS_2R2E
FNDA:0,_ZNK5neml27VecBaseINS_3VecEE7drotateERKNS_2R2E
FNDA:67,_ZNK5neml27VecBaseINS_3WR2EE7drotateERKNS_2R2E
FNF:30
FNH:20
DA:33,155
DA:38,155
DA:43,184
DA:45,920
DA:46,184
DA:50,1
DA:52,1
DA:57,6184
DA:59,12368
DA:60,6184
DA:64,2204
DA:66,2204
DA:71,1344
DA:73,1344
DA:78,19
DA:80,19
DA:85,400
DA:87,400
DA:92,6
DA:94,30
DA:95,12
DA:99,67
DA:101,67
DA:102,335
DA:103,134
LF:25
LH:25
end_of_record
TN:
SF:/home/runner/work/neml2/neml2/src/neml2/tensors/WR2.cxx
FN:37,40,_ZN5neml23WR2C2ERKNS_2R2E
FN:43,47,_ZNK5neml23WR2clEll
FN:50,73,_ZNK5neml23WR23expEv
FN:76,95,_ZNK5neml23WR24dexpEv
FNDA:367,_ZN5neml23WR2C2ERKNS_2R2E
FNDA:9,_ZNK5neml23WR2clEll
FNDA:337,_ZNK5neml23WR23expEv
FNDA:70,_ZNK5neml23WR24dexpEv
FNF:4
FNH:4
DA:37,367
DA:38,367
DA:40,367
DA:43,9
DA:45,9
DA:46,18
DA:47,9
DA:50,337
DA:60,337
DA:63,337
DA:66,337
DA:69,674
DA:70,1011
DA:72,674
DA:73,337
DA:76,70
DA:79,70
DA:80,70
DA:82,140
DA:83,210
DA:85,70
DA:87,140
DA:88,140
DA:89,140
DA:90,210
DA:92,70
DA:94,140
DA:95,70
LF:28
LH:28
end_of_record
TN:
SF:/home/runner/work/neml2/neml2/src/neml2/tensors/WSR4.cxx
FN:32,35,_ZN5neml24WSR4C2ERKNS_2R4E
FNDA:128,_ZN5neml24WSR4C2ERKNS_2R4E
FNF:1
FNH:1
DA:32,128
DA:33,128
DA:35,128
LF:3
LH:3
end_of_record
TN:
SF:/home/runner/work/neml2/neml2/src/neml2/tensors/WWR4.cxx
FN:32,36,_ZN5neml24WWR4C2ERKNS_2R4E
FN:39,42,_ZN5neml24WWR48identityERKN3c1013TensorOptionsE
FNDA:2,_ZN5neml24WWR4C2ERKNS_2R4E
FNDA:64,_ZN5neml24WWR48identityERKN3c1013TensorOptionsE
FNF:2
FNH:2
DA:32,2
DA:33,4
DA:34,6
DA:36,2
DA:39,64
DA:41,64
LF:6
LH:6
end_of_record
TN:
SF:/home/runner/work/neml2/neml2/src/neml2/tensors/tensors.cxx
FN:30,40,_ZN5neml2lsERSoRKNS_10TensorTypeE
FNDA:10,_ZN5neml2lsERSoRKNS_10TensorTypeE
FNF:1
FNH:1
DA:30,10
DA:37,10
DA:38,0
DA:39,10
LF:4
LH:3
end_of_record
TN:
SF:/home/runner/work/neml2/neml2/src/neml2/tensors/user_tensors/EmptyPrimitiveTensor.cxx
FN:38,52,_ZN5neml220EmptyPrimitiveTensorINS_10QuaternionEE16expected_optionsEv
FN:38,52,_ZN5neml220EmptyPrimitiveTensorINS_11MillerIndexEE16expected_optionsEv
FN:38,52,_ZN5neml220EmptyPrimitiveTensorINS_2R2EE16expected_optionsEv
FN:38,52,_ZN5neml220EmptyPrimitiveTensorINS_2R3EE16expected_optionsEv
FN:38,52,_ZN5neml220EmptyPrimitiveTensorINS_2R4EE16expected_optionsEv
FN:38,52,_ZN5neml220EmptyPrimitiveTensorINS_2R5EE16expected_optionsEv
FN:38,52,_ZN5neml220EmptyPrimitiveTensorINS_2R8EE16expected_optionsEv
FN:38,52,_ZN5neml220EmptyPrimitiveTensorINS_3RotEE16expected_optionsEv
FN:38,52,_ZN5neml220EmptyPrimitiveTensorINS_3SR2EE16expected_optionsEv
FN:38,52,_ZN5neml220EmptyPrimitiveTensorINS_3VecEE16expected_optionsEv
FN:38,52,_ZN5neml220EmptyPrimitiveTensorINS_3WR2EE16expected_optionsEv
FN:38,52,_ZN5neml220EmptyPrimitiveTensorINS_4SFR3EE16expected_optionsEv
FN:38,52,_ZN5neml220EmptyPrimitiveTensorINS_4SSR4EE16expected_optionsEv
FN:38,52,_ZN5neml220EmptyPrimitiveTensorINS_4SWR4EE16expected_optionsEv
FN:38,52,_ZN5neml220EmptyPrimitiveTensorINS_4WSR4EE16expected_optionsEv
FN:38,52,_ZN5neml220EmptyPrimitiveTensorINS_4WWR4EE16expected_optionsEv
FN:38,52,_ZN5neml220EmptyPrimitiveTensorINS_5SFFR4EE16expected_optionsEv
FN:38,52,_ZN5neml220EmptyPrimitiveTensorINS_5SSFR5EE16expected_optionsEv
FN:38,52,_ZN5neml220EmptyPrimitiveTensorINS_6SSSSR8EE16expected_optionsEv
FN:38,52,_ZN5neml220EmptyPrimitiveTensorINS_6ScalarEE16expected_optionsEv
FN:55,59,_ZN5neml220EmptyPrimitiveTensorINS_10QuaternionEEC2ERKNS_9OptionSetE
FN:55,59,_ZN5neml220EmptyPrimitiveTensorINS_11MillerIndexEEC2ERKNS_9OptionSetE
FN:55,59,_ZN5neml220EmptyPrimitiveTensorINS_2R2EEC2ERKNS_9OptionSetE
FN:55,59,_ZN5neml220EmptyPrimitiveTensorINS_2R3EEC2ERKNS_9OptionSetE
FN:55,59,_ZN5neml220EmptyPrimitiveTensorINS_2R4EEC2ERKNS_9OptionSetE
FN:55,59,_ZN5neml220EmptyPrimitiveTensorINS_2R5EEC2ERKNS_9OptionSetE
FN:55,59,_ZN5neml220EmptyPrimitiveTensorINS_2R8EEC2ERKNS_9OptionSetE
FN:55,59,_ZN5neml220EmptyPrimitiveTensorINS_3RotEEC2ERKNS_9OptionSetE
FN:55,59,_ZN5neml220EmptyPrimitiveTensorINS_3SR2EEC2ERKNS_9OptionSetE
FN:55,59,_ZN5neml220EmptyPrimitiveTensorINS_3VecEEC2ERKNS_9OptionSetE
FN:55,59,_ZN5neml220EmptyPrimitiveTensorINS_3WR2EEC2ERKNS_9OptionSetE
FN:55,59,_ZN5neml220EmptyPrimitiveTensorINS_4SFR3EEC2ERKNS_9OptionSetE
FN:55,59,_ZN5neml220EmptyPrimitiveTensorINS_4SSR4EEC2ERKNS_9OptionSetE
FN:55,59,_ZN5neml220EmptyPrimitiveTensorINS_4SWR4EEC2ERKNS_9OptionSetE
FN:55,59,_ZN5neml220EmptyPrimitiveTensorINS_4WSR4EEC2ERKNS_9OptionSetE
FN:55,59,_ZN5neml220EmptyPrimitiveTensorINS_4WWR4EEC2ERKNS_9OptionSetE
FN:55,59,_ZN5neml220EmptyPrimitiveTensorINS_5SFFR4EEC2ERKNS_9OptionSetE
FN:55,59,_ZN5neml220EmptyPrimitiveTensorINS_5SSFR5EEC2ERKNS_9OptionSetE
FN:55,59,_ZN5neml220EmptyPrimitiveTensorINS_6SSSSR8EEC2ERKNS_9OptionSetE
FN:55,59,_ZN5neml220EmptyPrimitiveTensorINS_6ScalarEEC2ERKNS_9OptionSetE
FNDA:6,_ZN5neml220EmptyPrimitiveTensorINS_10QuaternionEE16expected_optionsEv
FNDA:6,_ZN5neml220EmptyPrimitiveTensorINS_11MillerIndexEE16expected_optionsEv
FNDA:6,_ZN5neml220EmptyPrimitiveTensorINS_2R2EE16expected_optionsEv
FNDA:6,_ZN5neml220EmptyPrimitiveTensorINS_2R3EE16expected_optionsEv
FNDA:6,_ZN5neml220EmptyPrimitiveTensorINS_2R4EE16expected_optionsEv
FNDA:6,_ZN5neml220EmptyPrimitiveTensorINS_2R5EE16expected_optionsEv
FNDA:6,_ZN5neml220EmptyPrimitiveTensorINS_2R8EE16expected_optionsEv
FNDA:6,_ZN5neml220EmptyPrimitiveTensorINS_3RotEE16expected_optionsEv
FNDA:6,_ZN5neml220EmptyPrimitiveTensorINS_3SR2EE16expected_optionsEv
FNDA:6,_ZN5neml220EmptyPrimitiveTensorINS_3VecEE16expected_optionsEv
FNDA:6,_ZN5neml220EmptyPrimitiveTensorINS_3WR2EE16expected_optionsEv
FNDA:6,_ZN5neml220EmptyPrimitiveTensorINS_4SFR3EE16expected_optionsEv
FNDA:6,_ZN5neml220EmptyPrimitiveTensorINS_4SSR4EE16expected_optionsEv
FNDA:6,_ZN5neml220EmptyPrimitiveTensorINS_4SWR4EE16expected_optionsEv
FNDA:6,_ZN5neml220EmptyPrimitiveTensorINS_4WSR4EE16expected_optionsEv
FNDA:6,_ZN5neml220EmptyPrimitiveTensorINS_4WWR4EE16expected_optionsEv
FNDA:6,_ZN5neml220EmptyPrimitiveTensorINS_5SFFR4EE16expected_optionsEv
FNDA:6,_ZN5neml220EmptyPrimitiveTensorINS_5SSFR5EE16expected_optionsEv
FNDA:6,_ZN5neml220EmptyPrimitiveTensorINS_6SSSSR8EE16expected_optionsEv
FNDA:6,_ZN5neml220EmptyPrimitiveTensorINS_6ScalarEE16expected_optionsEv
FNDA:0,_ZN5neml220EmptyPrimitiveTensorINS_10QuaternionEEC2ERKNS_9OptionSetE
FNDA:0,_ZN5neml220EmptyPrimitiveTensorINS_11MillerIndexEEC2ERKNS_9OptionSetE
FNDA:1,_ZN5neml220EmptyPrimitiveTensorINS_2R2EEC2ERKNS_9OptionSetE
FNDA:1,_ZN5neml220EmptyPrimitiveTensorINS_2R3EEC2ERKNS_9OptionSetE
FNDA:1,_ZN5neml220EmptyPrimitiveTensorINS_2R4EEC2ERKNS_9OptionSetE
FNDA:1,_ZN5neml220EmptyPrimitiveTensorINS_2R5EEC2ERKNS_9OptionSetE
FNDA:0,_ZN5neml220EmptyPrimitiveTensorINS_2R8EEC2ERKNS_9OptionSetE
FNDA:1,_ZN5neml220EmptyPrimitiveTensorINS_3RotEEC2ERKNS_9OptionSetE
FNDA:1,_ZN5neml220EmptyPrimitiveTensorINS_3SR2EEC2ERKNS_9OptionSetE
FNDA:1,_ZN5neml220EmptyPrimitiveTensorINS_3VecEEC2ERKNS_9OptionSetE
FNDA:0,_ZN5neml220EmptyPrimitiveTensorINS_3WR2EEC2ERKNS_9OptionSetE
FNDA:1,_ZN5neml220EmptyPrimitiveTensorINS_4SFR3EEC2ERKNS_9OptionSetE
FNDA:1,_ZN5neml220EmptyPrimitiveTensorINS_4SSR4EEC2ERKNS_9OptionSetE
FNDA:0,_ZN5neml220EmptyPrimitiveTensorINS_4SWR4EEC2ERKNS_9OptionSetE
FNDA:0,_ZN5neml220EmptyPrimitiveTensorINS_4WSR4EEC2ERKNS_9OptionSetE
FNDA:0,_ZN5neml220EmptyPrimitiveTensorINS_4WWR4EEC2ERKNS_9OptionSetE
FNDA:0,_ZN5neml220EmptyPrimitiveTensorINS_5SFFR4EEC2ERKNS_9OptionSetE
FNDA:1,_ZN5neml220EmptyPrimitiveTensorINS_5SSFR5EEC2ERKNS_9OptionSetE
FNDA:0,_ZN5neml220EmptyPrimitiveTensorINS_6SSSSR8EEC2ERKNS_9OptionSetE
FNDA:1,_ZN5neml220EmptyPrimitiveTensorINS_6ScalarEEC2ERKNS_9OptionSetE
FNF:40
FNH:31
DA:38,120
DA:42,120
DA:44,120
DA:45,120
DA:48,360
DA:49,120
DA:51,240
DA:52,120
DA:55,11
DA:56,33
DA:57,22
DA:59,11
LF:12
LH:12
end_of_record
TN:
SF:/home/runner/work/neml2/neml2/src/neml2/tensors/user_tensors/EmptyTensor.cxx
FN:32,45,_ZN5neml211EmptyTensor16expected_optionsEv
FN:47,53,_ZN5neml211EmptyTensorC2ERKNS_9OptionSetE
FNDA:6,_ZN5neml211EmptyTensor16expected_optionsEv
FNDA:1,_ZN5neml211EmptyTensorC2ERKNS_9OptionSetE
FNF:2
FNH:2
DA:32,6
DA:34,6
DA:35,6
DA:36,6
DA:38,18
DA:39,6
DA:41,18
DA:42,6
DA:44,6
DA:45,0
DA:47,1
DA:48,2
DA:50,1
DA:51,4
DA:53,1
LF:15
LH:14
end_of_record
TN:
SF:/home/runner/work/neml2/neml2/src/neml2/tensors/user_tensors/FillR2.cxx
FN:33,47,_ZN5neml26FillR216expected_optionsEv
FN:49,53,_ZN5neml26FillR2C2ERKNS_9OptionSetE
FN:56,81,_ZNK5neml26FillR24fillERKSt6vectorINS_8CrossRefINS_6ScalarEEESaIS4_EE
FNDA:6,_ZN5neml26FillR216expected_optionsEv
FNDA:4,_ZN5neml26FillR2C2ERKNS_9OptionSetE
FNDA:4,_ZNK5neml26FillR24fillERKSt6vectorINS_8CrossRefINS_6ScalarEEESaIS4_EE
FNF:3
FNH:3
DA:33,6
DA:35,6
DA:36,6
DA:41,6
DA:43,12
DA:44,6
DA:46,6
DA:47,0
DA:49,4
DA:51,8
DA:53,4
DA:56,4
DA:58,4
DA:59,1
DA:60,3
DA:61,1
DA:62,2
DA:63,1
DA:64,1
DA:65,1
DA:66,1
DA:67,1
DA:68,1
DA:69,1
DA:70,1
DA:71,1
DA:72,1
DA:73,9
DA:75,0
DA:77,0
DA:80,0
LF:31
LH:27
end_of_record
TN:
SF:/home/runner/work/neml2/neml2/src/neml2/tensors/user_tensors/FillRot.cxx
FN:32,44,_ZN5neml27FillRot16expected_optionsEv
FN:46,51,_ZN5neml27FillRotC2ERKNS_9OptionSetE
FN:54,78,_ZNK5neml27FillRot4fillERKSt6vectorINS_8CrossRefINS_6ScalarEEESaIS4_EERKSs
FNDA:6,_ZN5neml27FillRot16expected_optionsEv
FNDA:16,_ZN5neml27FillRotC2ERKNS_9OptionSetE
FNDA:16,_ZNK5neml27FillRot4fillERKSt6vectorINS_8CrossRefINS_6ScalarEEESaIS4_EERKSs
FNF:3
FNH:3
DA:32,6
DA:34,6
DA:35,6
DA:37,12
DA:38,12
DA:40,12
DA:41,6
DA:43,6
DA:44,0
DA:46,16
DA:48,16
DA:49,48
DA:51,16
DA:54,16
DA:56,16
DA:58,15
DA:60,15
DA:62,15
DA:65,1
DA:67,1
DA:69,1
DA:71,1
DA:72,2
DA:73,3
DA:74,1
DA:75,1
DA:77,0
LF:27
LH:25
end_of_record
TN:
SF:/home/runner/work/neml2/neml2/src/neml2/tensors/user_tensors/FillSR2.cxx
FN:33,47,_ZN5neml27FillSR216expected_optionsEv
FN:49,53,_ZN5neml27FillSR2C2ERKNS_9OptionSetE
FN:56,69,_ZNK5neml27FillSR24fillERKSt6vectorINS_8CrossRefINS_6ScalarEEESaIS4_EE
FNDA:6,_ZN5neml27FillSR216expected_optionsEv
FNDA:111,_ZN5neml27FillSR2C2ERKNS_9OptionSetE
FNDA:111,_ZNK5neml27FillSR24fillERKSt6vectorINS_8CrossRefINS_6ScalarEEESaIS4_EE
FNF:3
FNH:3
DA:33,6
DA:35,6
DA:36,6
DA:41,6
DA:43,12
DA:44,6
DA:46,6
DA:47,0
DA:49,111
DA:51,222
DA:53,111
DA:56,111
DA:58,111
DA:59,13
DA:60,98
DA:61,26
DA:62,72
DA:63,72
DA:65,0
DA:66,0
DA:68,0
LF:21
LH:17
end_of_record
TN:
SF:/home/runner/work/neml2/neml2/src/neml2/tensors/user_tensors/FillWR2.cxx
FN:32,41,_ZN5neml27FillWR216expected_optionsEv
FN:43,47,_ZN5neml27FillWR2C2ERKNS_9OptionSetE
FN:50,58,_ZNK5neml27FillWR24fillERKSt6vectorINS_8CrossRefINS_6ScalarEEESaIS4_EE
FNDA:6,_ZN5neml27FillWR216expected_optionsEv
FNDA:9,_ZN5neml27FillWR2C2ERKNS_9OptionSetE
FNDA:9,_ZNK5neml27FillWR24fillERKSt6vectorINS_8CrossRefINS_6ScalarEEESaIS4_EE
FNF:3
FNH:3
DA:32,6
DA:34,6
DA:35,6
DA:37,12
DA:38,6
DA:40,6
DA:41,0
DA:43,9
DA:45,18
DA:47,9
DA:50,9
DA:52,9
DA:54,9
DA:57,9
LF:14
LH:13
end_of_record
TN:
SF:/home/runner/work/neml2/neml2/src/neml2/tensors/user_tensors/FullPrimitiveTensor.cxx
FN:38,55,_ZN5neml219FullPrimitiveTensorINS_10QuaternionEE16expected_optionsEv
FN:38,55,_ZN5neml219FullPrimitiveTensorINS_11MillerIndexEE16expected_optionsEv
FN:38,55,_ZN5neml219FullPrimitiveTensorINS_2R2EE16expected_optionsEv
FN:38,55,_ZN5neml219FullPrimitiveTensorINS_2R3EE16expected_optionsEv
FN:38,55,_ZN5neml219FullPrimitiveTensorINS_2R4EE16expected_optionsEv
FN:38,55,_ZN5neml219FullPrimitiveTensorINS_2R5EE16expected_optionsEv
FN:38,55,_ZN5neml219FullPrimitiveTensorINS_2R8EE16expected_optionsEv
FN:38,55,_ZN5neml219FullPrimitiveTensorINS_3RotEE16expected_optionsEv
FN:38,55,_ZN5neml219FullPrimitiveTensorINS_3SR2EE16expected_optionsEv
FN:38,55,_ZN5neml219FullPrimitiveTensorINS_3VecEE16expected_optionsEv
FN:38,55,_ZN5neml219FullPrimitiveTensorINS_3WR2EE16expected_optionsEv
FN:38,55,_ZN5neml219FullPrimitiveTensorINS_4SFR3EE16expected_optionsEv
FN:38,55,_ZN5neml219FullPrimitiveTensorINS_4SSR4EE16expected_optionsEv
FN:38,55,_ZN5neml219FullPrimitiveTensorINS_4SWR4EE16expected_optionsEv
FN:38,55,_ZN5neml219FullPrimitiveTensorINS_4WSR4EE16expected_optionsEv
FN:38,55,_ZN5neml219FullPrimitiveTensorINS_4WWR4EE16expected_optionsEv
FN:38,55,_ZN5neml219FullPrimitiveTensorINS_5SFFR4EE16expected_optionsEv
FN:38,55,_ZN5neml219FullPrimitiveTensorINS_5SSFR5EE16expected_optionsEv
FN:38,55,_ZN5neml219FullPrimitiveTensorINS_6SSSSR8EE16expected_optionsEv
FN:38,55,_ZN5neml219FullPrimitiveTensorINS_6ScalarEE16expected_optionsEv
FN:58,64,_ZN5neml219FullPrimitiveTensorINS_10QuaternionEEC2ERKNS_9OptionSetE
FN:58,64,_ZN5neml219FullPrimitiveTensorINS_11MillerIndexEEC2ERKNS_9OptionSetE
FN:58,64,_ZN5neml219FullPrimitiveTensorINS_2R2EEC2ERKNS_9OptionSetE
FN:58,64,_ZN5neml219FullPrimitiveTensorINS_2R3EEC2ERKNS_9OptionSetE
FN:58,64,_ZN5neml219FullPrimitiveTensorINS_2R4EEC2ERKNS_9OptionSetE
FN:58,64,_ZN5neml219FullPrimitiveTensorINS_2R5EEC2ERKNS_9OptionSetE
FN:58,64,_ZN5neml219FullPrimitiveTensorINS_2R8EEC2ERKNS_9OptionSetE
FN:58,64,_ZN5neml219FullPrimitiveTensorINS_3RotEEC2ERKNS_9OptionSetE
FN:58,64,_ZN5neml219FullPrimitiveTensorINS_3SR2EEC2ERKNS_9OptionSetE
FN:58,64,_ZN5neml219FullPrimitiveTensorINS_3VecEEC2ERKNS_9OptionSetE
FN:58,64,_ZN5neml219FullPrimitiveTensorINS_3WR2EEC2ERKNS_9OptionSetE
FN:58,64,_ZN5neml219FullPrimitiveTensorINS_4SFR3EEC2ERKNS_9OptionSetE
FN:58,64,_ZN5neml219FullPrimitiveTensorINS_4SSR4EEC2ERKNS_9OptionSetE
FN:58,64,_ZN5neml219FullPrimitiveTensorINS_4SWR4EEC2ERKNS_9OptionSetE
FN:58,64,_ZN5neml219FullPrimitiveTensorINS_4WSR4EEC2ERKNS_9OptionSetE
FN:58,64,_ZN5neml219FullPrimitiveTensorINS_4WWR4EEC2ERKNS_9OptionSetE
FN:58,64,_ZN5neml219FullPrimitiveTensorINS_5SFFR4EEC2ERKNS_9OptionSetE
FN:58,64,_ZN5neml219FullPrimitiveTensorINS_5SSFR5EEC2ERKNS_9OptionSetE
FN:58,64,_ZN5neml219FullPrimitiveTensorINS_6SSSSR8EEC2ERKNS_9OptionSetE
FN:58,64,_ZN5neml219FullPrimitiveTensorINS_6ScalarEEC2ERKNS_9OptionSetE
FNDA:6,_ZN5neml219FullPrimitiveTensorINS_10QuaternionEE16expected_optionsEv
FNDA:6,_ZN5neml219FullPrimitiveTensorINS_11MillerIndexEE16expected_optionsEv
FNDA:6,_ZN5neml219FullPrimitiveTensorINS_2R2EE16expected_optionsEv
FNDA:6,_ZN5neml219FullPrimitiveTensorINS_2R3EE16expected_optionsEv
FNDA:6,_ZN5neml219FullPrimitiveTensorINS_2R4EE16expected_optionsEv
FNDA:6,_ZN5neml219FullPrimitiveTensorINS_2R5EE16expected_optionsEv
FNDA:6,_ZN5neml219FullPrimitiveTensorINS_2R8EE16expected_optionsEv
FNDA:6,_ZN5neml219FullPrimitiveTensorINS_3RotEE16expected_optionsEv
FNDA:6,_ZN5neml219FullPrimitiveTensorINS_3SR2EE16expected_optionsEv
FNDA:6,_ZN5neml219FullPrimitiveTensorINS_3VecEE16expected_optionsEv
FNDA:6,_ZN5neml219FullPrimitiveTensorINS_3WR2EE16expected_optionsEv
FNDA:6,_ZN5neml219FullPrimitiveTensorINS_4SFR3EE16expected_optionsEv
FNDA:6,_ZN5neml219FullPrimitiveTensorINS_4SSR4EE16expected_optionsEv
FNDA:6,_ZN5neml219FullPrimitiveTensorINS_4SWR4EE16expected_optionsEv
FNDA:6,_ZN5neml219FullPrimitiveTensorINS_4WSR4EE16expected_optionsEv
FNDA:6,_ZN5neml219FullPrimitiveTensorINS_4WWR4EE16expected_optionsEv
FNDA:6,_ZN5neml219FullPrimitiveTensorINS_5SFFR4EE16expected_optionsEv
FNDA:6,_ZN5neml219FullPrimitiveTensorINS_5SSFR5EE16expected_optionsEv
FNDA:6,_ZN5neml219FullPrimitiveTensorINS_6SSSSR8EE16expected_optionsEv
FNDA:6,_ZN5neml219FullPrimitiveTensorINS_6ScalarEE16expected_optionsEv
FNDA:0,_ZN5neml219FullPrimitiveTensorINS_10QuaternionEEC2ERKNS_9OptionSetE
FNDA:0,_ZN5neml219FullPrimitiveTensorINS_11MillerIndexEEC2ERKNS_9OptionSetE
FNDA:9,_ZN5neml219FullPrimitiveTensorINS_2R2EEC2ERKNS_9OptionSetE
FNDA:9,_ZN5neml219FullPrimitiveTensorINS_2R3EEC2ERKNS_9OptionSetE
FNDA:9,_ZN5neml219FullPrimitiveTensorINS_2R4EEC2ERKNS_9OptionSetE
FNDA:9,_ZN5neml219FullPrimitiveTensorINS_2R5EEC2ERKNS_9OptionSetE
FNDA:0,_ZN5neml219FullPrimitiveTensorINS_2R8EEC2ERKNS_9OptionSetE
FNDA:9,_ZN5neml219FullPrimitiveTensorINS_3RotEEC2ERKNS_9OptionSetE
FNDA:9,_ZN5neml219FullPrimitiveTensorINS_3SR2EEC2ERKNS_9OptionSetE
FNDA:9,_ZN5neml219FullPrimitiveTensorINS_3VecEEC2ERKNS_9OptionSetE
FNDA:0,_ZN5neml219FullPrimitiveTensorINS_3WR2EEC2ERKNS_9OptionSetE
FNDA:9,_ZN5neml219FullPrimitiveTensorINS_4SFR3EEC2ERKNS_9OptionSetE
FNDA:9,_ZN5neml219FullPrimitiveTensorINS_4SSR4EEC2ERKNS_9OptionSetE
FNDA:0,_ZN5neml219FullPrimitiveTensorINS_4SWR4EEC2ERKNS_9OptionSetE
FNDA:0,_ZN5neml219FullPrimitiveTensorINS_4WSR4EEC2ERKNS_9OptionSetE
FNDA:0,_ZN5neml219FullPrimitiveTensorINS_4WWR4EEC2ERKNS_9OptionSetE
FNDA:0,_ZN5neml219FullPrimitiveTensorINS_5SFFR4EEC2ERKNS_9OptionSetE
FNDA:9,_ZN5neml219FullPrimitiveTensorINS_5SSFR5EEC2ERKNS_9OptionSetE
FNDA:0,_ZN5neml219FullPrimitiveTensorINS_6SSSSR8EEC2ERKNS_9OptionSetE
FNDA:68,_ZN5neml219FullPrimitiveTensorINS_6ScalarEEC2ERKNS_9OptionSetE
FNF:40
FNH:31
DA:38,120
DA:42,120
DA:44,120
DA:45,120
DA:48,360
DA:49,240
DA:51,240
DA:52,120
DA:54,240
DA:55,120
DA:58,158
DA:59,316
DA:60,158
DA:61,158
DA:62,632
DA:64,158
LF:16
LH:16
end_of_record
TN:
SF:/home/runner/work/neml2/neml2/src/neml2/tensors/user_tensors/FullTensor.cxx
FN:32,48,_ZN5neml210FullTensor16expected_optionsEv
FN:50,57,_ZN5neml210FullTensorC2ERKNS_9OptionSetE
FNDA:6,_ZN5neml210FullTensor16expected_optionsEv
FNDA:9,_ZN5neml210FullTensorC2ERKNS_9OptionSetE
FNF:2
FNH:2
DA:32,6
DA:34,6
DA:35,6
DA:36,6
DA:38,18
DA:39,6
DA:41,18
DA:42,12
DA:44,12
DA:45,6
DA:47,6
DA:48,0
DA:50,9
DA:51,18
DA:53,9
DA:54,9
DA:55,54
DA:57,9
LF:18
LH:17
end_of_record
TN:
SF:/home/runner/work/neml2/neml2/src/neml2/tensors/user_tensors/IdentityTensor.cxx
FN:32,45,_ZN5neml214IdentityTensor16expected_optionsEv
FN:47,52,_ZN5neml214IdentityTensorC2ERKNS_9OptionSetE
FNDA:6,_ZN5neml214IdentityTensor16expected_optionsEv
FNDA:1,_ZN5neml214IdentityTensorC2ERKNS_9OptionSetE
FNF:2
FNH:2
DA:32,6
DA:34,6
DA:35,6
DA:37,18
DA:38,12
DA:40,12
DA:41,12
DA:42,6
DA:44,6
DA:45,0
DA:47,1
DA:49,4
DA:50,4
DA:52,1
LF:14
LH:13
end_of_record
TN:
SF:/home/runner/work/neml2/neml2/src/neml2/tensors/user_tensors/LinspacePrimitiveTensor.cxx
FN:38,66,_ZN5neml223LinspacePrimitiveTensorINS_10QuaternionEE16expected_optionsEv
FN:38,66,_ZN5neml223LinspacePrimitiveTensorINS_11MillerIndexEE16expected_optionsEv
FN:38,66,_ZN5neml223LinspacePrimitiveTensorINS_2R2EE16expected_optionsEv
FN:38,66,_ZN5neml223LinspacePrimitiveTensorINS_2R3EE16expected_optionsEv
FN:38,66,_ZN5neml223LinspacePrimitiveTensorINS_2R4EE16expected_optionsEv
FN:38,66,_ZN5neml223LinspacePrimitiveTensorINS_2R5EE16expected_optionsEv
FN:38,66,_ZN5neml223LinspacePrimitiveTensorINS_2R8EE16expected_optionsEv
FN:38,66,_ZN5neml223LinspacePrimitiveTensorINS_3RotEE16expected_optionsEv
FN:38,66,_ZN5neml223LinspacePrimitiveTensorINS_3SR2EE16expected_optionsEv
FN:38,66,_ZN5neml223LinspacePrimitiveTensorINS_3VecEE16expected_optionsEv
FN:38,66,_ZN5neml223LinspacePrimitiveTensorINS_3WR2EE16expected_optionsEv
FN:38,66,_ZN5neml223LinspacePrimitiveTensorINS_4SFR3EE16expected_optionsEv
FN:38,66,_ZN5neml223LinspacePrimitiveTensorINS_4SSR4EE16expected_optionsEv
FN:38,66,_ZN5neml223LinspacePrimitiveTensorINS_4SWR4EE16expected_optionsEv
FN:38,66,_ZN5neml223LinspacePrimitiveTensorINS_4WSR4EE16expected_optionsEv
FN:38,66,_ZN5neml223LinspacePrimitiveTensorINS_4WWR4EE16expected_optionsEv
FN:38,66,_ZN5neml223LinspacePrimitiveTensorINS_5SFFR4EE16expected_optionsEv
FN:38,66,_ZN5neml223LinspacePrimitiveTensorINS_5SSFR5EE16expected_optionsEv
FN:38,66,_ZN5neml223LinspacePrimitiveTensorINS_6SSSSR8EE16expected_optionsEv
FN:38,66,_ZN5neml223LinspacePrimitiveTensorINS_6ScalarEE16expected_optionsEv
FN:69,73,_ZN5neml223LinspacePrimitiveTensorINS_10QuaternionEEC2ERKNS_9OptionSetE
FN:69,73,_ZN5neml223LinspacePrimitiveTensorINS_11MillerIndexEEC2ERKNS_9OptionSetE
FN:69,73,_ZN5neml223LinspacePrimitiveTensorINS_2R2EEC2ERKNS_9OptionSetE
FN:69,73,_ZN5neml223LinspacePrimitiveTensorINS_2R3EEC2ERKNS_9OptionSetE
FN:69,73,_ZN5neml223LinspacePrimitiveTensorINS_2R4EEC2ERKNS_9OptionSetE
FN:69,73,_ZN5neml223LinspacePrimitiveTensorINS_2R5EEC2ERKNS_9OptionSetE
FN:69,73,_ZN5neml223LinspacePrimitiveTensorINS_2R8EEC2ERKNS_9OptionSetE
FN:69,73,_ZN5neml223LinspacePrimitiveTensorINS_3RotEEC2ERKNS_9OptionSetE
FN:69,73,_ZN5neml223LinspacePrimitiveTensorINS_3SR2EEC2ERKNS_9OptionSetE
FN:69,73,_ZN5neml223LinspacePrimitiveTensorINS_3VecEEC2ERKNS_9OptionSetE
FN:69,73,_ZN5neml223LinspacePrimitiveTensorINS_3WR2EEC2ERKNS_9OptionSetE
FN:69,73,_ZN5neml223LinspacePrimitiveTensorINS_4SFR3EEC2ERKNS_9OptionSetE
FN:69,73,_ZN5neml223LinspacePrimitiveTensorINS_4SSR4EEC2ERKNS_9OptionSetE
FN:69,73,_ZN5neml223LinspacePrimitiveTensorINS_4SWR4EEC2ERKNS_9OptionSetE
FN:69,73,_ZN5neml223LinspacePrimitiveTensorINS_4WSR4EEC2ERKNS_9OptionSetE
FN:69,73,_ZN5neml223LinspacePrimitiveTensorINS_4WWR4EEC2ERKNS_9OptionSetE
FN:69,73,_ZN5neml223LinspacePrimitiveTensorINS_5SFFR4EEC2ERKNS_9OptionSetE
FN:69,73,_ZN5neml223LinspacePrimitiveTensorINS_5SSFR5EEC2ERKNS_9OptionSetE
FN:69,73,_ZN5neml223LinspacePrimitiveTensorINS_6SSSSR8EEC2ERKNS_9OptionSetE
FN:69,73,_ZN5neml223LinspacePrimitiveTensorINS_6ScalarEEC2ERKNS_9OptionSetE
FN:77,90,_ZNK5neml223LinspacePrimitiveTensorINS_10QuaternionEE4makeERKNS_9OptionSetE
FN:77,90,_ZNK5neml223LinspacePrimitiveTensorINS_11MillerIndexEE4makeERKNS_9OptionSetE
FN:77,90,_ZNK5neml223LinspacePrimitiveTensorINS_2R2EE4makeERKNS_9OptionSetE
FN:77,90,_ZNK5neml223LinspacePrimitiveTensorINS_2R3EE4makeERKNS_9OptionSetE
FN:77,90,_ZNK5neml223LinspacePrimitiveTensorINS_2R4EE4makeERKNS_9OptionSetE
FN:77,90,_ZNK5neml223LinspacePrimitiveTensorINS_2R5EE4makeERKNS_9OptionSetE
FN:77,90,_ZNK5neml223LinspacePrimitiveTensorINS_2R8EE4makeERKNS_9OptionSetE
FN:77,90,_ZNK5neml223LinspacePrimitiveTensorINS_3RotEE4makeERKNS_9OptionSetE
FN:77,90,_ZNK5neml223LinspacePrimitiveTensorINS_3SR2EE4makeERKNS_9OptionSetE
FN:77,90,_ZNK5neml223LinspacePrimitiveTensorINS_3VecEE4makeERKNS_9OptionSetE
FN:77,90,_ZNK5neml223LinspacePrimitiveTensorINS_3WR2EE4makeERKNS_9OptionSetE
FN:77,90,_ZNK5neml223LinspacePrimitiveTensorINS_4SFR3EE4makeERKNS_9OptionSetE
FN:77,90,_ZNK5neml223LinspacePrimitiveTensorINS_4SSR4EE4makeERKNS_9OptionSetE
FN:77,90,_ZNK5neml223LinspacePrimitiveTensorINS_4SWR4EE4makeERKNS_9OptionSetE
FN:77,90,_ZNK5neml223LinspacePrimitiveTensorINS_4WSR4EE4makeERKNS_9OptionSetE
FN:77,90,_ZNK5neml223LinspacePrimitiveTensorINS_4WWR4EE4makeERKNS_9OptionSetE
FN:77,90,_ZNK5neml223LinspacePrimitiveTensorINS_5SFFR4EE4makeERKNS_9OptionSetE
FN:77,90,_ZNK5neml223LinspacePrimitiveTensorINS_5SSFR5EE4makeERKNS_9OptionSetE
FN:77,90,_ZNK5neml223LinspacePrimitiveTensorINS_6SSSSR8EE4makeERKNS_9OptionSetE
FN:77,90,_ZNK5neml223LinspacePrimitiveTensorINS_6ScalarEE4makeERKNS_9OptionSetE
FNDA:6,_ZN5neml223LinspacePrimitiveTensorINS_10QuaternionEE16expected_optionsEv
FNDA:6,_ZN5neml223LinspacePrimitiveTensorINS_11MillerIndexEE16expected_optionsEv
FNDA:6,_ZN5neml223LinspacePrimitiveTensorINS_2R2EE16expected_optionsEv
FNDA:6,_ZN5neml223LinspacePrimitiveTensorINS_2R3EE16expected_optionsEv
FNDA:6,_ZN5neml223LinspacePrimitiveTensorINS_2R4EE16expected_optionsEv
FNDA:6,_ZN5neml223LinspacePrimitiveTensorINS_2R5EE16expected_optionsEv
FNDA:6,_ZN5neml223LinspacePrimitiveTensorINS_2R8EE16expected_optionsEv
FNDA:6,_ZN5neml223LinspacePrimitiveTensorINS_3RotEE16expected_optionsEv
FNDA:6,_ZN5neml223LinspacePrimitiveTensorINS_3SR2EE16expected_optionsEv
FNDA:6,_ZN5neml223LinspacePrimitiveTensorINS_3VecEE16expected_optionsEv
FNDA:6,_ZN5neml223LinspacePrimitiveTensorINS_3WR2EE16expected_optionsEv
FNDA:6,_ZN5neml223LinspacePrimitiveTensorINS_4SFR3EE16expected_optionsEv
FNDA:6,_ZN5neml223LinspacePrimitiveTensorINS_4SSR4EE16expected_optionsEv
FNDA:6,_ZN5neml223LinspacePrimitiveTensorINS_4SWR4EE16expected_optionsEv
FNDA:6,_ZN5neml223LinspacePrimitiveTensorINS_4WSR4EE16expected_optionsEv
FNDA:6,_ZN5neml223LinspacePrimitiveTensorINS_4WWR4EE16expected_optionsEv
FNDA:6,_ZN5neml223LinspacePrimitiveTensorINS_5SFFR4EE16expected_optionsEv
FNDA:6,_ZN5neml223LinspacePrimitiveTensorINS_5SSFR5EE16expected_optionsEv
FNDA:6,_ZN5neml223LinspacePrimitiveTensorINS_6SSSSR8EE16expected_optionsEv
FNDA:6,_ZN5neml223LinspacePrimitiveTensorINS_6ScalarEE16expected_optionsEv
FNDA:0,_ZN5neml223LinspacePrimitiveTensorINS_10QuaternionEEC2ERKNS_9OptionSetE
FNDA:0,_ZN5neml223LinspacePrimitiveTensorINS_11MillerIndexEEC2ERKNS_9OptionSetE
FNDA:1,_ZN5neml223LinspacePrimitiveTensorINS_2R2EEC2ERKNS_9OptionSetE
FNDA:1,_ZN5neml223LinspacePrimitiveTensorINS_2R3EEC2ERKNS_9OptionSetE
FNDA:1,_ZN5neml223LinspacePrimitiveTensorINS_2R4EEC2ERKNS_9OptionSetE
FNDA:1,_ZN5neml223LinspacePrimitiveTensorINS_2R5EEC2ERKNS_9OptionSetE
FNDA:0,_ZN5neml223LinspacePrimitiveTensorINS_2R8EEC2ERKNS_9OptionSetE
FNDA:1,_ZN5neml223LinspacePrimitiveTensorINS_3RotEEC2ERKNS_9OptionSetE
FNDA:12,_ZN5neml223LinspacePrimitiveTensorINS_3SR2EEC2ERKNS_9OptionSetE
FNDA:1,_ZN5neml223LinspacePrimitiveTensorINS_3VecEEC2ERKNS_9OptionSetE
FNDA:1,_ZN5neml223LinspacePrimitiveTensorINS_3WR2EEC2ERKNS_9OptionSetE
FNDA:1,_ZN5neml223LinspacePrimitiveTensorINS_4SFR3EEC2ERKNS_9OptionSetE
FNDA:1,_ZN5neml223LinspacePrimitiveTensorINS_4SSR4EEC2ERKNS_9OptionSetE
FNDA:0,_ZN5neml223LinspacePrimitiveTensorINS_4SWR4EEC2ERKNS_9OptionSetE
FNDA:0,_ZN5neml223LinspacePrimitiveTensorINS_4WSR4EEC2ERKNS_9OptionSetE
FNDA:0,_ZN5neml223LinspacePrimitiveTensorINS_4WWR4EEC2ERKNS_9OptionSetE
FNDA:0,_ZN5neml223LinspacePrimitiveTensorINS_5SFFR4EEC2ERKNS_9OptionSetE
FNDA:1,_ZN5neml223LinspacePrimitiveTensorINS_5SSFR5EEC2ERKNS_9OptionSetE
FNDA:0,_ZN5neml223LinspacePrimitiveTensorINS_6SSSSR8EEC2ERKNS_9OptionSetE
FNDA:60,_ZN5neml223LinspacePrimitiveTensorINS_6ScalarEEC2ERKNS_9OptionSetE
FNDA:0,_ZNK5neml223LinspacePrimitiveTensorINS_10QuaternionEE4makeERKNS_9OptionSetE
FNDA:0,_ZNK5neml223LinspacePrimitiveTensorINS_11MillerIndexEE4makeERKNS_9OptionSetE
FNDA:1,_ZNK5neml223LinspacePrimitiveTensorINS_2R2EE4makeERKNS_9OptionSetE
FNDA:1,_ZNK5neml223LinspacePrimitiveTensorINS_2R3EE4makeERKNS_9OptionSetE
FNDA:1,_ZNK5neml223LinspacePrimitiveTensorINS_2R4EE4makeERKNS_9OptionSetE
FNDA:1,_ZNK5neml223LinspacePrimitiveTensorINS_2R5EE4makeERKNS_9OptionSetE
FNDA:0,_ZNK5neml223LinspacePrimitiveTensorINS_2R8EE4makeERKNS_9OptionSetE
FNDA:1,_ZNK5neml223LinspacePrimitiveTensorINS_3RotEE4makeERKNS_9OptionSetE
FNDA:12,_ZNK5neml223LinspacePrimitiveTensorINS_3SR2EE4makeERKNS_9OptionSetE
FNDA:1,_ZNK5neml223LinspacePrimitiveTensorINS_3VecEE4makeERKNS_9OptionSetE
FNDA:1,_ZNK5neml223LinspacePrimitiveTensorINS_3WR2EE4makeERKNS_9OptionSetE
FNDA:1,_ZNK5neml223LinspacePrimitiveTensorINS_4SFR3EE4makeERKNS_9OptionSetE
FNDA:1,_ZNK5neml223LinspacePrimitiveTensorINS_4SSR4EE4makeERKNS_9OptionSetE
FNDA:0,_ZNK5neml223LinspacePrimitiveTensorINS_4SWR4EE4makeERKNS_9OptionSetE
FNDA:0,_ZNK5neml223LinspacePrimitiveTensorINS_4WSR4EE4makeERKNS_9OptionSetE
FNDA:0,_ZNK5neml223LinspacePrimitiveTensorINS_4WWR4EE4makeERKNS_9OptionSetE
FNDA:0,_ZNK5neml223LinspacePrimitiveTensorINS_5SFFR4EE4makeERKNS_9OptionSetE
FNDA:1,_ZNK5neml223LinspacePrimitiveTensorINS_5SSFR5EE4makeERKNS_9OptionSetE
FNDA:0,_ZNK5neml223LinspacePrimitiveTensorINS_6SSSSR8EE4makeERKNS_9OptionSetE
FNDA:60,_ZNK5neml223LinspacePrimitiveTensorINS_6ScalarEE4makeERKNS_9OptionSetE
FNF:60
FNH:44
DA:38,120
DA:42,120
DA:44,120
DA:45,120
DA:49,240
DA:50,240
DA:52,240
DA:53,240
DA:55,240
DA:56,240
DA:58,240
DA:59,120
DA:61,360
DA:62,120
DA:65,240
DA:66,120
DA:69,82
DA:71,82
DA:73,82
DA:77,82
DA:79,164
DA:80,164
DA:81,164
DA:82,246
DA:85,82
DA:86,82
DA:87,0
DA:89,164
DA:90,82
LF:29
LH:28
end_of_record
TN:
SF:/home/runner/work/neml2/neml2/src/neml2/tensors/user_tensors/LinspaceTensor.cxx
FN:32,58,_ZN5neml214LinspaceTensor16expected_optionsEv
FN:60,64,_ZN5neml214LinspaceTensorC2ERKNS_9OptionSetE
FN:67,85,_ZNK5neml214LinspaceTensor4makeERKNS_9OptionSetE
FNDA:6,_ZN5neml214LinspaceTensor16expected_optionsEv
FNDA:5,_ZN5neml214LinspaceTensorC2ERKNS_9OptionSetE
FNDA:5,_ZNK5neml214LinspaceTensor4makeERKNS_9OptionSetE
FNF:3
FNH:3
DA:32,6
DA:34,6
DA:35,6
DA:36,6
DA:38,12
DA:39,12
DA:41,12
DA:42,12
DA:44,12
DA:45,12
DA:47,12
DA:48,12
DA:50,12
DA:51,6
DA:53,18
DA:54,12
DA:55,6
DA:57,6
DA:58,0
DA:60,5
DA:62,5
DA:64,5
DA:67,5
DA:69,10
DA:70,10
DA:71,5
DA:72,40
DA:75,5
DA:76,5
DA:77,4
DA:80,5
DA:81,5
DA:82,4
DA:84,10
DA:85,5
LF:35
LH:34
end_of_record
TN:
SF:/home/runner/work/neml2/neml2/src/neml2/tensors/user_tensors/LogspacePrimitiveTensor.cxx
FN:37,68,_ZN5neml223LogspacePrimitiveTensorINS_10QuaternionEE16expected_optionsEv
FN:37,68,_ZN5neml223LogspacePrimitiveTensorINS_11MillerIndexEE16expected_optionsEv
FN:37,68,_ZN5neml223LogspacePrimitiveTensorINS_2R2EE16expected_optionsEv
FN:37,68,_ZN5neml223LogspacePrimitiveTensorINS_2R3EE16expected_optionsEv
FN:37,68,_ZN5neml223LogspacePrimitiveTensorINS_2R4EE16expected_optionsEv
FN:37,68,_ZN5neml223LogspacePrimitiveTensorINS_2R5EE16expected_optionsEv
FN:37,68,_ZN5neml223LogspacePrimitiveTensorINS_2R8EE16expected_optionsEv
FN:37,68,_ZN5neml223LogspacePrimitiveTensorINS_3RotEE16expected_optionsEv
FN:37,68,_ZN5neml223LogspacePrimitiveTensorINS_3SR2EE16expected_optionsEv
FN:37,68,_ZN5neml223LogspacePrimitiveTensorINS_3VecEE16expected_optionsEv
FN:37,68,_ZN5neml223LogspacePrimitiveTensorINS_3WR2EE16expected_optionsEv
FN:37,68,_ZN5neml223LogspacePrimitiveTensorINS_4SFR3EE16expected_optionsEv
FN:37,68,_ZN5neml223LogspacePrimitiveTensorINS_4SSR4EE16expected_optionsEv
FN:37,68,_ZN5neml223LogspacePrimitiveTensorINS_4SWR4EE16expected_optionsEv
FN:37,68,_ZN5neml223LogspacePrimitiveTensorINS_4WSR4EE16expected_optionsEv
FN:37,68,_ZN5neml223LogspacePrimitiveTensorINS_4WWR4EE16expected_optionsEv
FN:37,68,_ZN5neml223LogspacePrimitiveTensorINS_5SFFR4EE16expected_optionsEv
FN:37,68,_ZN5neml223LogspacePrimitiveTensorINS_5SSFR5EE16expected_optionsEv
FN:37,68,_ZN5neml223LogspacePrimitiveTensorINS_6SSSSR8EE16expected_optionsEv
FN:37,68,_ZN5neml223LogspacePrimitiveTensorINS_6ScalarEE16expected_optionsEv
FN:71,75,_ZN5neml223LogspacePrimitiveTensorINS_10QuaternionEEC2ERKNS_9OptionSetE
FN:71,75,_ZN5neml223LogspacePrimitiveTensorINS_11MillerIndexEEC2ERKNS_9OptionSetE
FN:71,75,_ZN5neml223LogspacePrimitiveTensorINS_2R2EEC2ERKNS_9OptionSetE
FN:71,75,_ZN5neml223LogspacePrimitiveTensorINS_2R3EEC2ERKNS_9OptionSetE
FN:71,75,_ZN5neml223LogspacePrimitiveTensorINS_2R4EEC2ERKNS_9OptionSetE
FN:71,75,_ZN5neml223LogspacePrimitiveTensorINS_2R5EEC2ERKNS_9OptionSetE
FN:71,75,_ZN5neml223LogspacePrimitiveTensorINS_2R8EEC2ERKNS_9OptionSetE
FN:71,75,_ZN5neml223LogspacePrimitiveTensorINS_3RotEEC2ERKNS_9OptionSetE
FN:71,75,_ZN5neml223LogspacePrimitiveTensorINS_3SR2EEC2ERKNS_9OptionSetE
FN:71,75,_ZN5neml223LogspacePrimitiveTensorINS_3VecEEC2ERKNS_9OptionSetE
FN:71,75,_ZN5neml223LogspacePrimitiveTensorINS_3WR2EEC2ERKNS_9OptionSetE
FN:71,75,_ZN5neml223LogspacePrimitiveTensorINS_4SFR3EEC2ERKNS_9OptionSetE
FN:71,75,_ZN5neml223LogspacePrimitiveTensorINS_4SSR4EEC2ERKNS_9OptionSetE
FN:71,75,_ZN5neml223LogspacePrimitiveTensorINS_4SWR4EEC2ERKNS_9OptionSetE
FN:71,75,_ZN5neml223LogspacePrimitiveTensorINS_4WSR4EEC2ERKNS_9OptionSetE
FN:71,75,_ZN5neml223LogspacePrimitiveTensorINS_4WWR4EEC2ERKNS_9OptionSetE
FN:71,75,_ZN5neml223LogspacePrimitiveTensorINS_5SFFR4EEC2ERKNS_9OptionSetE
FN:71,75,_ZN5neml223LogspacePrimitiveTensorINS_5SSFR5EEC2ERKNS_9OptionSetE
FN:71,75,_ZN5neml223LogspacePrimitiveTensorINS_6SSSSR8EEC2ERKNS_9OptionSetE
FN:71,75,_ZN5neml223LogspacePrimitiveTensorINS_6ScalarEEC2ERKNS_9OptionSetE
FN:79,93,_ZNK5neml223LogspacePrimitiveTensorINS_10QuaternionEE4makeERKNS_9OptionSetE
FN:79,93,_ZNK5neml223LogspacePrimitiveTensorINS_11MillerIndexEE4makeERKNS_9OptionSetE
FN:79,93,_ZNK5neml223LogspacePrimitiveTensorINS_2R2EE4makeERKNS_9OptionSetE
FN:79,93,_ZNK5neml223LogspacePrimitiveTensorINS_2R3EE4makeERKNS_9OptionSetE
FN:79,93,_ZNK5neml223LogspacePrimitiveTensorINS_2R4EE4makeERKNS_9OptionSetE
FN:79,93,_ZNK5neml223LogspacePrimitiveTensorINS_2R5EE4makeERKNS_9OptionSetE
FN:79,93,_ZNK5neml223LogspacePrimitiveTensorINS_2R8EE4makeERKNS_9OptionSetE
FN:79,93,_ZNK5neml223LogspacePrimitiveTensorINS_3RotEE4makeERKNS_9OptionSetE
FN:79,93,_ZNK5neml223LogspacePrimitiveTensorINS_3SR2EE4makeERKNS_9OptionSetE
FN:79,93,_ZNK5neml223LogspacePrimitiveTensorINS_3VecEE4makeERKNS_9OptionSetE
FN:79,93,_ZNK5neml223LogspacePrimitiveTensorINS_3WR2EE4makeERKNS_9OptionSetE
FN:79,93,_ZNK5neml223LogspacePrimitiveTensorINS_4SFR3EE4makeERKNS_9OptionSetE
FN:79,93,_ZNK5neml223LogspacePrimitiveTensorINS_4SSR4EE4makeERKNS_9OptionSetE
FN:79,93,_ZNK5neml223LogspacePrimitiveTensorINS_4SWR4EE4makeERKNS_9OptionSetE
FN:79,93,_ZNK5neml223LogspacePrimitiveTensorINS_4WSR4EE4makeERKNS_9OptionSetE
FN:79,93,_ZNK5neml223LogspacePrimitiveTensorINS_4WWR4EE4makeERKNS_9OptionSetE
FN:79,93,_ZNK5neml223LogspacePrimitiveTensorINS_5SFFR4EE4makeERKNS_9OptionSetE
FN:79,93,_ZNK5neml223LogspacePrimitiveTensorINS_5SSFR5EE4makeERKNS_9OptionSetE
FN:79,93,_ZNK5neml223LogspacePrimitiveTensorINS_6SSSSR8EE4makeERKNS_9OptionSetE
FN:79,93,_ZNK5neml223LogspacePrimitiveTensorINS_6ScalarEE4makeERKNS_9OptionSetE
FNDA:6,_ZN5neml223LogspacePrimitiveTensorINS_10QuaternionEE16expected_optionsEv
FNDA:6,_ZN5neml223LogspacePrimitiveTensorINS_11MillerIndexEE16expected_optionsEv
FNDA:6,_ZN5neml223LogspacePrimitiveTensorINS_2R2EE16expected_optionsEv
FNDA:6,_ZN5neml223LogspacePrimitiveTensorINS_2R3EE16expected_optionsEv
FNDA:6,_ZN5neml223LogspacePrimitiveTensorINS_2R4EE16expected_optionsEv
FNDA:6,_ZN5neml223LogspacePrimitiveTensorINS_2R5EE16expected_optionsEv
FNDA:6,_ZN5neml223LogspacePrimitiveTensorINS_2R8EE16expected_optionsEv
FNDA:6,_ZN5neml223LogspacePrimitiveTensorINS_3RotEE16expected_optionsEv
FNDA:6,_ZN5neml223LogspacePrimitiveTensorINS_3SR2EE16expected_optionsEv
FNDA:6,_ZN5neml223LogspacePrimitiveTensorINS_3VecEE16expected_optionsEv
FNDA:6,_ZN5neml223LogspacePrimitiveTensorINS_3WR2EE16expected_optionsEv
FNDA:6,_ZN5neml223LogspacePrimitiveTensorINS_4SFR3EE16expected_optionsEv
FNDA:6,_ZN5neml223LogspacePrimitiveTensorINS_4SSR4EE16expected_optionsEv
FNDA:6,_ZN5neml223LogspacePrimitiveTensorINS_4SWR4EE16expected_optionsEv
FNDA:6,_ZN5neml223LogspacePrimitiveTensorINS_4WSR4EE16expected_optionsEv
FNDA:6,_ZN5neml223LogspacePrimitiveTensorINS_4WWR4EE16expected_optionsEv
FNDA:6,_ZN5neml223LogspacePrimitiveTensorINS_5SFFR4EE16expected_optionsEv
FNDA:6,_ZN5neml223LogspacePrimitiveTensorINS_5SSFR5EE16expected_optionsEv
FNDA:6,_ZN5neml223LogspacePrimitiveTensorINS_6SSSSR8EE16expected_optionsEv
FNDA:6,_ZN5neml223LogspacePrimitiveTensorINS_6ScalarEE16expected_optionsEv
FNDA:0,_ZN5neml223LogspacePrimitiveTensorINS_10QuaternionEEC2ERKNS_9OptionSetE
FNDA:0,_ZN5neml223LogspacePrimitiveTensorINS_11MillerIndexEEC2ERKNS_9OptionSetE
FNDA:1,_ZN5neml223LogspacePrimitiveTensorINS_2R2EEC2ERKNS_9OptionSetE
FNDA:1,_ZN5neml223LogspacePrimitiveTensorINS_2R3EEC2ERKNS_9OptionSetE
FNDA:1,_ZN5neml223LogspacePrimitiveTensorINS_2R4EEC2ERKNS_9OptionSetE
FNDA:1,_ZN5neml223LogspacePrimitiveTensorINS_2R5EEC2ERKNS_9OptionSetE
FNDA:0,_ZN5neml223LogspacePrimitiveTensorINS_2R8EEC2ERKNS_9OptionSetE
FNDA:1,_ZN5neml223LogspacePrimitiveTensorINS_3RotEEC2ERKNS_9OptionSetE
FNDA:1,_ZN5neml223LogspacePrimitiveTensorINS_3SR2EEC2ERKNS_9OptionSetE
FNDA:1,_ZN5neml223LogspacePrimitiveTensorINS_3VecEEC2ERKNS_9OptionSetE
FNDA:0,_ZN5neml223LogspacePrimitiveTensorINS_3WR2EEC2ERKNS_9OptionSetE
FNDA:1,_ZN5neml223LogspacePrimitiveTensorINS_4SFR3EEC2ERKNS_9OptionSetE
FNDA:1,_ZN5neml223LogspacePrimitiveTensorINS_4SSR4EEC2ERKNS_9OptionSetE
FNDA:0,_ZN5neml223LogspacePrimitiveTensorINS_4SWR4EEC2ERKNS_9OptionSetE
FNDA:0,_ZN5neml223LogspacePrimitiveTensorINS_4WSR4EEC2ERKNS_9OptionSetE
FNDA:0,_ZN5neml223LogspacePrimitiveTensorINS_4WWR4EEC2ERKNS_9OptionSetE
FNDA:0,_ZN5neml223LogspacePrimitiveTensorINS_5SFFR4EEC2ERKNS_9OptionSetE
FNDA:1,_ZN5neml223LogspacePrimitiveTensorINS_5SSFR5EEC2ERKNS_9OptionSetE
FNDA:0,_ZN5neml223LogspacePrimitiveTensorINS_6SSSSR8EEC2ERKNS_9OptionSetE
FNDA:7,_ZN5neml223LogspacePrimitiveTensorINS_6ScalarEEC2ERKNS_9OptionSetE
FNDA:0,_ZNK5neml223LogspacePrimitiveTensorINS_10QuaternionEE4makeERKNS_9OptionSetE
FNDA:0,_ZNK5neml223LogspacePrimitiveTensorINS_11MillerIndexEE4makeERKNS_9OptionSetE
FNDA:1,_ZNK5neml223LogspacePrimitiveTensorINS_2R2EE4makeERKNS_9OptionSetE
FNDA:1,_ZNK5neml223LogspacePrimitiveTensorINS_2R3EE4makeERKNS_9OptionSetE
FNDA:1,_ZNK5neml223LogspacePrimitiveTensorINS_2R4EE4makeERKNS_9OptionSetE
FNDA:1,_ZNK5neml223LogspacePrimitiveTensorINS_2R5EE4makeERKNS_9OptionSetE
FNDA:0,_ZNK5neml223LogspacePrimitiveTensorINS_2R8EE4makeERKNS_9OptionSetE
FNDA:1,_ZNK5neml223LogspacePrimitiveTensorINS_3RotEE4makeERKNS_9OptionSetE
FNDA:1,_ZNK5neml223LogspacePrimitiveTensorINS_3SR2EE4makeERKNS_9OptionSetE
FNDA:1,_ZNK5neml223LogspacePrimitiveTensorINS_3VecEE4makeERKNS_9OptionSetE
FNDA:0,_ZNK5neml223LogspacePrimitiveTensorINS_3WR2EE4makeERKNS_9OptionSetE
FNDA:1,_ZNK5neml223LogspacePrimitiveTensorINS_4SFR3EE4makeERKNS_9OptionSetE
FNDA:1,_ZNK5neml223LogspacePrimitiveTensorINS_4SSR4EE4makeERKNS_9OptionSetE
FNDA:0,_ZNK5neml223LogspacePrimitiveTensorINS_4SWR4EE4makeERKNS_9OptionSetE
FNDA:0,_ZNK5neml223LogspacePrimitiveTensorINS_4WSR4EE4makeERKNS_9OptionSetE
FNDA:0,_ZNK5neml223LogspacePrimitiveTensorINS_4WWR4EE4makeERKNS_9OptionSetE
FNDA:0,_ZNK5neml223LogspacePrimitiveTensorINS_5SFFR4EE4makeERKNS_9OptionSetE
FNDA:1,_ZNK5neml223LogspacePrimitiveTensorINS_5SSFR5EE4makeERKNS_9OptionSetE
FNDA:0,_ZNK5neml223LogspacePrimitiveTensorINS_6SSSSR8EE4makeERKNS_9OptionSetE
FNDA:7,_ZNK5neml223LogspacePrimitiveTensorINS_6ScalarEE4makeERKNS_9OptionSetE
FNF:60
FNH:42
DA:37,120
DA:41,120
DA:43,120
DA:44,120
DA:48,240
DA:49,240
DA:51,240
DA:52,240
DA:54,240
DA:55,240
DA:57,240
DA:58,240
DA:60,240
DA:61,120
DA:63,360
DA:64,120
DA:67,240
DA:68,120
DA:71,17
DA:73,17
DA:75,17
DA:79,17
DA:81,34
DA:82,34
DA:83,34
DA:84,34
DA:85,51
DA:88,17
DA:89,17
DA:90,0
DA:92,34
DA:93,17
LF:32
LH:31
end_of_record
TN:
SF:/home/runner/work/neml2/neml2/src/neml2/tensors/user_tensors/LogspaceTensor.cxx
FN:32,61,_ZN5neml214LogspaceTensor16expected_optionsEv
FN:63,67,_ZN5neml214LogspaceTensorC2ERKNS_9OptionSetE
FN:70,88,_ZNK5neml214LogspaceTensor4makeERKNS_9OptionSetE
FNDA:6,_ZN5neml214LogspaceTensor16expected_optionsEv
FNDA:1,_ZN5neml214LogspaceTensorC2ERKNS_9OptionSetE
FNDA:1,_ZNK5neml214LogspaceTensor4makeERKNS_9OptionSetE
FNF:3
FNH:3
DA:32,6
DA:34,6
DA:35,6
DA:36,6
DA:38,12
DA:39,12
DA:41,12
DA:42,12
DA:44,12
DA:45,12
DA:47,12
DA:48,12
DA:50,12
DA:51,12
DA:53,12
DA:54,6
DA:56,18
DA:57,12
DA:58,6
DA:60,6
DA:61,0
DA:63,1
DA:65,1
DA:67,1
DA:70,1
DA:72,2
DA:73,2
DA:74,1
DA:75,8
DA:78,1
DA:79,1
DA:80,0
DA:83,1
DA:84,1
DA:85,0
DA:87,2
DA:88,1
LF:37
LH:34
end_of_record
TN:
SF:/home/runner/work/neml2/neml2/src/neml2/tensors/user_tensors/OnesPrimitiveTensor.cxx
FN:38,51,_ZN5neml219OnesPrimitiveTensorINS_10QuaternionEE16expected_optionsEv
FN:38,51,_ZN5neml219OnesPrimitiveTensorINS_11MillerIndexEE16expected_optionsEv
FN:38,51,_ZN5neml219OnesPrimitiveTensorINS_2R2EE16expected_optionsEv
FN:38,51,_ZN5neml219OnesPrimitiveTensorINS_2R3EE16expected_optionsEv
FN:38,51,_ZN5neml219OnesPrimitiveTensorINS_2R4EE16expected_optionsEv
FN:38,51,_ZN5neml219OnesPrimitiveTensorINS_2R5EE16expected_optionsEv
FN:38,51,_ZN5neml219OnesPrimitiveTensorINS_2R8EE16expected_optionsEv
FN:38,51,_ZN5neml219OnesPrimitiveTensorINS_3RotEE16expected_optionsEv
FN:38,51,_ZN5neml219OnesPrimitiveTensorINS_3SR2EE16expected_optionsEv
FN:38,51,_ZN5neml219OnesPrimitiveTensorINS_3VecEE16expected_optionsEv
FN:38,51,_ZN5neml219OnesPrimitiveTensorINS_3WR2EE16expected_optionsEv
FN:38,51,_ZN5neml219OnesPrimitiveTensorINS_4SFR3EE16expected_optionsEv
FN:38,51,_ZN5neml219OnesPrimitiveTensorINS_4SSR4EE16expected_optionsEv
FN:38,51,_ZN5neml219OnesPrimitiveTensorINS_4SWR4EE16expected_optionsEv
FN:38,51,_ZN5neml219OnesPrimitiveTensorINS_4WSR4EE16expected_optionsEv
FN:38,51,_ZN5neml219OnesPrimitiveTensorINS_4WWR4EE16expected_optionsEv
FN:38,51,_ZN5neml219OnesPrimitiveTensorINS_5SFFR4EE16expected_optionsEv
FN:38,51,_ZN5neml219OnesPrimitiveTensorINS_5SSFR5EE16expected_optionsEv
FN:38,51,_ZN5neml219OnesPrimitiveTensorINS_6SSSSR8EE16expected_optionsEv
FN:38,51,_ZN5neml219OnesPrimitiveTensorINS_6ScalarEE16expected_optionsEv
FN:54,58,_ZN5neml219OnesPrimitiveTensorINS_10QuaternionEEC2ERKNS_9OptionSetE
FN:54,58,_ZN5neml219OnesPrimitiveTensorINS_11MillerIndexEEC2ERKNS_9OptionSetE
FN:54,58,_ZN5neml219OnesPrimitiveTensorINS_2R2EEC2ERKNS_9OptionSetE
FN:54,58,_ZN5neml219OnesPrimitiveTensorINS_2R3EEC2ERKNS_9OptionSetE
FN:54,58,_ZN5neml219OnesPrimitiveTensorINS_2R4EEC2ERKNS_9OptionSetE
FN:54,58,_ZN5neml219OnesPrimitiveTensorINS_2R5EEC2ERKNS_9OptionSetE
FN:54,58,_ZN5neml219OnesPrimitiveTensorINS_2R8EEC2ERKNS_9OptionSetE
FN:54,58,_ZN5neml219OnesPrimitiveTensorINS_3RotEEC2ERKNS_9OptionSetE
FN:54,58,_ZN5neml219OnesPrimitiveTensorINS_3SR2EEC2ERKNS_9OptionSetE
FN:54,58,_ZN5neml219OnesPrimitiveTensorINS_3VecEEC2ERKNS_9OptionSetE
FN:54,58,_ZN5neml219OnesPrimitiveTensorINS_3WR2EEC2ERKNS_9OptionSetE
FN:54,58,_ZN5neml219OnesPrimitiveTensorINS_4SFR3EEC2ERKNS_9OptionSetE
FN:54,58,_ZN5neml219OnesPrimitiveTensorINS_4SSR4EEC2ERKNS_9OptionSetE
FN:54,58,_ZN5neml219OnesPrimitiveTensorINS_4SWR4EEC2ERKNS_9OptionSetE
FN:54,58,_ZN5neml219OnesPrimitiveTensorINS_4WSR4EEC2ERKNS_9OptionSetE
FN:54,58,_ZN5neml219OnesPrimitiveTensorINS_4WWR4EEC2ERKNS_9OptionSetE
FN:54,58,_ZN5neml219OnesPrimitiveTensorINS_5SFFR4EEC2ERKNS_9OptionSetE
FN:54,58,_ZN5neml219OnesPrimitiveTensorINS_5SSFR5EEC2ERKNS_9OptionSetE
FN:54,58,_ZN5neml219OnesPrimitiveTensorINS_6SSSSR8EEC2ERKNS_9OptionSetE
FN:54,58,_ZN5neml219OnesPrimitiveTensorINS_6ScalarEEC2ERKNS_9OptionSetE
FNDA:6,_ZN5neml219OnesPrimitiveTensorINS_10QuaternionEE16expected_optionsEv
FNDA:6,_ZN5neml219OnesPrimitiveTensorINS_11MillerIndexEE16expected_optionsEv
FNDA:6,_ZN5neml219OnesPrimitiveTensorINS_2R2EE16expected_optionsEv
FNDA:6,_ZN5neml219OnesPrimitiveTensorINS_2R3EE16expected_optionsEv
FNDA:6,_ZN5neml219OnesPrimitiveTensorINS_2R4EE16expected_optionsEv
FNDA:6,_ZN5neml219OnesPrimitiveTensorINS_2R5EE16expected_optionsEv
FNDA:6,_ZN5neml219OnesPrimitiveTensorINS_2R8EE16expected_optionsEv
FNDA:6,_ZN5neml219OnesPrimitiveTensorINS_3RotEE16expected_optionsEv
FNDA:6,_ZN5neml219OnesPrimitiveTensorINS_3SR2EE16expected_optionsEv
FNDA:6,_ZN5neml219OnesPrimitiveTensorINS_3VecEE16expected_optionsEv
FNDA:6,_ZN5neml219OnesPrimitiveTensorINS_3WR2EE16expected_optionsEv
FNDA:6,_ZN5neml219OnesPrimitiveTensorINS_4SFR3EE16expected_optionsEv
FNDA:6,_ZN5neml219OnesPrimitiveTensorINS_4SSR4EE16expected_optionsEv
FNDA:6,_ZN5neml219OnesPrimitiveTensorINS_4SWR4EE16expected_optionsEv
FNDA:6,_ZN5neml219OnesPrimitiveTensorINS_4WSR4EE16expected_optionsEv
FNDA:6,_ZN5neml219OnesPrimitiveTensorINS_4WWR4EE16expected_optionsEv
FNDA:6,_ZN5neml219OnesPrimitiveTensorINS_5SFFR4EE16expected_optionsEv
FNDA:6,_ZN5neml219OnesPrimitiveTensorINS_5SSFR5EE16expected_optionsEv
FNDA:6,_ZN5neml219OnesPrimitiveTensorINS_6SSSSR8EE16expected_optionsEv
FNDA:6,_ZN5neml219OnesPrimitiveTensorINS_6ScalarEE16expected_optionsEv
FNDA:0,_ZN5neml219OnesPrimitiveTensorINS_10QuaternionEEC2ERKNS_9OptionSetE
FNDA:0,_ZN5neml219OnesPrimitiveTensorINS_11MillerIndexEEC2ERKNS_9OptionSetE
FNDA:1,_ZN5neml219OnesPrimitiveTensorINS_2R2EEC2ERKNS_9OptionSetE
FNDA:1,_ZN5neml219OnesPrimitiveTensorINS_2R3EEC2ERKNS_9OptionSetE
FNDA:1,_ZN5neml219OnesPrimitiveTensorINS_2R4EEC2ERKNS_9OptionSetE
FNDA:1,_ZN5neml219OnesPrimitiveTensorINS_2R5EEC2ERKNS_9OptionSetE
FNDA:0,_ZN5neml219OnesPrimitiveTensorINS_2R8EEC2ERKNS_9OptionSetE
FNDA:1,_ZN5neml219OnesPrimitiveTensorINS_3RotEEC2ERKNS_9OptionSetE
FNDA:1,_ZN5neml219OnesPrimitiveTensorINS_3SR2EEC2ERKNS_9OptionSetE
FNDA:1,_ZN5neml219OnesPrimitiveTensorINS_3VecEEC2ERKNS_9OptionSetE
FNDA:0,_ZN5neml219OnesPrimitiveTensorINS_3WR2EEC2ERKNS_9OptionSetE
FNDA:1,_ZN5neml219OnesPrimitiveTensorINS_4SFR3EEC2ERKNS_9OptionSetE
FNDA:1,_ZN5neml219OnesPrimitiveTensorINS_4SSR4EEC2ERKNS_9OptionSetE
FNDA:0,_ZN5neml219OnesPrimitiveTensorINS_4SWR4EEC2ERKNS_9OptionSetE
FNDA:0,_ZN5neml219OnesPrimitiveTensorINS_4WSR4EEC2ERKNS_9OptionSetE
FNDA:0,_ZN5neml219OnesPrimitiveTensorINS_4WWR4EEC2ERKNS_9OptionSetE
FNDA:0,_ZN5neml219OnesPrimitiveTensorINS_5SFFR4EEC2ERKNS_9OptionSetE
FNDA:1,_ZN5neml219OnesPrimitiveTensorINS_5SSFR5EEC2ERKNS_9OptionSetE
FNDA:0,_ZN5neml219OnesPrimitiveTensorINS_6SSSSR8EEC2ERKNS_9OptionSetE
FNDA:1,_ZN5neml219OnesPrimitiveTensorINS_6ScalarEEC2ERKNS_9OptionSetE
FNF:40
FNH:31
DA:38,120
DA:42,120
DA:44,120
DA:45,120
DA:47,360
DA:48,120
DA:50,240
DA:51,120
DA:54,11
DA:55,33
DA:56,22
DA:58,11
LF:12
LH:12
end_of_record
TN:
SF:/home/runner/work/neml2/neml2/src/neml2/tensors/user_tensors/OnesTensor.cxx
FN:32,44,_ZN5neml210OnesTensor16expected_optionsEv
FN:46,52,_ZN5neml210OnesTensorC2ERKNS_9OptionSetE
FNDA:6,_ZN5neml210OnesTensor16expected_optionsEv
FNDA:1,_ZN5neml210OnesTensorC2ERKNS_9OptionSetE
FNF:2
FNH:2
DA:32,6
DA:34,6
DA:35,6
DA:37,18
DA:38,6
DA:40,18
DA:41,6
DA:43,6
DA:44,0
DA:46,1
DA:47,2
DA:49,1
DA:50,4
DA:52,1
LF:14
LH:13
end_of_record
TN:
SF:/home/runner/work/neml2/neml2/src/neml2/tensors/user_tensors/Orientation.cxx
FN:107,113,_ZNK5neml211Orientation16expand_as_neededERKNS_3RotEj
FN:35,70,_ZN5neml211Orientation16expected_optionsEv
FN:72,76,_ZN5neml211OrientationC2ERKNS_9OptionSetE
FN:79,104,_ZNK5neml211Orientation4fillERKNS_9OptionSetE
FNDA:6,_ZNK5neml211Orientation16expand_as_neededERKNS_3RotEj
FNDA:6,_ZN5neml211Orientation16expected_optionsEv
FNDA:6,_ZN5neml211OrientationC2ERKNS_9OptionSetE
FNDA:6,_ZNK5neml211Orientation4fillERKNS_9OptionSetE
FNF:4
FNH:4
DA:35,6
DA:37,6
DA:39,6
DA:43,6
DA:45,12
DA:46,18
DA:47,6
DA:49,12
DA:50,12
DA:52,12
DA:53,6
DA:55,18
DA:56,12
DA:58,12
DA:59,18
DA:61,6
DA:63,12
DA:64,12
DA:66,12
DA:67,6
DA:69,6
DA:70,0
DA:72,6
DA:74,6
DA:76,6
DA:79,6
DA:81,6
DA:83,6
DA:84,6
DA:86,12
DA:87,36
DA:88,24
DA:91,24
DA:93,0
DA:95,0
DA:98,0
DA:100,12
DA:101,0
DA:103,6
DA:104,6
DA:107,6
DA:109,6
DA:110,0
DA:112,6
DA:113,0
LF:45
LH:38
end_of_record
TN:
SF:/home/runner/work/neml2/neml2/src/neml2/tensors/user_tensors/UserPrimitiveTensor.cxx
FN:39,57,_ZN5neml219UserPrimitiveTensorINS_10QuaternionEE16expected_optionsEv
FN:39,57,_ZN5neml219UserPrimitiveTensorINS_11MillerIndexEE16expected_optionsEv
FN:39,57,_ZN5neml219UserPrimitiveTensorINS_2R2EE16expected_optionsEv
FN:39,57,_ZN5neml219UserPrimitiveTensorINS_2R3EE16expected_optionsEv
FN:39,57,_ZN5neml219UserPrimitiveTensorINS_2R4EE16expected_optionsEv
FN:39,57,_ZN5neml219UserPrimitiveTensorINS_2R5EE16expected_optionsEv
FN:39,57,_ZN5neml219UserPrimitiveTensorINS_2R8EE16expected_optionsEv
FN:39,57,_ZN5neml219UserPrimitiveTensorINS_3RotEE16expected_optionsEv
FN:39,57,_ZN5neml219UserPrimitiveTensorINS_3SR2EE16expected_optionsEv
FN:39,57,_ZN5neml219UserPrimitiveTensorINS_3VecEE16expected_optionsEv
FN:39,57,_ZN5neml219UserPrimitiveTensorINS_3WR2EE16expected_optionsEv
FN:39,57,_ZN5neml219UserPrimitiveTensorINS_4SFR3EE16expected_optionsEv
FN:39,57,_ZN5neml219UserPrimitiveTensorINS_4SSR4EE16expected_optionsEv
FN:39,57,_ZN5neml219UserPrimitiveTensorINS_4SWR4EE16expected_optionsEv
FN:39,57,_ZN5neml219UserPrimitiveTensorINS_4WSR4EE16expected_optionsEv
FN:39,57,_ZN5neml219UserPrimitiveTensorINS_4WWR4EE16expected_optionsEv
FN:39,57,_ZN5neml219UserPrimitiveTensorINS_5SFFR4EE16expected_optionsEv
FN:39,57,_ZN5neml219UserPrimitiveTensorINS_5SSFR5EE16expected_optionsEv
FN:39,57,_ZN5neml219UserPrimitiveTensorINS_6SSSSR8EE16expected_optionsEv
FN:39,57,_ZN5neml219UserPrimitiveTensorINS_6ScalarEE16expected_optionsEv
FN:60,78,_ZN5neml219UserPrimitiveTensorINS_10QuaternionEEC2ERKNS_9OptionSetE
FN:60,78,_ZN5neml219UserPrimitiveTensorINS_11MillerIndexEEC2ERKNS_9OptionSetE
FN:60,78,_ZN5neml219UserPrimitiveTensorINS_2R2EEC2ERKNS_9OptionSetE
FN:60,78,_ZN5neml219UserPrimitiveTensorINS_2R3EEC2ERKNS_9OptionSetE
FN:60,78,_ZN5neml219UserPrimitiveTensorINS_2R4EEC2ERKNS_9OptionSetE
FN:60,78,_ZN5neml219UserPrimitiveTensorINS_2R5EEC2ERKNS_9OptionSetE
FN:60,78,_ZN5neml219UserPrimitiveTensorINS_2R8EEC2ERKNS_9OptionSetE
FN:60,78,_ZN5neml219UserPrimitiveTensorINS_3RotEEC2ERKNS_9OptionSetE
FN:60,78,_ZN5neml219UserPrimitiveTensorINS_3SR2EEC2ERKNS_9OptionSetE
FN:60,78,_ZN5neml219UserPrimitiveTensorINS_3VecEEC2ERKNS_9OptionSetE
FN:60,78,_ZN5neml219UserPrimitiveTensorINS_3WR2EEC2ERKNS_9OptionSetE
FN:60,78,_ZN5neml219UserPrimitiveTensorINS_4SFR3EEC2ERKNS_9OptionSetE
FN:60,78,_ZN5neml219UserPrimitiveTensorINS_4SSR4EEC2ERKNS_9OptionSetE
FN:60,78,_ZN5neml219UserPrimitiveTensorINS_4SWR4EEC2ERKNS_9OptionSetE
FN:60,78,_ZN5neml219UserPrimitiveTensorINS_4WSR4EEC2ERKNS_9OptionSetE
FN:60,78,_ZN5neml219UserPrimitiveTensorINS_4WWR4EEC2ERKNS_9OptionSetE
FN:60,78,_ZN5neml219UserPrimitiveTensorINS_5SFFR4EEC2ERKNS_9OptionSetE
FN:60,78,_ZN5neml219UserPrimitiveTensorINS_5SSFR5EEC2ERKNS_9OptionSetE
FN:60,78,_ZN5neml219UserPrimitiveTensorINS_6SSSSR8EEC2ERKNS_9OptionSetE
FN:60,78,_ZN5neml219UserPrimitiveTensorINS_6ScalarEEC2ERKNS_9OptionSetE
FNDA:6,_ZN5neml219UserPrimitiveTensorINS_10QuaternionEE16expected_optionsEv
FNDA:6,_ZN5neml219UserPrimitiveTensorINS_11MillerIndexEE16expected_optionsEv
FNDA:6,_ZN5neml219UserPrimitiveTensorINS_2R2EE16expected_optionsEv
FNDA:6,_ZN5neml219UserPrimitiveTensorINS_2R3EE16expected_optionsEv
FNDA:6,_ZN5neml219UserPrimitiveTensorINS_2R4EE16expected_optionsEv
FNDA:6,_ZN5neml219UserPrimitiveTensorINS_2R5EE16expected_optionsEv
FNDA:6,_ZN5neml219UserPrimitiveTensorINS_2R8EE16expected_optionsEv
FNDA:6,_ZN5neml219UserPrimitiveTensorINS_3RotEE16expected_optionsEv
FNDA:6,_ZN5neml219UserPrimitiveTensorINS_3SR2EE16expected_optionsEv
FNDA:6,_ZN5neml219UserPrimitiveTensorINS_3VecEE16expected_optionsEv
FNDA:6,_ZN5neml219UserPrimitiveTensorINS_3WR2EE16expected_optionsEv
FNDA:6,_ZN5neml219UserPrimitiveTensorINS_4SFR3EE16expected_optionsEv
FNDA:6,_ZN5neml219UserPrimitiveTensorINS_4SSR4EE16expected_optionsEv
FNDA:6,_ZN5neml219UserPrimitiveTensorINS_4SWR4EE16expected_optionsEv
FNDA:6,_ZN5neml219UserPrimitiveTensorINS_4WSR4EE16expected_optionsEv
FNDA:6,_ZN5neml219UserPrimitiveTensorINS_4WWR4EE16expected_optionsEv
FNDA:6,_ZN5neml219UserPrimitiveTensorINS_5SFFR4EE16expected_optionsEv
FNDA:6,_ZN5neml219UserPrimitiveTensorINS_5SSFR5EE16expected_optionsEv
FNDA:6,_ZN5neml219UserPrimitiveTensorINS_6SSSSR8EE16expected_optionsEv
FNDA:6,_ZN5neml219UserPrimitiveTensorINS_6ScalarEE16expected_optionsEv
FNDA:0,_ZN5neml219UserPrimitiveTensorINS_10QuaternionEEC2ERKNS_9OptionSetE
FNDA:0,_ZN5neml219UserPrimitiveTensorINS_11MillerIndexEEC2ERKNS_9OptionSetE
FNDA:1,_ZN5neml219UserPrimitiveTensorINS_2R2EEC2ERKNS_9OptionSetE
FNDA:1,_ZN5neml219UserPrimitiveTensorINS_2R3EEC2ERKNS_9OptionSetE
FNDA:1,_ZN5neml219UserPrimitiveTensorINS_2R4EEC2ERKNS_9OptionSetE
FNDA:1,_ZN5neml219UserPrimitiveTensorINS_2R5EEC2ERKNS_9OptionSetE
FNDA:0,_ZN5neml219UserPrimitiveTensorINS_2R8EEC2ERKNS_9OptionSetE
FNDA:1,_ZN5neml219UserPrimitiveTensorINS_3RotEEC2ERKNS_9OptionSetE
FNDA:3,_ZN5neml219UserPrimitiveTensorINS_3SR2EEC2ERKNS_9OptionSetE
FNDA:23,_ZN5neml219UserPrimitiveTensorINS_3VecEEC2ERKNS_9OptionSetE
FNDA:0,_ZN5neml219UserPrimitiveTensorINS_3WR2EEC2ERKNS_9OptionSetE
FNDA:1,_ZN5neml219UserPrimitiveTensorINS_4SFR3EEC2ERKNS_9OptionSetE
FNDA:9,_ZN5neml219UserPrimitiveTensorINS_4SSR4EEC2ERKNS_9OptionSetE
FNDA:0,_ZN5neml219UserPrimitiveTensorINS_4SWR4EEC2ERKNS_9OptionSetE
FNDA:0,_ZN5neml219UserPrimitiveTensorINS_4WSR4EEC2ERKNS_9OptionSetE
FNDA:0,_ZN5neml219UserPrimitiveTensorINS_4WWR4EEC2ERKNS_9OptionSetE
FNDA:0,_ZN5neml219UserPrimitiveTensorINS_5SFFR4EEC2ERKNS_9OptionSetE
FNDA:1,_ZN5neml219UserPrimitiveTensorINS_5SSFR5EEC2ERKNS_9OptionSetE
FNDA:0,_ZN5neml219UserPrimitiveTensorINS_6SSSSR8EEC2ERKNS_9OptionSetE
FNDA:55,_ZN5neml219UserPrimitiveTensorINS_6ScalarEEC2ERKNS_9OptionSetE
FNF:40
FNH:31
DA:39,120
DA:43,120
DA:45,120
DA:46,120
DA:50,240
DA:51,120
DA:53,360
DA:54,120
DA:56,240
DA:57,120
DA:60,97
DA:61,291
DA:62,194
DA:64,97
DA:65,97
DA:66,97
DA:67,153
DA:68,46
DA:69,138
DA:71,0
DA:73,0
DA:75,0
DA:77,0
DA:78,194
LF:24
LH:20
end_of_record
TN:
SF:/home/runner/work/neml2/neml2/src/neml2/tensors/user_tensors/UserTensor.cxx
FN:32,48,_ZN5neml210UserTensor16expected_optionsEv
FN:50,70,_ZN5neml210UserTensorC2ERKNS_9OptionSetE
FNDA:6,_ZN5neml210UserTensor16expected_optionsEv
FNDA:10,_ZN5neml210UserTensorC2ERKNS_9OptionSetE
FNF:2
FNH:2
DA:32,6
DA:34,6
DA:35,6
DA:36,6
DA:38,12
DA:39,6
DA:41,18
DA:42,6
DA:44,18
DA:45,6
DA:47,6
DA:48,0
DA:50,10
DA:51,20
DA:53,10
DA:54,40
DA:56,10
DA:57,10
DA:58,10
DA:59,21
DA:60,3
DA:61,6
DA:63,1
DA:65,1
DA:67,2
DA:69,2
DA:70,22
LF:27
LH:26
end_of_record
TN:
SF:/home/runner/work/neml2/neml2/src/neml2/tensors/user_tensors/UserTensorBase.cxx
FN:30,35,_ZN5neml214UserTensorBase16expected_optionsEv
FN:37,40,_ZN5neml214UserTensorBaseC2ERKNS_9OptionSetE
FNDA:930,_ZN5neml214UserTensorBase16expected_optionsEv
FNDA:770,_ZN5neml214UserTensorBaseC2ERKNS_9OptionSetE
FNF:2
FNH:2
DA:30,930
DA:32,930
DA:33,930
DA:34,930
DA:35,0
DA:37,770
DA:38,770
DA:40,770
LF:8
LH:7
end_of_record
TN:
SF:/home/runner/work/neml2/neml2/src/neml2/tensors/user_tensors/ZerosPrimitiveTensor.cxx
FN:39,52,_ZN5neml220ZerosPrimitiveTensorINS_10QuaternionEE16expected_optionsEv
FN:39,52,_ZN5neml220ZerosPrimitiveTensorINS_11MillerIndexEE16expected_optionsEv
FN:39,52,_ZN5neml220ZerosPrimitiveTensorINS_2R2EE16expected_optionsEv
FN:39,52,_ZN5neml220ZerosPrimitiveTensorINS_2R3EE16expected_optionsEv
FN:39,52,_ZN5neml220ZerosPrimitiveTensorINS_2R4EE16expected_optionsEv
FN:39,52,_ZN5neml220ZerosPrimitiveTensorINS_2R5EE16expected_optionsEv
FN:39,52,_ZN5neml220ZerosPrimitiveTensorINS_2R8EE16expected_optionsEv
FN:39,52,_ZN5neml220ZerosPrimitiveTensorINS_3RotEE16expected_optionsEv
FN:39,52,_ZN5neml220ZerosPrimitiveTensorINS_3SR2EE16expected_optionsEv
FN:39,52,_ZN5neml220ZerosPrimitiveTensorINS_3VecEE16expected_optionsEv
FN:39,52,_ZN5neml220ZerosPrimitiveTensorINS_3WR2EE16expected_optionsEv
FN:39,52,_ZN5neml220ZerosPrimitiveTensorINS_4SFR3EE16expected_optionsEv
FN:39,52,_ZN5neml220ZerosPrimitiveTensorINS_4SSR4EE16expected_optionsEv
FN:39,52,_ZN5neml220ZerosPrimitiveTensorINS_4SWR4EE16expected_optionsEv
FN:39,52,_ZN5neml220ZerosPrimitiveTensorINS_4WSR4EE16expected_optionsEv
FN:39,52,_ZN5neml220ZerosPrimitiveTensorINS_4WWR4EE16expected_optionsEv
FN:39,52,_ZN5neml220ZerosPrimitiveTensorINS_5SFFR4EE16expected_optionsEv
FN:39,52,_ZN5neml220ZerosPrimitiveTensorINS_5SSFR5EE16expected_optionsEv
FN:39,52,_ZN5neml220ZerosPrimitiveTensorINS_6SSSSR8EE16expected_optionsEv
FN:39,52,_ZN5neml220ZerosPrimitiveTensorINS_6ScalarEE16expected_optionsEv
FN:55,59,_ZN5neml220ZerosPrimitiveTensorINS_10QuaternionEEC2ERKNS_9OptionSetE
FN:55,59,_ZN5neml220ZerosPrimitiveTensorINS_11MillerIndexEEC2ERKNS_9OptionSetE
FN:55,59,_ZN5neml220ZerosPrimitiveTensorINS_2R2EEC2ERKNS_9OptionSetE
FN:55,59,_ZN5neml220ZerosPrimitiveTensorINS_2R3EEC2ERKNS_9OptionSetE
FN:55,59,_ZN5neml220ZerosPrimitiveTensorINS_2R4EEC2ERKNS_9OptionSetE
FN:55,59,_ZN5neml220ZerosPrimitiveTensorINS_2R5EEC2ERKNS_9OptionSetE
FN:55,59,_ZN5neml220ZerosPrimitiveTensorINS_2R8EEC2ERKNS_9OptionSetE
FN:55,59,_ZN5neml220ZerosPrimitiveTensorINS_3RotEEC2ERKNS_9OptionSetE
FN:55,59,_ZN5neml220ZerosPrimitiveTensorINS_3SR2EEC2ERKNS_9OptionSetE
FN:55,59,_ZN5neml220ZerosPrimitiveTensorINS_3VecEEC2ERKNS_9OptionSetE
FN:55,59,_ZN5neml220ZerosPrimitiveTensorINS_3WR2EEC2ERKNS_9OptionSetE
FN:55,59,_ZN5neml220ZerosPrimitiveTensorINS_4SFR3EEC2ERKNS_9OptionSetE
FN:55,59,_ZN5neml220ZerosPrimitiveTensorINS_4SSR4EEC2ERKNS_9OptionSetE
FN:55,59,_ZN5neml220ZerosPrimitiveTensorINS_4SWR4EEC2ERKNS_9OptionSetE
FN:55,59,_ZN5neml220ZerosPrimitiveTensorINS_4WSR4EEC2ERKNS_9OptionSetE
FN:55,59,_ZN5neml220ZerosPrimitiveTensorINS_4WWR4EEC2ERKNS_9OptionSetE
FN:55,59,_ZN5neml220ZerosPrimitiveTensorINS_5SFFR4EEC2ERKNS_9OptionSetE
FN:55,59,_ZN5neml220ZerosPrimitiveTensorINS_5SSFR5EEC2ERKNS_9OptionSetE
FN:55,59,_ZN5neml220ZerosPrimitiveTensorINS_6SSSSR8EEC2ERKNS_9OptionSetE
FN:55,59,_ZN5neml220ZerosPrimitiveTensorINS_6ScalarEEC2ERKNS_9OptionSetE
FNDA:6,_ZN5neml220ZerosPrimitiveTensorINS_10QuaternionEE16expected_optionsEv
FNDA:6,_ZN5neml220ZerosPrimitiveTensorINS_11MillerIndexEE16expected_optionsEv
FNDA:6,_ZN5neml220ZerosPrimitiveTensorINS_2R2EE16expected_optionsEv
FNDA:6,_ZN5neml220ZerosPrimitiveTensorINS_2R3EE16expected_optionsEv
FNDA:6,_ZN5neml220ZerosPrimitiveTensorINS_2R4EE16expected_optionsEv
FNDA:6,_ZN5neml220ZerosPrimitiveTensorINS_2R5EE16expected_optionsEv
FNDA:6,_ZN5neml220ZerosPrimitiveTensorINS_2R8EE16expected_optionsEv
FNDA:6,_ZN5neml220ZerosPrimitiveTensorINS_3RotEE16expected_optionsEv
FNDA:6,_ZN5neml220ZerosPrimitiveTensorINS_3SR2EE16expected_optionsEv
FNDA:6,_ZN5neml220ZerosPrimitiveTensorINS_3VecEE16expected_optionsEv
FNDA:6,_ZN5neml220ZerosPrimitiveTensorINS_3WR2EE16expected_optionsEv
FNDA:6,_ZN5neml220ZerosPrimitiveTensorINS_4SFR3EE16expected_optionsEv
FNDA:6,_ZN5neml220ZerosPrimitiveTensorINS_4SSR4EE16expected_optionsEv
FNDA:6,_ZN5neml220ZerosPrimitiveTensorINS_4SWR4EE16expected_optionsEv
FNDA:6,_ZN5neml220ZerosPrimitiveTensorINS_4WSR4EE16expected_optionsEv
FNDA:6,_ZN5neml220ZerosPrimitiveTensorINS_4WWR4EE16expected_optionsEv
FNDA:6,_ZN5neml220ZerosPrimitiveTensorINS_5SFFR4EE16expected_optionsEv
FNDA:6,_ZN5neml220ZerosPrimitiveTensorINS_5SSFR5EE16expected_optionsEv
FNDA:6,_ZN5neml220ZerosPrimitiveTensorINS_6SSSSR8EE16expected_optionsEv
FNDA:6,_ZN5neml220ZerosPrimitiveTensorINS_6ScalarEE16expected_optionsEv
FNDA:0,_ZN5neml220ZerosPrimitiveTensorINS_10QuaternionEEC2ERKNS_9OptionSetE
FNDA:0,_ZN5neml220ZerosPrimitiveTensorINS_11MillerIndexEEC2ERKNS_9OptionSetE
FNDA:1,_ZN5neml220ZerosPrimitiveTensorINS_2R2EEC2ERKNS_9OptionSetE
FNDA:1,_ZN5neml220ZerosPrimitiveTensorINS_2R3EEC2ERKNS_9OptionSetE
FNDA:1,_ZN5neml220ZerosPrimitiveTensorINS_2R4EEC2ERKNS_9OptionSetE
FNDA:1,_ZN5neml220ZerosPrimitiveTensorINS_2R5EEC2ERKNS_9OptionSetE
FNDA:0,_ZN5neml220ZerosPrimitiveTensorINS_2R8EEC2ERKNS_9OptionSetE
FNDA:1,_ZN5neml220ZerosPrimitiveTensorINS_3RotEEC2ERKNS_9OptionSetE
FNDA:1,_ZN5neml220ZerosPrimitiveTensorINS_3SR2EEC2ERKNS_9OptionSetE
FNDA:1,_ZN5neml220ZerosPrimitiveTensorINS_3VecEEC2ERKNS_9OptionSetE
FNDA:0,_ZN5neml220ZerosPrimitiveTensorINS_3WR2EEC2ERKNS_9OptionSetE
FNDA:1,_ZN5neml220ZerosPrimitiveTensorINS_4SFR3EEC2ERKNS_9OptionSetE
FNDA:1,_ZN5neml220ZerosPrimitiveTensorINS_4SSR4EEC2ERKNS_9OptionSetE
FNDA:0,_ZN5neml220ZerosPrimitiveTensorINS_4SWR4EEC2ERKNS_9OptionSetE
FNDA:0,_ZN5neml220ZerosPrimitiveTensorINS_4WSR4EEC2ERKNS_9OptionSetE
FNDA:0,_ZN5neml220ZerosPrimitiveTensorINS_4WWR4EEC2ERKNS_9OptionSetE
FNDA:0,_ZN5neml220ZerosPrimitiveTensorINS_5SFFR4EEC2ERKNS_9OptionSetE
FNDA:1,_ZN5neml220ZerosPrimitiveTensorINS_5SSFR5EEC2ERKNS_9OptionSetE
FNDA:0,_ZN5neml220ZerosPrimitiveTensorINS_6SSSSR8EEC2ERKNS_9OptionSetE
FNDA:1,_ZN5neml220ZerosPrimitiveTensorINS_6ScalarEEC2ERKNS_9OptionSetE
FNF:40
FNH:31
DA:39,120
DA:43,120
DA:45,120
DA:46,120
DA:48,360
DA:49,120
DA:51,240
DA:52,120
DA:55,11
DA:56,33
DA:57,22
DA:59,11
LF:12
LH:12
end_of_record
TN:
SF:/home/runner/work/neml2/neml2/src/neml2/tensors/user_tensors/ZerosTensor.cxx
FN:32,44,_ZN5neml211ZerosTensor16expected_optionsEv
FN:46,52,_ZN5neml211ZerosTensorC2ERKNS_9OptionSetE
FNDA:6,_ZN5neml211ZerosTensor16expected_optionsEv
FNDA:1,_ZN5neml211ZerosTensorC2ERKNS_9OptionSetE
FNF:2
FNH:2
DA:32,6
DA:34,6
DA:35,6
DA:37,18
DA:38,6
DA:40,18
DA:41,6
DA:43,6
DA:44,0
DA:46,1
DA:47,2
DA:49,1
DA:50,4
DA:52,1
LF:14
LH:13
end_of_record
