TN:
SF:/home/runner/work/neml2/neml2/src/neml2/base/CrossRef.cxx
FN:32,_ZNK5neml28CrossRefIN2at6TensorEEcvS2_Ev
FN:47,_ZNK5neml28CrossRefINS_6TensorEEcvS1_Ev
FN:76,_ZNK5neml28CrossRefINS_3VecEEcvS1_Ev
FN:76,_ZNK5neml28CrossRefINS_6SSSSR8EEcvS1_Ev
FN:76,_ZNK5neml28CrossRefINS_4SSR4EEcvS1_Ev
FN:76,_ZNK5neml28CrossRefINS_4WWR4EEcvS1_Ev
FN:76,_ZNK5neml28CrossRefINS_6ScalarEEcvS1_Ev
FN:76,_ZNK5neml28CrossRefINS_11MillerIndexEEcvS1_Ev
FN:76,_ZNK5neml28CrossRefINS_4SFR3EEcvS1_Ev
FN:76,_ZNK5neml28CrossRefINS_5SSFR5EEcvS1_Ev
FN:76,_ZNK5neml28CrossRefINS_5SFFR4EEcvS1_Ev
FN:76,_ZNK5neml28CrossRefINS_2R2EEcvS1_Ev
FN:76,_ZNK5neml28CrossRefINS_3SR2EEcvS1_Ev
FN:76,_ZNK5neml28CrossRefINS_3WR2EEcvS1_Ev
FN:76,_ZNK5neml28CrossRefINS_2R4EEcvS1_Ev
FN:76,_ZNK5neml28CrossRefINS_2R8EEcvS1_Ev
FN:76,_ZNK5neml28CrossRefINS_10QuaternionEEcvS1_Ev
FN:76,_ZNK5neml28CrossRefINS_2R3EEcvS1_Ev
FN:76,_ZNK5neml28CrossRefINS_2R5EEcvS1_Ev
FN:76,_ZNK5neml28CrossRefINS_4SWR4EEcvS1_Ev
FN:76,_ZNK5neml28CrossRefINS_4WSR4EEcvS1_Ev
FN:76,_ZNK5neml28CrossRefINS_3RotEEcvS1_Ev
FNDA:20,_ZNK5neml28CrossRefINS_3RotEEcvS1_Ev
FNDA:24,_ZNK5neml28CrossRefINS_6TensorEEcvS1_Ev
FNDA:0,_ZNK5neml28CrossRefINS_4WSR4EEcvS1_Ev
FNDA:0,_ZNK5neml28CrossRefINS_4SWR4EEcvS1_Ev
FNDA:4,_ZNK5neml28CrossRefINS_2R3EEcvS1_Ev
FNDA:0,_ZNK5neml28CrossRefINS_10QuaternionEEcvS1_Ev
FNDA:4,_ZNK5neml28CrossRefINS_2R5EEcvS1_Ev
FNDA:4,_ZNK5neml28CrossRefINS_2R4EEcvS1_Ev
FNDA:18,_ZNK5neml28CrossRefIN2at6TensorEEcvS2_Ev
FNDA:9,_ZNK5neml28CrossRefINS_3WR2EEcvS1_Ev
FNDA:0,_ZNK5neml28CrossRefINS_2R8EEcvS1_Ev
FNDA:0,_ZNK5neml28CrossRefINS_5SFFR4EEcvS1_Ev
FNDA:26,_ZNK5neml28CrossRefINS_2R2EEcvS1_Ev
FNDA:138,_ZNK5neml28CrossRefINS_3SR2EEcvS1_Ev
FNDA:160,_ZNK5neml28CrossRefINS_11MillerIndexEEcvS1_Ev
FNDA:1452,_ZNK5neml28CrossRefINS_6ScalarEEcvS1_Ev
FNDA:4,_ZNK5neml28CrossRefINS_5SSFR5EEcvS1_Ev
FNDA:4,_ZNK5neml28CrossRefINS_4SFR3EEcvS1_Ev
FNDA:20,_ZNK5neml28CrossRefINS_4SSR4EEcvS1_Ev
FNDA:0,_ZNK5neml28CrossRefINS_6SSSSR8EEcvS1_Ev
FNDA:26,_ZNK5neml28CrossRefINS_3VecEEcvS1_Ev
FNDA:0,_ZNK5neml28CrossRefINS_4WWR4EEcvS1_Ev
FNF:22
FNH:15
DA:32,18
DA:37,18
DA:39,17
DA:42,34
DA:43,17
DA:47,24
DA:52,24
DA:54,12
DA:57,24
DA:58,12
DA:76,2817
LF:11
LH:11
end_of_record
TN:
SF:/home/runner/work/neml2/neml2/src/neml2/base/DiagnosticsInterface.cxx
FN:31,_ZN5neml28diagnoseERKNS_20DiagnosticsInterfaceE
FN:45,_ZN5neml220DiagnosticsInterfaceC2EPNS_11NEML2ObjectE
FN:51,_ZNK5neml220DiagnosticsInterface23diagnostic_assert_stateERSt6vectorINS_9DiagnosisESaIS2_EERKNS_12VariableBaseE
FN:59,_ZNK5neml220DiagnosticsInterface27diagnostic_assert_old_stateERSt6vectorINS_9DiagnosisESaIS2_EERKNS_12VariableBaseE
FN:67,_ZNK5neml220DiagnosticsInterface23diagnostic_assert_forceERSt6vectorINS_9DiagnosisESaIS2_EERKNS_12VariableBaseE
FN:75,_ZNK5neml220DiagnosticsInterface27diagnostic_assert_old_forceERSt6vectorINS_9DiagnosisESaIS2_EERKNS_12VariableBaseE
FN:83,_ZNK5neml220DiagnosticsInterface26diagnostic_assert_residualERSt6vectorINS_9DiagnosisESaIS2_EERKNS_12VariableBaseE
FN:91,_ZNK5neml220DiagnosticsInterface31diagnostic_check_input_variableERSt6vectorINS_9DiagnosisESaIS2_EERKNS_12VariableBaseE
FN:104,_ZNK5neml220DiagnosticsInterface32diagnostic_check_output_variableERSt6vectorINS_9DiagnosisESaIS2_EERKNS_12VariableBaseE
FNDA:701,_ZN5neml220DiagnosticsInterfaceC2EPNS_11NEML2ObjectE
FNDA:28,_ZNK5neml220DiagnosticsInterface23diagnostic_assert_stateERSt6vectorINS_9DiagnosisESaIS2_EERKNS_12VariableBaseE
FNDA:0,_ZNK5neml220DiagnosticsInterface27diagnostic_assert_old_stateERSt6vectorINS_9DiagnosisESaIS2_EERKNS_12VariableBaseE
FNDA:114,_ZN5neml28diagnoseERKNS_20DiagnosticsInterfaceE
FNDA:0,_ZNK5neml220DiagnosticsInterface27diagnostic_assert_old_forceERSt6vectorINS_9DiagnosisESaIS2_EERKNS_12VariableBaseE
FNDA:300,_ZNK5neml220DiagnosticsInterface31diagnostic_check_input_variableERSt6vectorINS_9DiagnosisESaIS2_EERKNS_12VariableBaseE
FNDA:118,_ZNK5neml220DiagnosticsInterface32diagnostic_check_output_variableERSt6vectorINS_9DiagnosisESaIS2_EERKNS_12VariableBaseE
FNDA:20,_ZNK5neml220DiagnosticsInterface23diagnostic_assert_forceERSt6vectorINS_9DiagnosisESaIS2_EERKNS_12VariableBaseE
FNDA:0,_ZNK5neml220DiagnosticsInterface26diagnostic_assert_residualERSt6vectorINS_9DiagnosisESaIS2_EERKNS_12VariableBaseE
FNF:9
FNH:6
DA:31,114
DA:33,114
DA:34,114
DA:36,114
DA:38,4
DA:39,12
DA:40,8
DA:41,4
DA:42,4
DA:43,114
DA:45,701
DA:46,701
DA:48,701
DA:51,28
DA:54,28
DA:55,28
DA:56,28
DA:59,0
DA:62,0
DA:63,0
DA:64,0
DA:67,20
DA:70,20
DA:71,20
DA:72,20
DA:75,0
DA:78,0
DA:79,0
DA:80,0
DA:83,0
DA:86,0
DA:87,0
DA:88,0
DA:91,300
DA:94,300
DA:95,471
DA:96,471
DA:98,300
DA:101,300
DA:104,118
DA:107,118
DA:109,118
DA:111,118
DA:113,118
LF:44
LH:32
end_of_record
TN:
SF:/home/runner/work/neml2/neml2/src/neml2/base/EnumSelection.cxx
FN:31,_ZN5neml2lsERSoRKNS_13EnumSelectionE
FN:38,_ZN5neml2rsERSt18basic_stringstreamIcSt11char_traitsIcESaIcEERNS_13EnumSelectionE
FN:44,_ZN5neml213EnumSelectionC2ERKS0_
FN:51,_ZN5neml213EnumSelectionC2ERKSt6vectorISsSaISsEERKSs
FN:58,_ZN5neml213EnumSelectionC2ERKSt6vectorISsSaISsEERKS1_IiSaIiEERKSs
FN:67,_ZN5neml213EnumSelectionaSERKS0_
FN:76,_ZNK5neml213EnumSelectioneqERKS0_
FN:83,_ZNK5neml213EnumSelectionneERKS0_
FN:89,_ZN5neml213EnumSelection6selectERKSs
FNDA:1199,_ZN5neml213EnumSelection6selectERKSs
FNDA:7,_ZN5neml2lsERSoRKNS_13EnumSelectionE
FNDA:1156,_ZN5neml213EnumSelectionC2ERKSt6vectorISsSaISsEERKS1_IiSaIiEERKSs
FNDA:4,_ZN5neml213EnumSelectionC2ERKSt6vectorISsSaISsEERKSs
FNDA:1,_ZN5neml213EnumSelectionC2ERKS0_
FNDA:2495,_ZN5neml213EnumSelectionaSERKS0_
FNDA:42,_ZN5neml2rsERSt18basic_stringstreamIcSt11char_traitsIcESaIcEERNS_13EnumSelectionE
FNDA:7,_ZNK5neml213EnumSelectioneqERKS0_
FNDA:5,_ZNK5neml213EnumSelectionneERKS0_
FNF:9
FNH:9
DA:31,7
DA:33,7
DA:34,7
DA:38,42
DA:40,42
DA:41,41
DA:44,1
DA:46,1
DA:47,1
DA:49,1
DA:51,4
DA:52,4
DA:53,4
DA:55,3
DA:56,4
DA:58,1156
DA:60,1156
DA:61,1156
DA:63,1154
DA:64,1155
DA:67,2495
DA:69,2495
DA:70,2495
DA:71,2495
DA:72,2495
DA:76,7
DA:78,9
DA:79,9
DA:83,5
DA:85,5
DA:89,1199
DA:91,1199
DA:93,2398
DA:94,1196
DA:95,1196
DA:96,1196
LF:36
LH:36
end_of_record
TN:
SF:/home/runner/work/neml2/neml2/src/neml2/base/EnumSelectionBase.cxx
FN:30,_ZN5neml217EnumSelectionBaseC2ERKS0_
FN:35,_ZN5neml217EnumSelectionBaseC2ERKSt6vectorISsSaISsEE
FN:46,_ZN5neml217EnumSelectionBaseC2ERKSt6vectorISsSaISsEERKS1_IiSaIiEE
FN:64,_ZN5neml217EnumSelectionBaseaSERKS0_
FN:71,_ZNK5neml217EnumSelectionBase14candidates_strEv
FNDA:2397,_ZNK5neml217EnumSelectionBase14candidates_strEv
FNDA:0,_ZN5neml217EnumSelectionBaseaSERKS0_
FNDA:7,_ZN5neml217EnumSelectionBaseC2ERKSt6vectorISsSaISsEE
FNDA:1177,_ZN5neml217EnumSelectionBaseC2ERKSt6vectorISsSaISsEERKS1_IiSaIiEE
FNDA:2,_ZN5neml217EnumSelectionBaseC2ERKS0_
FNF:5
FNH:4
DA:30,2
DA:31,2
DA:33,2
DA:35,7
DA:37,7
DA:38,7
DA:41,6
DA:42,24
DA:43,18
DA:44,8
DA:46,1177
DA:47,1177
DA:49,1177
DA:52,1176
DA:53,1176
DA:56,1176
DA:57,1176
DA:59,5292
DA:60,4117
DA:61,1179
DA:64,0
DA:66,0
DA:67,0
DA:71,2397
DA:73,2397
DA:74,10832
DA:75,8435
DA:76,4794
DA:77,2397
LF:29
LH:26
end_of_record
TN:
SF:/home/runner/work/neml2/neml2/src/neml2/base/Factory.cxx
FN:35,_ZN5neml210load_inputERKNSt10filesystem4pathERKSs
FN:52,_ZN5neml212reload_inputERKNSt10filesystem4pathERKSs
FN:59,_ZN5neml29get_modelERKSsbb
FN:69,_ZN5neml210load_modelERKNSt10filesystem4pathERKSsb
FN:76,_ZN5neml212reload_modelERKNSt10filesystem4pathERKSsb
FN:83,_ZN5neml210get_driverERKSs
FN:89,_ZN5neml27Factory3getEv
FN:96,_ZN5neml27Factory12load_optionsERKNS_16OptionCollectionE
FN:107,_ZN5neml27Factory14loaded_optionsEv
FN:114,_ZN5neml27Factory13create_objectERKSsRKNS_9OptionSetE
FN:140,_ZN5neml27Factory5clearEv
FNDA:264,_ZN5neml212reload_inputERKNSt10filesystem4pathERKSs
FNDA:276,_ZN5neml210load_inputERKNSt10filesystem4pathERKSs
FNDA:276,_ZN5neml27Factory12load_optionsERKNS_16OptionCollectionE
FNDA:2268,_ZN5neml27Factory3getEv
FNDA:12,_ZN5neml210load_modelERKNSt10filesystem4pathERKSsb
FNDA:278,_ZN5neml27Factory5clearEv
FNDA:225,_ZN5neml29get_modelERKSsbb
FNDA:110,_ZN5neml210get_driverERKSs
FNDA:1605,_ZN5neml27Factory13create_objectERKSsRKNS_9OptionSetE
FNDA:12,_ZN5neml212reload_modelERKNSt10filesystem4pathERKSsb
FNDA:1,_ZN5neml27Factory14loaded_optionsEv
FNF:11
FNH:11
DA:35,276
DA:37,276
DA:40,276
DA:42,276
DA:43,276
DA:46,0
DA:48,274
DA:49,276
DA:52,264
DA:54,264
DA:55,264
DA:56,262
DA:59,225
DA:61,225
DA:62,225
DA:63,225
DA:64,225
DA:65,225
DA:66,225
DA:69,12
DA:71,12
DA:72,12
DA:76,12
DA:78,12
DA:79,12
DA:83,110
DA:85,110
DA:89,2268
DA:91,2268
DA:92,2268
DA:96,276
DA:98,276
DA:100,276
DA:103,276
DA:104,276
DA:107,1
DA:109,1
DA:110,1
DA:114,1605
DA:116,1605
DA:117,1605
DA:119,1605
DA:120,1605
DA:121,1603
DA:122,1603
DA:123,1603
DA:140,278
DA:142,278
DA:143,278
LF:49
LH:48
end_of_record
TN:
SF:/home/runner/work/neml2/neml2/src/neml2/base/HITParser.cxx
FN:39,_ZNK5neml29HITParser5parseERKNSt10filesystem4pathERKSs
FN:96,_ZNK5neml29HITParser22extract_object_optionsEPN3hit4NodeES3_
FN:113,_ZNK5neml29HITParser15extract_optionsEPN3hit4NodeERNS_9OptionSetE
FN:122,_ZNK5neml29HITParser14extract_optionEPN3hit4NodeERNS_9OptionSetE
FNDA:2746,_ZNK5neml29HITParser15extract_optionsEPN3hit4NodeERNS_9OptionSetE
FNDA:5903,_ZNK5neml29HITParser14extract_optionEPN3hit4NodeERNS_9OptionSetE
FNDA:287,_ZNK5neml29HITParser5parseERKNSt10filesystem4pathERKSs
FNDA:2735,_ZNK5neml29HITParser22extract_object_optionsEPN3hit4NodeES3_
FNF:4
FNH:4
DA:39,287
DA:42,287
DA:43,287
DA:46,287
DA:47,287
DA:48,287
DA:51,287
DA:52,287
DA:55,287
DA:58,574
DA:59,287
DA:60,287
DA:63,287
DA:64,287
DA:65,287
DA:66,287
DA:67,287
DA:68,287
DA:70,287
DA:73,287
DA:74,287
DA:75,11
DA:78,1713
DA:80,1429
DA:81,1429
DA:83,535
DA:84,3267
DA:86,2735
DA:87,2732
DA:88,2732
DA:89,535
DA:92,568
DA:93,311
DA:96,2735
DA:99,5470
DA:101,2735
DA:102,2735
DA:105,2732
DA:106,2732
DA:107,2732
DA:109,5464
DA:110,2738
DA:113,2746
DA:115,11381
DA:116,8638
DA:117,8646
DA:118,2743
DA:122,5903
DA:135,5903
DA:137,5903
DA:138,43072
DA:139,43072
DA:141,5903
DA:143,5903
DA:146,5902
DA:150,5902
DA:151,4675
DA:152,4488
DA:153,4394
DA:154,4354
DA:155,3764
DA:156,2840
DA:157,1916
DA:158,1404
DA:159,1364
DA:160,1360
DA:161,1345
DA:166,5900
DA:168,5900
DA:170,5900
LF:70
LH:70
end_of_record
TN:
SF:/home/runner/work/neml2/neml2/src/neml2/base/MultiEnumSelection.cxx
FN:31,_ZN5neml2lsERSoRKNS_18MultiEnumSelectionE
FN:38,_ZN5neml2rsERSt18basic_stringstreamIcSt11char_traitsIcESaIcEERNS_18MultiEnumSelectionE
FN:44,_ZN5neml218MultiEnumSelectionC2ERKS0_
FN:51,_ZN5neml218MultiEnumSelectionC2ERKSt6vectorISsSaISsEES5_
FN:58,_ZN5neml218MultiEnumSelectionC2ERKSt6vectorISsSaISsEERKS1_IiSaIiEES5_
FN:67,_ZN5neml218MultiEnumSelectionaSERKS0_
FN:76,_ZNK5neml218MultiEnumSelectioneqERKS0_
FN:83,_ZNK5neml218MultiEnumSelectionneERKS0_
FN:89,_ZN5neml218MultiEnumSelection6selectERKSt6vectorISsSaISsEE
FNDA:5,_ZN5neml2lsERSoRKNS_18MultiEnumSelectionE
FNDA:3,_ZNK5neml218MultiEnumSelectionneERKS0_
FNDA:1,_ZN5neml218MultiEnumSelectionC2ERKS0_
FNDA:30,_ZN5neml218MultiEnumSelection6selectERKSt6vectorISsSaISsEE
FNDA:4,_ZNK5neml218MultiEnumSelectioneqERKS0_
FNDA:80,_ZN5neml218MultiEnumSelectionaSERKS0_
FNDA:3,_ZN5neml218MultiEnumSelectionC2ERKSt6vectorISsSaISsEES5_
FNDA:21,_ZN5neml218MultiEnumSelectionC2ERKSt6vectorISsSaISsEERKS1_IiSaIiEES5_
FNDA:6,_ZN5neml2rsERSt18basic_stringstreamIcSt11char_traitsIcESaIcEERNS_18MultiEnumSelectionE
FNF:9
FNH:9
DA:31,5
DA:33,5
DA:34,5
DA:38,6
DA:40,7
DA:41,5
DA:44,1
DA:46,1
DA:47,1
DA:49,1
DA:51,3
DA:52,3
DA:53,3
DA:55,3
DA:56,5
DA:58,21
DA:60,21
DA:61,21
DA:63,21
DA:64,23
DA:67,80
DA:69,80
DA:70,80
DA:71,80
DA:72,80
DA:76,4
DA:78,5
DA:79,5
DA:83,3
DA:85,3
DA:89,30
DA:91,30
DA:92,30
DA:93,71
DA:95,44
DA:97,91
DA:98,41
DA:99,41
DA:101,27
LF:39
LH:39
end_of_record
TN:
SF:/home/runner/work/neml2/neml2/src/neml2/base/NEML2Object.cxx
FN:29,_ZN5neml211NEML2Object16expected_optionsEv
FN:37,_ZN5neml211NEML2ObjectC2ERKNS_9OptionSetE
FNDA:1762,_ZN5neml211NEML2Object16expected_optionsEv
FNDA:1616,_ZN5neml211NEML2ObjectC2ERKNS_9OptionSetE
FNF:2
FNH:2
DA:29,1762
DA:31,1762
DA:32,1762
DA:33,1762
DA:34,1762
DA:35,0
DA:37,1616
DA:38,1616
DA:39,1616
DA:41,1616
LF:10
LH:9
end_of_record
TN:
SF:/home/runner/work/neml2/neml2/src/neml2/base/OptionCollection.cxx
FN:30,_ZN5neml216OptionCollectionixERKSs
FN:36,_ZNK5neml216OptionCollectionixERKSs
FNDA:4455,_ZN5neml216OptionCollectionixERKSs
FNDA:1,_ZNK5neml216OptionCollectionixERKSs
FNF:2
FNH:2
DA:30,4455
DA:32,4455
DA:36,1
DA:38,1
LF:4
LH:4
end_of_record
TN:
SF:/home/runner/work/neml2/neml2/src/neml2/base/OptionSet.cxx
FN:31,_ZN5neml218options_compatibleERKNS_9OptionSetES2_
FN:44,_ZNK5neml29OptionSet8containsERKSs
FN:50,_ZNK5neml29OptionSet3getERKSs
FN:62,_ZN5neml29OptionSet3setERKSs
FN:74,_ZN5neml29OptionSet9set_inputERKSs
FN:80,_ZN5neml29OptionSet10set_outputERKSs
FN:86,_ZN5neml29OptionSet5clearEv
FN:92,_ZN5neml29OptionSetaSERKS0_
FN:101,_ZN5neml29OptionSetpLERKS0_
FN:107,_ZN5neml29OptionSetC2ERKS0_
FN:172,_ZN5neml29OptionSet5beginEv
FN:178,_ZNK5neml29OptionSet5beginEv
FN:184,_ZN5neml29OptionSet3endEv
FN:190,_ZNK5neml29OptionSet3endEv
FNDA:5903,_ZN5neml29OptionSet3endEv
FNDA:21349,_ZNK5neml29OptionSet8containsERKSs
FNDA:59,_ZNK5neml29OptionSet3getERKSs
FNDA:410,_ZN5neml29OptionSet10set_outputERKSs
FNDA:52,_ZN5neml218options_compatibleERKNS_9OptionSetES2_
FNDA:16115,_ZN5neml29OptionSet5clearEv
FNDA:16115,_ZN5neml29OptionSetaSERKS0_
FNDA:5903,_ZN5neml29OptionSet5beginEv
FNDA:52,_ZNK5neml29OptionSet5beginEv
FNDA:52,_ZNK5neml29OptionSet3endEv
FNDA:906,_ZN5neml29OptionSet9set_inputERKSs
FNDA:21232,_ZN5neml29OptionSet3setERKSs
FNDA:18494,_ZN5neml29OptionSetpLERKS0_
FNDA:11083,_ZN5neml29OptionSetC2ERKS0_
FNF:14
FNH:14
DA:31,52
DA:33,54
DA:35,53
DA:36,51
DA:37,53
DA:38,51
DA:40,1
DA:44,21349
DA:46,21349
DA:50,59
DA:52,59
DA:58,59
DA:62,21232
DA:64,21232
DA:70,21232
DA:74,906
DA:76,906
DA:80,410
DA:82,410
DA:86,16115
DA:88,16115
DA:89,16115
DA:92,16115
DA:94,16115
DA:95,16115
DA:96,16115
DA:97,16115
DA:101,18494
DA:103,148913
DA:104,130419
DA:105,18494
DA:107,11083
DA:172,5903
DA:174,5903
DA:178,52
DA:180,52
DA:184,5903
DA:186,5903
DA:190,52
DA:192,52
LF:40
LH:40
end_of_record
TN:
SF:/home/runner/work/neml2/neml2/src/neml2/base/Registry.cxx
FN:31,_ZN5neml28Registry3getEv
FN:38,_ZN5neml28Registry16expected_optionsEv
FN:45,_ZN5neml28Registry16expected_optionsERKSs
FN:56,_ZN5neml28Registry11syntax_typeERKSs
FN:63,_ZN5neml28Registry7builderERKSs
FN:74,_ZN5neml28Registry9add_innerERKSsS2_RKNS_9OptionSetEPFSt10shared_ptrINS_11NEML2ObjectEES5_E
FNDA:2,_ZN5neml28Registry16expected_optionsEv
FNDA:2735,_ZN5neml28Registry16expected_optionsERKSs
FNDA:6670,_ZN5neml28Registry3getEv
FNDA:1605,_ZN5neml28Registry7builderERKSs
FNDA:1748,_ZN5neml28Registry9add_innerERKSsS2_RKNS_9OptionSetEPFSt10shared_ptrINS_11NEML2ObjectEES5_E
FNDA:580,_ZN5neml28Registry11syntax_typeERKSs
FNF:6
FNH:6
DA:31,6670
DA:33,6670
DA:34,6670
DA:38,2
DA:40,2
DA:41,2
DA:45,2735
DA:47,2735
DA:48,2735
DA:49,2735
DA:52,2735
DA:56,580
DA:58,580
DA:59,580
DA:63,1605
DA:65,1605
DA:66,1605
DA:67,1605
DA:70,1605
DA:74,1748
DA:79,1748
DA:80,1748
DA:85,1748
DA:86,1748
DA:87,1748
DA:88,1748
LF:26
LH:26
end_of_record
TN:
SF:/home/runner/work/neml2/neml2/src/neml2/base/Settings.cxx
FN:33,_ZN5neml28Settings16expected_optionsEv
FN:99,_ZN5neml28SettingsC2ERKNS_9OptionSetE
FNDA:568,_ZN5neml28Settings16expected_optionsEv
FNDA:277,_ZN5neml28SettingsC2ERKNS_9OptionSetE
FNF:2
FNH:2
DA:33,568
DA:35,568
DA:36,568
DA:37,568
DA:39,568
DA:45,3408
DA:46,568
DA:47,1136
DA:48,1704
DA:55,3976
DA:56,568
DA:57,1136
DA:58,1704
DA:60,568
DA:61,1136
DA:66,568
DA:68,568
DA:69,1136
DA:70,568
DA:72,568
DA:73,568
DA:75,568
DA:76,568
DA:78,568
DA:79,1136
DA:80,568
DA:82,568
DA:83,1136
DA:84,568
DA:86,568
DA:87,1136
DA:89,568
DA:91,568
DA:92,1136
DA:94,568
DA:96,1136
DA:97,568
DA:99,277
DA:102,277
DA:103,277
DA:106,277
DA:109,277
DA:112,277
DA:115,277
DA:116,277
DA:119,277
DA:120,277
DA:121,0
DA:124,277
DA:125,277
DA:126,0
DA:129,277
DA:130,277
DA:133,277
DA:134,277
LF:55
LH:53
end_of_record
TN:
SF:/home/runner/work/neml2/neml2/src/neml2/drivers/Driver.cxx
FN:30,_ZN5neml26Driver16expected_optionsEv
FN:41,_ZN5neml26DriverC2ERKNS_9OptionSetE
FNDA:15,_ZN5neml26Driver16expected_optionsEv
FNDA:110,_ZN5neml26DriverC2ERKNS_9OptionSetE
FNF:2
FNH:2
DA:30,15
DA:32,15
DA:33,15
DA:35,15
DA:36,15
DA:38,15
DA:39,0
DA:41,110
DA:44,110
DA:46,110
LF:10
LH:9
end_of_record
TN:
SF:/home/runner/work/neml2/neml2/src/neml2/drivers/TransientDriver.cxx
FN:34,_ZN5neml215TransientDriver16expected_optionsEv
FN:104,_ZN5neml215TransientDriverC2ERKNS_9OptionSetE
FN:139,_ZNK5neml215TransientDriver8diagnoseERSt6vectorINS_9DiagnosisESaIS2_EE
FN:150,_ZN5neml215TransientDriver3runEv
FN:173,_ZN5neml215TransientDriver5solveEv
FN:208,_ZN5neml215TransientDriver12advance_stepEv
FN:218,_ZN5neml215TransientDriver13update_forcesEv
FN:228,_ZN5neml215TransientDriver8apply_icEv
FN:236,_ZN5neml215TransientDriver15apply_predictorEv
FN:287,_ZN5neml215TransientDriver10solve_stepEv
FN:293,_ZN5neml215TransientDriver11store_inputEv
FN:299,_ZN5neml215TransientDriver12store_outputEv
FN:305,_ZNK5neml215TransientDriver12save_as_pathEv
FN:311,_ZNK5neml215TransientDriver6resultEv
FN:333,_ZNK5neml215TransientDriver6outputEv
FN:357,_ZNK5neml215TransientDriver9output_ptERKNSt10filesystem4pathE
FNDA:7,_ZNK5neml215TransientDriver8diagnoseERSt6vectorINS_9DiagnosisESaIS2_EE
FNDA:12,_ZN5neml215TransientDriver16expected_optionsEv
FNDA:7,_ZN5neml215TransientDriver5solveEv
FNDA:5,_ZNK5neml215TransientDriver9output_ptERKNSt10filesystem4pathE
FNDA:7,_ZN5neml215TransientDriverC2ERKNS_9OptionSetE
FNDA:5,_ZNK5neml215TransientDriver6outputEv
FNDA:63,_ZN5neml215TransientDriver15apply_predictorEv
FNDA:7,_ZN5neml215TransientDriver3runEv
FNDA:70,_ZN5neml215TransientDriver13update_forcesEv
FNDA:5,_ZNK5neml215TransientDriver6resultEv
FNDA:63,_ZN5neml215TransientDriver12advance_stepEv
FNDA:70,_ZN5neml215TransientDriver12store_outputEv
FNDA:70,_ZN5neml215TransientDriver11store_inputEv
FNDA:63,_ZN5neml215TransientDriver10solve_stepEv
FNDA:7,_ZN5neml215TransientDriver8apply_icEv
FNDA:12,_ZNK5neml215TransientDriver12save_as_pathEv
FNF:16
FNH:16
DA:34,12
DA:36,12
DA:38,12
DA:39,12
DA:41,12
DA:42,12
DA:44,12
DA:45,24
DA:48,12
DA:50,12
DA:51,12
DA:53,12
DA:54,24
DA:57,12
DA:59,12
DA:60,12
DA:62,12
DA:63,24
DA:64,12
DA:66,12
DA:67,12
DA:69,12
DA:70,12
DA:72,12
DA:73,12
DA:75,12
DA:76,24
DA:81,12
DA:83,12
DA:84,12
DA:86,12
DA:87,12
DA:89,12
DA:90,12
DA:92,12
DA:93,12
DA:95,12
DA:96,12
DA:98,12
DA:99,12
DA:101,12
DA:102,0
DA:104,7
DA:106,7
DA:107,7
DA:108,7
DA:109,7
DA:110,7
DA:111,7
DA:112,7
DA:113,7
DA:114,7
DA:115,7
DA:116,7
DA:117,7
DA:118,7
DA:119,7
DA:120,7
DA:121,7
DA:122,7
DA:123,7
DA:124,7
DA:125,7
DA:126,7
DA:127,7
DA:128,7
DA:129,14
DA:131,7
DA:133,7
DA:134,7
DA:135,7
DA:136,7
DA:139,7
DA:141,7
DA:142,7
DA:143,14
DA:144,7
DA:146,7
DA:147,7
DA:150,7
DA:164,7
DA:166,7
DA:167,5
DA:169,7
DA:173,7
DA:175,77
DA:177,70
DA:182,70
DA:183,63
DA:184,70
DA:185,70
DA:187,7
DA:188,7
DA:192,63
DA:193,63
DA:194,63
DA:196,70
DA:198,70
DA:204,7
DA:208,63
DA:210,63
DA:211,63
DA:213,63
DA:214,63
DA:215,63
DA:218,70
DA:220,70
DA:222,140
DA:223,70
DA:224,70
DA:225,70
DA:228,7
DA:230,7
DA:231,7
DA:232,7
DA:233,7
DA:236,63
DA:238,63
DA:239,63
DA:240,63
DA:242,9
DA:243,9
DA:246,63
DA:248,36
DA:249,27
DA:250,9
DA:253,9
DA:254,1
DA:258,8
DA:259,24
DA:260,24
DA:261,8
DA:262,8
DA:264,16
DA:265,16
DA:266,16
DA:267,16
DA:268,8
DA:269,8
DA:272,0
DA:275,63
DA:277,1
DA:278,1
DA:279,1
DA:280,1
DA:281,3
DA:282,1
DA:283,1
DA:284,63
DA:287,63
DA:289,63
DA:290,63
DA:293,70
DA:295,140
DA:296,70
DA:299,70
DA:301,140
DA:302,70
DA:305,12
DA:307,12
DA:311,5
DA:313,5
DA:314,5
DA:317,5
DA:318,44
DA:319,44
DA:322,5
DA:323,18
DA:324,18
DA:327,5
DA:328,15
DA:329,10
DA:330,5
DA:333,5
DA:335,5
DA:340,5
DA:341,10
DA:343,5
DA:344,5
DA:350,5
DA:354,5
DA:357,5
DA:359,5
DA:360,5
LF:184
LH:182
end_of_record
TN:
SF:/home/runner/work/neml2/neml2/src/neml2/drivers/solid_mechanics/LargeDeformationIncrementalSolidMechanicsDriver.cxx
FN:32,_ZN5neml247LargeDeformationIncrementalSolidMechanicsDriver16expected_optionsEv
FN:65,_ZN5neml247LargeDeformationIncrementalSolidMechanicsDriverC2ERKNS_9OptionSetE
FN:96,_ZNK5neml247LargeDeformationIncrementalSolidMechanicsDriver8diagnoseERSt6vectorINS_9DiagnosisESaIS2_EE
FN:147,_ZN5neml247LargeDeformationIncrementalSolidMechanicsDriver13update_forcesEv
FNDA:10,_ZN5neml247LargeDeformationIncrementalSolidMechanicsDriver13update_forcesEv
FNDA:1,_ZNK5neml247LargeDeformationIncrementalSolidMechanicsDriver8diagnoseERSt6vectorINS_9DiagnosisESaIS2_EE
FNDA:1,_ZN5neml247LargeDeformationIncrementalSolidMechanicsDriverC2ERKNS_9OptionSetE
FNDA:6,_ZN5neml247LargeDeformationIncrementalSolidMechanicsDriver16expected_optionsEv
FNF:4
FNH:4
DA:32,6
DA:34,6
DA:35,6
DA:36,6
DA:38,6
DA:39,12
DA:40,6
DA:42,6
DA:43,6
DA:45,6
DA:46,6
DA:48,6
DA:49,6
DA:51,6
DA:52,12
DA:53,6
DA:55,6
DA:56,12
DA:57,6
DA:59,6
DA:60,6
DA:62,6
DA:63,0
DA:65,1
DA:66,1
DA:68,1
DA:69,1
DA:70,1
DA:71,1
DA:72,2
DA:73,2
DA:74,2
DA:76,1
DA:78,1
DA:79,1
DA:81,0
DA:83,0
DA:84,0
DA:91,1
DA:92,1
DA:93,1
DA:96,1
DA:98,1
DA:100,2
DA:102,1
DA:104,1
DA:105,3
DA:107,1
DA:111,1
DA:113,1
DA:115,3
DA:117,1
DA:121,1
DA:123,1
DA:125,3
DA:127,1
DA:131,1
DA:133,1
DA:134,2
DA:136,1
DA:138,1
DA:139,2
DA:141,1
DA:143,1
DA:144,1
DA:147,10
DA:149,10
DA:150,20
DA:151,10
DA:152,20
DA:153,10
LF:71
LH:67
end_of_record
TN:
SF:/home/runner/work/neml2/neml2/src/neml2/drivers/solid_mechanics/SolidMechanicsDriver.cxx
FN:32,_ZN5neml220SolidMechanicsDriver16expected_optionsEv
FN:79,_ZN5neml220SolidMechanicsDriverC2ERKNS_9OptionSetE
FN:121,_ZNK5neml220SolidMechanicsDriver8diagnoseERSt6vectorINS_9DiagnosisESaIS2_EE
FN:205,_ZN5neml220SolidMechanicsDriver13update_forcesEv
FNDA:60,_ZN5neml220SolidMechanicsDriver13update_forcesEv
FNDA:6,_ZNK5neml220SolidMechanicsDriver8diagnoseERSt6vectorINS_9DiagnosisESaIS2_EE
FNDA:6,_ZN5neml220SolidMechanicsDriverC2ERKNS_9OptionSetE
FNDA:6,_ZN5neml220SolidMechanicsDriver16expected_optionsEv
FNF:4
FNH:4
DA:32,6
DA:34,6
DA:35,6
DA:36,6
DA:38,6
DA:39,12
DA:40,6
DA:42,6
DA:43,6
DA:45,6
DA:46,6
DA:48,6
DA:49,6
DA:51,6
DA:52,6
DA:54,6
DA:55,6
DA:57,6
DA:58,6
DA:60,6
DA:61,12
DA:62,6
DA:64,6
DA:65,12
DA:67,6
DA:69,6
DA:70,6
DA:72,6
DA:73,12
DA:74,6
DA:76,6
DA:77,0
DA:79,6
DA:81,6
DA:82,6
DA:83,6
DA:84,6
DA:85,6
DA:86,7
DA:87,7
DA:89,7
DA:90,7
DA:91,12
DA:94,6
DA:96,4
DA:97,4
DA:99,2
DA:101,1
DA:102,1
DA:104,1
DA:106,1
DA:107,1
DA:114,6
DA:116,6
DA:117,1
DA:118,6
DA:121,6
DA:123,6
DA:125,12
DA:126,6
DA:128,6
DA:130,18
DA:132,6
DA:135,6
DA:137,6
DA:140,18
DA:142,6
DA:145,6
DA:147,6
DA:149,12
DA:151,6
DA:153,6
DA:155,6
DA:157,2
DA:159,1
DA:161,1
DA:163,3
DA:165,1
DA:168,1
DA:170,1
DA:173,3
DA:175,1
DA:178,1
DA:180,2
DA:183,6
DA:185,2
DA:187,1
DA:189,1
DA:190,2
DA:192,1
DA:194,1
DA:196,2
DA:198,1
DA:200,2
DA:202,6
DA:205,60
DA:207,60
DA:209,120
DA:210,60
DA:212,60
DA:214,20
DA:215,10
DA:216,10
DA:218,60
DA:220,20
DA:221,10
DA:222,10
DA:223,60
LF:108
LH:107
end_of_record
TN:
SF:/home/runner/work/neml2/neml2/src/neml2/misc/error.cxx
FN:30,_ZNK5neml213NEMLException4whatEv
FN:38,_ZN5neml28internal10stream_allERSt19basic_ostringstreamIcSt11char_traitsIcESaIcEE
FNDA:133,_ZN5neml28internal10stream_allERSt19basic_ostringstreamIcSt11char_traitsIcESaIcEE
FNDA:29,_ZNK5neml213NEMLException4whatEv
FNF:2
FNH:2
DA:30,29
DA:32,29
DA:38,133
DA:40,133
LF:4
LH:4
end_of_record
TN:
SF:/home/runner/work/neml2/neml2/src/neml2/misc/math.cxx
FN:36,_ZN5neml24math15ConstantTensorsC2Ev
FN:58,_ZN5neml24math15ConstantTensors3getEv
FN:65,_ZN5neml24math15ConstantTensors18full_to_mandel_mapEv
FN:71,_ZN5neml24math15ConstantTensors18mandel_to_full_mapEv
FN:77,_ZN5neml24math15ConstantTensors21full_to_mandel_factorEv
FN:83,_ZN5neml24math15ConstantTensors21mandel_to_full_factorEv
FN:89,_ZN5neml24math15ConstantTensors16full_to_skew_mapEv
FN:95,_ZN5neml24math15ConstantTensors16skew_to_full_mapEv
FN:101,_ZN5neml24math15ConstantTensors19full_to_skew_factorEv
FN:107,_ZN5neml24math15ConstantTensors19skew_to_full_factorEv
FN:113,_ZN5neml24math15full_to_reducedERKNS_6TensorERKN2at6TensorES7_l
FN:139,_ZN5neml24math15reduced_to_fullERKNS_6TensorERKN2at6TensorES7_l
FN:162,_ZN5neml24math14full_to_mandelERKNS_6TensorEl
FN:172,_ZN5neml24math14mandel_to_fullERKNS_6TensorEl
FN:182,_ZN5neml24math12full_to_skewERKNS_6TensorEl
FN:192,_ZN5neml24math12skew_to_fullERKNS_6TensorEl
FN:202,_ZN5neml24math6jacrevERKNS_6TensorES3_
FN:245,_ZN5neml24math15base_diag_embedERKNS_6TensorElll
FN:254,_ZN5neml24math19skew_and_sym_to_symERKNS_3SR2ERKNS_3WR2E
FN:264,_ZN5neml24math27d_skew_and_sym_to_sym_d_symERKNS_3WR2E
FN:273,_ZN5neml24math28d_skew_and_sym_to_sym_d_skewERKNS_3SR2E
FN:282,_ZN5neml24math22multiply_and_make_skewERKNS_3SR2ES3_
FN:291,_ZN5neml24math32d_multiply_and_make_skew_d_firstERKNS_3SR2E
FN:300,_ZN5neml24math33d_multiply_and_make_skew_d_secondERKNS_3SR2E
FN:309,_ZN5neml24math3powERKdRKNS_6TensorE
FN:315,_ZN5neml24math3powERKNS_6TensorES3_
FN:324,_ZN5neml24math6linalg11vector_normERKNS_6TensorE
FN:341,_ZN5neml24math6linalg3invERKNS_6TensorE
FN:347,_ZN5neml24math6linalg5solveERKNS_6TensorES4_
FN:353,_ZN5neml24math6linalg9lu_factorERKNS_6TensorEb
FN:360,_ZN5neml24math6linalg8lu_solveERKNS_6TensorES4_S4_bb
FNDA:3188,_ZN5neml24math15ConstantTensors21mandel_to_full_factorEv
FNDA:66,_ZN5neml24math27d_skew_and_sym_to_sym_d_symERKNS_3WR2E
FNDA:464,_ZN5neml24math12skew_to_fullERKNS_6TensorEl
FNDA:548,_ZN5neml24math15ConstantTensors19full_to_skew_factorEv
FNDA:464,_ZN5neml24math15ConstantTensors19skew_to_full_factorEv
FNDA:548,_ZN5neml24math12full_to_skewERKNS_6TensorEl
FNDA:1,_ZN5neml24math15ConstantTensorsC2Ev
FNDA:552,_ZN5neml24math15base_diag_embedERKNS_6TensorElll
FNDA:13788,_ZN5neml24math15ConstantTensors3getEv
FNDA:3652,_ZN5neml24math15reduced_to_fullERKNS_6TensorERKN2at6TensorES7_l
FNDA:2694,_ZN5neml24math15ConstantTensors21full_to_mandel_factorEv
FNDA:464,_ZN5neml24math15ConstantTensors16skew_to_full_mapEv
FNDA:5,_ZN5neml24math28d_skew_and_sym_to_sym_d_skewERKNS_3SR2E
FNDA:2694,_ZN5neml24math15ConstantTensors18full_to_mandel_mapEv
FNDA:8,_ZN5neml24math6linalg9lu_factorERKNS_6TensorEb
FNDA:3188,_ZN5neml24math14mandel_to_fullERKNS_6TensorEl
FNDA:3188,_ZN5neml24math15ConstantTensors18mandel_to_full_mapEv
FNDA:66,_ZN5neml24math33d_multiply_and_make_skew_d_secondERKNS_3SR2E
FNDA:362,_ZN5neml24math22multiply_and_make_skewERKNS_3SR2ES3_
FNDA:368,_ZN5neml24math19skew_and_sym_to_symERKNS_3SR2ERKNS_3WR2E
FNDA:66,_ZN5neml24math32d_multiply_and_make_skew_d_firstERKNS_3SR2E
FNDA:548,_ZN5neml24math15ConstantTensors16full_to_skew_mapEv
FNDA:64,_ZN5neml24math3powERKdRKNS_6TensorE
FNDA:78,_ZN5neml24math6jacrevERKNS_6TensorES3_
FNDA:1289,_ZN5neml24math6linalg11vector_normERKNS_6TensorE
FNDA:3242,_ZN5neml24math15full_to_reducedERKNS_6TensorERKN2at6TensorES7_l
FNDA:2694,_ZN5neml24math14full_to_mandelERKNS_6TensorEl
FNDA:227,_ZN5neml24math6linalg3invERKNS_6TensorE
FNDA:24,_ZN5neml24math6linalg8lu_solveERKNS_6TensorES4_S4_bb
FNDA:0,_ZN5neml24math3powERKNS_6TensorES3_
FNDA:1319,_ZN5neml24math6linalg5solveERKNS_6TensorES4_
FNF:31
FNH:30
DA:36,1
DA:38,7
DA:41,10
DA:43,7
DA:46,10
DA:48,4
DA:50,10
DA:52,4
DA:54,10
DA:55,1
DA:58,13788
DA:60,13788
DA:61,13788
DA:65,2694
DA:67,2694
DA:71,3188
DA:73,3188
DA:77,2694
DA:79,2694
DA:83,3188
DA:85,3188
DA:89,548
DA:91,548
DA:95,464
DA:97,464
DA:101,548
DA:103,548
DA:107,464
DA:109,464
DA:113,3242
DA:118,3242
DA:119,3242
DA:120,3242
DA:121,3242
DA:122,3242
DA:124,3242
DA:125,3242
DA:126,3242
DA:128,3242
DA:129,3242
DA:132,6484
DA:135,6484
DA:136,3242
DA:139,3652
DA:144,3652
DA:145,3652
DA:146,3652
DA:147,3652
DA:148,3652
DA:150,3652
DA:151,3652
DA:152,3652
DA:153,3652
DA:154,3652
DA:156,7304
DA:157,7304
DA:158,7304
DA:159,3652
DA:162,2694
DA:166,5388
DA:167,5388
DA:168,5388
DA:172,3188
DA:176,6376
DA:177,6376
DA:178,6376
DA:182,548
DA:186,1096
DA:187,1096
DA:188,1096
DA:192,464
DA:196,928
DA:197,928
DA:198,928
DA:202,78
DA:204,78
DA:207,79
DA:209,79
DA:213,154
DA:214,154
DA:216,77
DA:219,77
DA:221,77
DA:222,309
DA:224,233
DA:225,699
DA:226,1631
DA:229,233
DA:231,233
DA:232,233
DA:233,657
DA:234,233
DA:238,154
DA:239,154
DA:241,154
DA:242,77
DA:245,552
DA:248,1104
DA:249,0
DA:250,1656
DA:254,368
DA:258,368
DA:259,368
DA:260,1104
DA:261,368
DA:264,66
DA:266,66
DA:267,66
DA:268,264
DA:269,396
DA:270,66
DA:273,5
DA:275,5
DA:276,5
DA:277,20
DA:278,30
DA:279,5
DA:282,362
DA:284,362
DA:285,362
DA:287,1086
DA:288,362
DA:291,66
DA:293,66
DA:294,66
DA:295,264
DA:296,396
DA:297,66
DA:300,66
DA:302,66
DA:303,66
DA:304,264
DA:305,396
DA:306,66
DA:309,64
DA:311,128
DA:315,0
DA:317,0
DA:318,0
DA:324,1289
DA:326,1289
DA:328,1289
DA:332,1289
DA:333,75
DA:335,2428
DA:336,2428
DA:337,2428
DA:341,227
DA:343,454
DA:347,1319
DA:349,2638
DA:353,8
DA:355,8
DA:356,16
DA:357,8
DA:360,24
DA:362,48
LF:157
LH:153
end_of_record
TN:
SF:/home/runner/work/neml2/neml2/src/neml2/misc/parser_utils.cxx
FN:31,_ZNK5neml215ParserException4whatEv
FN:39,_ZN5neml25utilsrsERSt18basic_stringstreamIcSt11char_traitsIcESaIcEERN2at6TensorE
FN:46,_ZN5neml25utils5splitERKSsS2_
FN:67,_ZN5neml25utils4trimERKSsS2_
FN:77,_ZN5neml25utils10start_withESt17basic_string_viewIcSt11char_traitsIcEES4_
FN:83,_ZN5neml25utils8end_withESt17basic_string_viewIcSt11char_traitsIcEES4_
FN:91,_ZN5neml25utils6parse_IbEEvRT_RKSs
FN:104,_ZN5neml25utils13parse_vector_IbEEvRSt6vectorIT_SaIS3_EERKSs
FN:114,_ZN5neml25utils6parse_INS_19LabeledAxisAccessorEEEvRT_RKSs
FN:122,_ZN5neml25utils6parse_IN3c1011SmallVectorIlLj6EEEEEvRT_RKSs
FNDA:12335,_ZN5neml25utils10start_withESt17basic_string_viewIcSt11char_traitsIcEES4_
FNDA:289,_ZN5neml25utils6parse_IbEEvRT_RKSs
FNDA:673,_ZN5neml25utils6parse_INS_19LabeledAxisAccessorEEEvRT_RKSs
FNDA:1312,_ZN5neml25utils6parse_IN3c1011SmallVectorIlLj6EEEEEvRT_RKSs
FNDA:12562,_ZN5neml25utils4trimERKSsS2_
FNDA:3236,_ZN5neml25utils5splitERKSsS2_
FNDA:1,_ZN5neml25utilsrsERSt18basic_stringstreamIcSt11char_traitsIcESaIcEERN2at6TensorE
FNDA:44,_ZN5neml25utils13parse_vector_IbEEvRSt6vectorIT_SaIS3_EERKSs
FNDA:1589,_ZN5neml25utils8end_withESt17basic_string_viewIcSt11char_traitsIcEES4_
FNDA:5,_ZNK5neml215ParserException4whatEv
FNF:10
FNH:10
DA:31,5
DA:33,5
DA:39,1
DA:41,1
DA:46,3236
DA:48,3236
DA:50,3236
DA:51,3236
DA:53,8276
DA:55,8250
DA:57,8250
DA:58,8250
DA:59,3210
DA:60,5040
DA:63,3236
DA:64,0
DA:67,12562
DA:69,12562
DA:70,12562
DA:71,27
DA:72,12535
DA:73,12535
DA:77,12335
DA:79,12335
DA:83,1589
DA:85,3178
DA:86,3178
DA:91,289
DA:93,289
DA:94,289
DA:95,106
DA:96,183
DA:97,182
DA:99,1
DA:100,289
DA:104,44
DA:106,88
DA:107,44
DA:108,165
DA:109,121
DA:110,44
DA:114,673
DA:116,1346
DA:117,673
DA:118,673
DA:122,1312
DA:124,1312
DA:125,1
DA:126,2
DA:128,2622
DA:129,2622
DA:131,1311
DA:132,3752
DA:133,2441
DA:134,1311
LF:55
LH:54
end_of_record
TN:
SF:/home/runner/work/neml2/neml2/src/neml2/misc/types.cxx
FN:30,_ZN5neml222default_tensor_optionsEv
FN:38,_ZN5neml230default_integer_tensor_optionsEv
FN:46,_ZN5neml213default_dtypeEv
FN:53,_ZN5neml221default_integer_dtypeEv
FN:60,_ZN5neml214default_deviceEv
FN:67,_ZN5neml217machine_precisionEv
FN:74,_ZN5neml29toleranceEv
FN:81,_ZN5neml217tighter_toleranceEv
FN:88,_ZN5neml221buffer_name_separatorEv
FN:95,_ZN5neml224parameter_name_separatorEv
FN:102,_ZN5neml234currently_solving_nonlinear_systemEv
FNDA:798,_ZN5neml213default_dtypeEv
FNDA:7174,_ZN5neml221default_integer_dtypeEv
FNDA:2501,_ZN5neml217machine_precisionEv
FNDA:373,_ZN5neml224parameter_name_separatorEv
FNDA:38230,_ZN5neml234currently_solving_nonlinear_systemEv
FNDA:515,_ZN5neml214default_deviceEv
FNDA:279,_ZN5neml29toleranceEv
FNDA:5002,_ZN5neml222default_tensor_optionsEv
FNDA:279,_ZN5neml217tighter_toleranceEv
FNDA:484,_ZN5neml221buffer_name_separatorEv
FNDA:172,_ZN5neml230default_integer_tensor_optionsEv
FNF:11
FNH:11
DA:30,5002
DA:33,5002
DA:34,5002
DA:38,172
DA:41,172
DA:42,172
DA:46,798
DA:49,798
DA:53,7174
DA:56,7174
DA:60,515
DA:62,515
DA:63,515
DA:67,2501
DA:70,2501
DA:74,279
DA:77,279
DA:81,279
DA:84,279
DA:88,484
DA:90,484
DA:91,484
DA:95,373
DA:97,373
DA:98,373
DA:102,38230
DA:105,38230
LF:27
LH:27
end_of_record
TN:
SF:/home/runner/work/neml2/neml2/src/neml2/misc/utils.cxx
FN:33,_ZN5neml25utils8demangleEPKc
FN:40,_ZN5neml25utils12storage_sizeEN3c108ArrayRefIlEE
FN:47,_ZN5neml25utils11pad_prependEN3c108ArrayRefIlEEll
FN:55,_ZN5neml25utils10pad_appendEN3c108ArrayRefIlEEll
FN:77,_ZN5neml25utils7details15add_shapes_implERN3c1011SmallVectorIlLj6EEE
FNDA:16688,_ZN5neml25utils12storage_sizeEN3c108ArrayRefIlEE
FNDA:103547,_ZN5neml25utils7details15add_shapes_implERN3c1011SmallVectorIlLj6EEE
FNDA:3,_ZN5neml25utils10pad_appendEN3c108ArrayRefIlEEll
FNDA:281290,_ZN5neml25utils8demangleEPKc
FNDA:326841,_ZN5neml25utils11pad_prependEN3c108ArrayRefIlEEll
FNF:5
FNH:5
DA:33,281290
DA:36,281290
DA:40,16688
DA:42,16688
DA:43,16688
DA:47,326841
DA:49,326841
DA:50,326841
DA:51,326841
DA:52,0
DA:55,3
DA:57,3
DA:58,3
DA:59,3
DA:60,0
DA:77,103547
DA:79,103547
LF:17
LH:15
end_of_record
TN:
SF:/home/runner/work/neml2/neml2/src/neml2/models/ArrheniusParameter.cxx
FN:33,_ZN5neml218ArrheniusParameter16expected_optionsEv
FN:56,_ZN5neml218ArrheniusParameterC2ERKNS_9OptionSetE
FN:66,_ZN5neml218ArrheniusParameter9set_valueEbbb
FNDA:3,_ZN5neml218ArrheniusParameterC2ERKNS_9OptionSetE
FNDA:38,_ZN5neml218ArrheniusParameter9set_valueEbbb
FNDA:6,_ZN5neml218ArrheniusParameter16expected_optionsEv
FNF:3
FNH:3
DA:33,6
DA:35,6
DA:36,6
DA:39,6
DA:41,6
DA:42,6
DA:44,6
DA:45,6
DA:47,6
DA:48,6
DA:50,6
DA:51,6
DA:53,6
DA:54,0
DA:56,3
DA:58,3
DA:59,3
DA:60,3
DA:61,6
DA:63,3
DA:66,38
DA:68,76
DA:70,38
DA:71,32
DA:73,38
DA:74,38
DA:76,28
DA:78,14
DA:79,12
DA:81,14
DA:82,6
DA:83,14
DA:84,38
LF:33
LH:32
end_of_record
TN:
SF:/home/runner/work/neml2/neml2/src/neml2/models/BackwardEulerTimeIntegration.cxx
FN:35,_ZN5neml228BackwardEulerTimeIntegrationINS_3SR2EE16expected_optionsEv
FN:35,_ZN5neml228BackwardEulerTimeIntegrationINS_6ScalarEE16expected_optionsEv
FN:35,_ZN5neml228BackwardEulerTimeIntegrationINS_3VecEE16expected_optionsEv
FN:59,_ZN5neml228BackwardEulerTimeIntegrationINS_3VecEEC2ERKNS_9OptionSetE
FN:59,_ZN5neml228BackwardEulerTimeIntegrationINS_3SR2EEC2ERKNS_9OptionSetE
FN:59,_ZN5neml228BackwardEulerTimeIntegrationINS_6ScalarEEC2ERKNS_9OptionSetE
FN:74,_ZNK5neml228BackwardEulerTimeIntegrationINS_3VecEE8diagnoseERSt6vectorINS_9DiagnosisESaIS4_EE
FN:74,_ZNK5neml228BackwardEulerTimeIntegrationINS_6ScalarEE8diagnoseERSt6vectorINS_9DiagnosisESaIS4_EE
FN:74,_ZNK5neml228BackwardEulerTimeIntegrationINS_3SR2EE8diagnoseERSt6vectorINS_9DiagnosisESaIS4_EE
FN:84,_ZN5neml228BackwardEulerTimeIntegrationINS_3VecEE9set_valueEbbb
FN:84,_ZN5neml228BackwardEulerTimeIntegrationINS_6ScalarEE9set_valueEbbb
FN:84,_ZN5neml228BackwardEulerTimeIntegrationINS_3SR2EE9set_valueEbbb
FNDA:6,_ZN5neml228BackwardEulerTimeIntegrationINS_3VecEE16expected_optionsEv
FNDA:6,_ZN5neml228BackwardEulerTimeIntegrationINS_6ScalarEE16expected_optionsEv
FNDA:6,_ZN5neml228BackwardEulerTimeIntegrationINS_3SR2EE16expected_optionsEv
FNDA:2612,_ZN5neml228BackwardEulerTimeIntegrationINS_3SR2EE9set_valueEbbb
FNDA:6,_ZNK5neml228BackwardEulerTimeIntegrationINS_3SR2EE8diagnoseERSt6vectorINS_9DiagnosisESaIS4_EE
FNDA:30,_ZN5neml228BackwardEulerTimeIntegrationINS_6ScalarEEC2ERKNS_9OptionSetE
FNDA:4,_ZNK5neml228BackwardEulerTimeIntegrationINS_6ScalarEE8diagnoseERSt6vectorINS_9DiagnosisESaIS4_EE
FNDA:13,_ZN5neml228BackwardEulerTimeIntegrationINS_3SR2EEC2ERKNS_9OptionSetE
FNDA:3949,_ZN5neml228BackwardEulerTimeIntegrationINS_6ScalarEE9set_valueEbbb
FNDA:0,_ZN5neml228BackwardEulerTimeIntegrationINS_3VecEE9set_valueEbbb
FNDA:0,_ZNK5neml228BackwardEulerTimeIntegrationINS_3VecEE8diagnoseERSt6vectorINS_9DiagnosisESaIS4_EE
FNDA:0,_ZN5neml228BackwardEulerTimeIntegrationINS_3VecEEC2ERKNS_9OptionSetE
FNF:12
FNH:9
DA:35,18
DA:37,18
DA:38,18
DA:44,18
DA:46,18
DA:47,18
DA:49,18
DA:50,18
DA:52,18
DA:53,18
DA:55,18
DA:56,0
DA:59,43
DA:61,43
DA:62,43
DA:63,86
DA:64,45
DA:65,2
DA:66,43
DA:67,43
DA:68,86
DA:70,43
DA:74,10
DA:76,10
DA:77,10
DA:78,10
DA:79,10
DA:80,10
DA:84,6561
DA:86,6561
DA:88,6561
DA:89,6559
DA:91,6561
DA:93,2970
DA:95,2970
DA:96,2970
DA:98,2970
DA:99,2922
DA:101,48
DA:102,48
DA:103,48
DA:104,2970
LF:42
LH:41
end_of_record
TN:
SF:/home/runner/work/neml2/neml2/src/neml2/models/BufferStore.cxx
FN:29,_ZN5neml211BufferStoreC2ERKNS_9OptionSetEPNS_11NEML2ObjectE
FN:36,_ZN5neml211BufferStore13named_buffersEv
FN:44,_ZN5neml211BufferStore15send_buffers_toERKN3c1013TensorOptionsE
FNDA:631,_ZN5neml211BufferStoreC2ERKNS_9OptionSetEPNS_11NEML2ObjectE
FNDA:0,_ZN5neml211BufferStore13named_buffersEv
FNDA:443,_ZN5neml211BufferStore15send_buffers_toERKN3c1013TensorOptionsE
FNF:3
FNH:2
DA:29,631
DA:30,631
DA:31,631
DA:33,631
DA:36,0
DA:38,0
DA:40,0
DA:44,443
DA:46,443
DA:48,761
DA:49,318
DA:50,443
LF:12
LH:9
end_of_record
TN:
SF:/home/runner/work/neml2/neml2/src/neml2/models/ComposedModel.cxx
FN:34,_ZN5neml213ComposedModel16expected_optionsEv
FN:64,_ZN5neml213ComposedModelC2ERKNS_9OptionSetE
FN:151,_ZN5neml213ComposedModel5setupEv
FN:183,_ZNK5neml213ComposedModel11consolidateERKSt3mapIN2at8indexing11TensorIndexESt4pairIS4_PNS_5ModelEENS_11LabeledAxis16AssemblySliceCmpESaIS5_IKS4_S8_EEE
FN:230,_ZNK5neml213ComposedModel19check_AD_limitationEv
FN:239,_ZNK5neml213ComposedModel26named_nonlinear_parametersEb
FN:245,_ZNK5neml213ComposedModel32named_nonlinear_parameter_modelsEb
FN:251,_ZN5neml213ComposedModel18allocate_variablesEbb
FN:277,_ZN5neml213ComposedModel18setup_output_viewsEv
FN:303,_ZN5neml213ComposedModel26setup_submodel_input_viewsEPNS_13VariableStoreE
FN:323,_ZN5neml213ComposedModel9set_valueEbbb
FN:351,_ZN5neml213ComposedModel15set_value_asyncEPNS_5ModelEbbb
FN:382,_ZNK5neml213ComposedModel18rethrow_exceptionsEv
FN:403,_ZN5neml213ComposedModel16apply_chain_ruleEPNS_5ModelE
FN:414,_ZN5neml213ComposedModel29apply_second_order_chain_ruleEPNS_5ModelE
FNDA:20575,_ZN5neml213ComposedModel15set_value_asyncEPNS_5ModelEbbb
FNDA:3983,_ZNK5neml213ComposedModel18rethrow_exceptionsEv
FNDA:6,_ZN5neml213ComposedModel16expected_optionsEv
FNDA:28,_ZNK5neml213ComposedModel32named_nonlinear_parameter_modelsEb
FNDA:3983,_ZN5neml213ComposedModel9set_valueEbbb
FNDA:102,_ZN5neml213ComposedModelC2ERKNS_9OptionSetE
FNDA:1920,_ZN5neml213ComposedModel26setup_submodel_input_viewsEPNS_13VariableStoreE
FNDA:102,_ZN5neml213ComposedModel5setupEv
FNDA:1920,_ZN5neml213ComposedModel18allocate_variablesEbb
FNDA:2016,_ZNK5neml213ComposedModel19check_AD_limitationEv
FNDA:8052,_ZN5neml213ComposedModel16apply_chain_ruleEPNS_5ModelE
FNDA:349,_ZNK5neml213ComposedModel11consolidateERKSt3mapIN2at8indexing11TensorIndexESt4pairIS4_PNS_5ModelEENS_11LabeledAxis16AssemblySliceCmpESaIS5_IKS4_S8_EEE
FNDA:14,_ZNK5neml213ComposedModel26named_nonlinear_parametersEb
FNDA:623,_ZN5neml213ComposedModel29apply_second_order_chain_ruleEPNS_5ModelE
FNDA:1920,_ZN5neml213ComposedModel18setup_output_viewsEv
FNF:15
FNH:15
DA:34,6
DA:36,6
DA:37,6
DA:40,6
DA:42,6
DA:44,6
DA:45,6
DA:47,6
DA:48,12
DA:50,6
DA:52,6
DA:53,12
DA:55,6
DA:57,6
DA:58,12
DA:59,6
DA:61,6
DA:62,0
DA:64,102
DA:66,102
DA:67,204
DA:72,344
DA:73,242
DA:83,102
DA:84,102
DA:85,344
DA:86,349
DA:87,349
DA:90,451
DA:91,349
DA:92,104
DA:93,2
DA:96,204
DA:97,102
DA:98,102
DA:99,0
DA:102,102
DA:103,102
DA:104,102
DA:107,102
DA:110,657
DA:112,555
DA:113,555
DA:114,555
DA:116,555
DA:117,104
DA:122,451
DA:123,555
DA:126,236
DA:128,134
DA:129,134
DA:130,134
DA:131,134
DA:135,134
DA:136,134
DA:139,344
DA:141,349
DA:142,107
DA:143,242
DA:144,349
DA:145,107
DA:146,242
DA:148,102
DA:151,102
DA:153,102
DA:156,451
DA:158,349
DA:160,1171
DA:162,822
DA:163,822
DA:165,572
DA:166,572
DA:167,572
DA:169,822
DA:170,1284
DA:171,795
DA:173,267
DA:174,267
DA:175,267
DA:176,1171
DA:178,349
DA:179,349
DA:180,102
DA:183,349
DA:185,349
DA:186,349
DA:187,4
DA:190,345
DA:191,345
DA:192,345
DA:193,1167
DA:195,822
DA:196,822
DA:197,822
DA:201,1035
DA:202,1035
DA:203,345
DA:204,822
DA:206,477
DA:207,477
DA:209,477
DA:211,180
DA:212,180
DA:217,297
DA:218,297
DA:219,297
DA:224,987
DA:225,642
DA:226,345
DA:227,345
DA:230,2016
DA:232,2016
DA:233,0
DA:235,0
DA:236,2016
DA:239,14
DA:241,14
DA:245,28
DA:247,28
DA:251,1920
DA:253,1920
DA:255,1920
DA:257,1920
DA:259,1829
DA:260,8345
DA:261,6516
DA:262,13032
DA:265,1920
DA:267,1005
DA:268,670
DA:269,1374
DA:270,3117
DA:271,2078
DA:274,1920
DA:277,1920
DA:279,1920
DA:281,8704
DA:284,6784
DA:286,6516
DA:287,26894
DA:288,40756
DA:292,6784
DA:294,1039
DA:295,2535
DA:296,2992
DA:297,4488
DA:300,1920
DA:303,1920
DA:305,8704
DA:307,85849
DA:308,79065
DA:309,20162
DA:311,26796
DA:312,20012
DA:314,4963
DA:315,4963
DA:318,6784
DA:320,1920
DA:323,3983
DA:325,3983
DA:326,3983
DA:327,24558
DA:328,41150
DA:329,61725
DA:331,24558
DA:332,20575
DA:335,3983
DA:337,12379
DA:339,8396
DA:340,4903
DA:342,8396
DA:343,3753
DA:345,8396
DA:346,227
DA:348,3983
DA:351,20575
DA:356,20575
DA:357,33588
DA:358,19020
DA:360,20575
DA:361,11900
DA:362,8675
DA:363,8052
DA:364,623
DA:365,623
DA:367,0
DA:369,20575
DA:370,8052
DA:372,20575
DA:373,623
DA:375,0
DA:377,0
DA:378,0
DA:379,20575
DA:382,3983
DA:384,3983
DA:386,0
DA:387,0
DA:390,0
DA:392,0
DA:394,0
DA:396,0
DA:397,0
DA:398,0
DA:399,0
DA:400,3983
DA:403,8052
DA:405,8052
DA:406,0
DA:409,8052
DA:410,8052
DA:411,8052
DA:414,623
DA:416,623
DA:417,0
DA:420,623
DA:421,623
DA:422,1246
DA:423,623
DA:424,1246
DA:425,1246
DA:426,623
LF:222
LH:203
end_of_record
TN:
SF:/home/runner/work/neml2/neml2/src/neml2/models/ConstantParameter.cxx
FN:34,_ZN5neml217ConstantParameterINS_3VecEE16expected_optionsEv
FN:34,_ZN5neml217ConstantParameterINS_2R8EE16expected_optionsEv
FN:34,_ZN5neml217ConstantParameterINS_2R2EE16expected_optionsEv
FN:34,_ZN5neml217ConstantParameterINS_6SSSSR8EE16expected_optionsEv
FN:34,_ZN5neml217ConstantParameterINS_3SR2EE16expected_optionsEv
FN:34,_ZN5neml217ConstantParameterINS_3WR2EE16expected_optionsEv
FN:34,_ZN5neml217ConstantParameterINS_10QuaternionEE16expected_optionsEv
FN:34,_ZN5neml217ConstantParameterINS_4SWR4EE16expected_optionsEv
FN:34,_ZN5neml217ConstantParameterINS_5SSFR5EE16expected_optionsEv
FN:34,_ZN5neml217ConstantParameterINS_6ScalarEE16expected_optionsEv
FN:34,_ZN5neml217ConstantParameterINS_2R5EE16expected_optionsEv
FN:34,_ZN5neml217ConstantParameterINS_2R3EE16expected_optionsEv
FN:34,_ZN5neml217ConstantParameterINS_4SFR3EE16expected_optionsEv
FN:34,_ZN5neml217ConstantParameterINS_3RotEE16expected_optionsEv
FN:34,_ZN5neml217ConstantParameterINS_4WWR4EE16expected_optionsEv
FN:34,_ZN5neml217ConstantParameterINS_4SSR4EE16expected_optionsEv
FN:34,_ZN5neml217ConstantParameterINS_2R4EE16expected_optionsEv
FN:34,_ZN5neml217ConstantParameterINS_5SFFR4EE16expected_optionsEv
FN:34,_ZN5neml217ConstantParameterINS_11MillerIndexEE16expected_optionsEv
FN:34,_ZN5neml217ConstantParameterINS_4WSR4EE16expected_optionsEv
FN:46,_ZN5neml217ConstantParameterINS_5SFFR4EEC2ERKNS_9OptionSetE
FN:46,_ZN5neml217ConstantParameterINS_6SSSSR8EEC2ERKNS_9OptionSetE
FN:46,_ZN5neml217ConstantParameterINS_3WR2EEC2ERKNS_9OptionSetE
FN:46,_ZN5neml217ConstantParameterINS_4SSR4EEC2ERKNS_9OptionSetE
FN:46,_ZN5neml217ConstantParameterINS_4SWR4EEC2ERKNS_9OptionSetE
FN:46,_ZN5neml217ConstantParameterINS_4WSR4EEC2ERKNS_9OptionSetE
FN:46,_ZN5neml217ConstantParameterINS_5SSFR5EEC2ERKNS_9OptionSetE
FN:46,_ZN5neml217ConstantParameterINS_2R2EEC2ERKNS_9OptionSetE
FN:46,_ZN5neml217ConstantParameterINS_3RotEEC2ERKNS_9OptionSetE
FN:46,_ZN5neml217ConstantParameterINS_4SFR3EEC2ERKNS_9OptionSetE
FN:46,_ZN5neml217ConstantParameterINS_2R5EEC2ERKNS_9OptionSetE
FN:46,_ZN5neml217ConstantParameterINS_3SR2EEC2ERKNS_9OptionSetE
FN:46,_ZN5neml217ConstantParameterINS_11MillerIndexEEC2ERKNS_9OptionSetE
FN:46,_ZN5neml217ConstantParameterINS_10QuaternionEEC2ERKNS_9OptionSetE
FN:46,_ZN5neml217ConstantParameterINS_2R4EEC2ERKNS_9OptionSetE
FN:46,_ZN5neml217ConstantParameterINS_4WWR4EEC2ERKNS_9OptionSetE
FN:46,_ZN5neml217ConstantParameterINS_2R8EEC2ERKNS_9OptionSetE
FN:46,_ZN5neml217ConstantParameterINS_2R3EEC2ERKNS_9OptionSetE
FN:46,_ZN5neml217ConstantParameterINS_3VecEEC2ERKNS_9OptionSetE
FN:46,_ZN5neml217ConstantParameterINS_6ScalarEEC2ERKNS_9OptionSetE
FN:54,_ZN5neml217ConstantParameterINS_4SSR4EE9set_valueEbbb
FN:54,_ZN5neml217ConstantParameterINS_3RotEE9set_valueEbbb
FN:54,_ZN5neml217ConstantParameterINS_11MillerIndexEE9set_valueEbbb
FN:54,_ZN5neml217ConstantParameterINS_2R5EE9set_valueEbbb
FN:54,_ZN5neml217ConstantParameterINS_5SSFR5EE9set_valueEbbb
FN:54,_ZN5neml217ConstantParameterINS_3WR2EE9set_valueEbbb
FN:54,_ZN5neml217ConstantParameterINS_4SFR3EE9set_valueEbbb
FN:54,_ZN5neml217ConstantParameterINS_6ScalarEE9set_valueEbbb
FN:54,_ZN5neml217ConstantParameterINS_4WSR4EE9set_valueEbbb
FN:54,_ZN5neml217ConstantParameterINS_4WWR4EE9set_valueEbbb
FN:54,_ZN5neml217ConstantParameterINS_6SSSSR8EE9set_valueEbbb
FN:54,_ZN5neml217ConstantParameterINS_3SR2EE9set_valueEbbb
FN:54,_ZN5neml217ConstantParameterINS_2R4EE9set_valueEbbb
FN:54,_ZN5neml217ConstantParameterINS_2R2EE9set_valueEbbb
FN:54,_ZN5neml217ConstantParameterINS_2R3EE9set_valueEbbb
FN:54,_ZN5neml217ConstantParameterINS_2R8EE9set_valueEbbb
FN:54,_ZN5neml217ConstantParameterINS_3VecEE9set_valueEbbb
FN:54,_ZN5neml217ConstantParameterINS_5SFFR4EE9set_valueEbbb
FN:54,_ZN5neml217ConstantParameterINS_4SWR4EE9set_valueEbbb
FN:54,_ZN5neml217ConstantParameterINS_10QuaternionEE9set_valueEbbb
FNDA:6,_ZN5neml217ConstantParameterINS_11MillerIndexEE16expected_optionsEv
FNDA:5,_ZN5neml217ConstantParameterINS_6ScalarEEC2ERKNS_9OptionSetE
FNDA:6,_ZN5neml217ConstantParameterINS_4WSR4EE16expected_optionsEv
FNDA:0,_ZN5neml217ConstantParameterINS_2R3EEC2ERKNS_9OptionSetE
FNDA:6,_ZN5neml217ConstantParameterINS_2R4EE16expected_optionsEv
FNDA:6,_ZN5neml217ConstantParameterINS_5SFFR4EE16expected_optionsEv
FNDA:0,_ZN5neml217ConstantParameterINS_3VecEEC2ERKNS_9OptionSetE
FNDA:0,_ZN5neml217ConstantParameterINS_10QuaternionEE9set_valueEbbb
FNDA:0,_ZN5neml217ConstantParameterINS_2R8EEC2ERKNS_9OptionSetE
FNDA:0,_ZN5neml217ConstantParameterINS_4SWR4EE9set_valueEbbb
FNDA:6,_ZN5neml217ConstantParameterINS_4SSR4EE16expected_optionsEv
FNDA:0,_ZN5neml217ConstantParameterINS_4WWR4EEC2ERKNS_9OptionSetE
FNDA:0,_ZN5neml217ConstantParameterINS_2R4EEC2ERKNS_9OptionSetE
FNDA:0,_ZN5neml217ConstantParameterINS_10QuaternionEEC2ERKNS_9OptionSetE
FNDA:0,_ZN5neml217ConstantParameterINS_11MillerIndexEEC2ERKNS_9OptionSetE
FNDA:6,_ZN5neml217ConstantParameterINS_4WWR4EE16expected_optionsEv
FNDA:0,_ZN5neml217ConstantParameterINS_2R5EEC2ERKNS_9OptionSetE
FNDA:2,_ZN5neml217ConstantParameterINS_3SR2EEC2ERKNS_9OptionSetE
FNDA:6,_ZN5neml217ConstantParameterINS_3RotEE16expected_optionsEv
FNDA:0,_ZN5neml217ConstantParameterINS_5SFFR4EE9set_valueEbbb
FNDA:6,_ZN5neml217ConstantParameterINS_4SFR3EE16expected_optionsEv
FNDA:6,_ZN5neml217ConstantParameterINS_2R3EE16expected_optionsEv
FNDA:0,_ZN5neml217ConstantParameterINS_2R8EE9set_valueEbbb
FNDA:0,_ZN5neml217ConstantParameterINS_2R3EE9set_valueEbbb
FNDA:0,_ZN5neml217ConstantParameterINS_3VecEE9set_valueEbbb
FNDA:0,_ZN5neml217ConstantParameterINS_4SFR3EEC2ERKNS_9OptionSetE
FNDA:0,_ZN5neml217ConstantParameterINS_2R4EE9set_valueEbbb
FNDA:0,_ZN5neml217ConstantParameterINS_2R2EE9set_valueEbbb
FNDA:6,_ZN5neml217ConstantParameterINS_2R5EE16expected_optionsEv
FNDA:6,_ZN5neml217ConstantParameterINS_6ScalarEE16expected_optionsEv
FNDA:6,_ZN5neml217ConstantParameterINS_4SWR4EE16expected_optionsEv
FNDA:27,_ZN5neml217ConstantParameterINS_3SR2EE9set_valueEbbb
FNDA:6,_ZN5neml217ConstantParameterINS_5SSFR5EE16expected_optionsEv
FNDA:0,_ZN5neml217ConstantParameterINS_6SSSSR8EE9set_valueEbbb
FNDA:0,_ZN5neml217ConstantParameterINS_4WWR4EE9set_valueEbbb
FNDA:6,_ZN5neml217ConstantParameterINS_10QuaternionEE16expected_optionsEv
FNDA:0,_ZN5neml217ConstantParameterINS_3RotEEC2ERKNS_9OptionSetE
FNDA:0,_ZN5neml217ConstantParameterINS_5SSFR5EEC2ERKNS_9OptionSetE
FNDA:0,_ZN5neml217ConstantParameterINS_4WSR4EE9set_valueEbbb
FNDA:0,_ZN5neml217ConstantParameterINS_2R2EEC2ERKNS_9OptionSetE
FNDA:6,_ZN5neml217ConstantParameterINS_3WR2EE16expected_optionsEv
FNDA:0,_ZN5neml217ConstantParameterINS_4WSR4EEC2ERKNS_9OptionSetE
FNDA:22,_ZN5neml217ConstantParameterINS_6ScalarEE9set_valueEbbb
FNDA:0,_ZN5neml217ConstantParameterINS_4SFR3EE9set_valueEbbb
FNDA:0,_ZN5neml217ConstantParameterINS_4SSR4EEC2ERKNS_9OptionSetE
FNDA:0,_ZN5neml217ConstantParameterINS_4SWR4EEC2ERKNS_9OptionSetE
FNDA:6,_ZN5neml217ConstantParameterINS_3SR2EE16expected_optionsEv
FNDA:0,_ZN5neml217ConstantParameterINS_3WR2EE9set_valueEbbb
FNDA:6,_ZN5neml217ConstantParameterINS_6SSSSR8EE16expected_optionsEv
FNDA:0,_ZN5neml217ConstantParameterINS_5SSFR5EE9set_valueEbbb
FNDA:0,_ZN5neml217ConstantParameterINS_2R5EE9set_valueEbbb
FNDA:0,_ZN5neml217ConstantParameterINS_3WR2EEC2ERKNS_9OptionSetE
FNDA:6,_ZN5neml217ConstantParameterINS_2R2EE16expected_optionsEv
FNDA:0,_ZN5neml217ConstantParameterINS_6SSSSR8EEC2ERKNS_9OptionSetE
FNDA:0,_ZN5neml217ConstantParameterINS_11MillerIndexEE9set_valueEbbb
FNDA:0,_ZN5neml217ConstantParameterINS_3RotEE9set_valueEbbb
FNDA:0,_ZN5neml217ConstantParameterINS_4SSR4EE9set_valueEbbb
FNDA:6,_ZN5neml217ConstantParameterINS_2R8EE16expected_optionsEv
FNDA:6,_ZN5neml217ConstantParameterINS_3VecEE16expected_optionsEv
FNDA:0,_ZN5neml217ConstantParameterINS_5SFFR4EEC2ERKNS_9OptionSetE
FNF:60
FNH:24
DA:34,120
DA:36,120
DA:37,120
DA:40,120
DA:41,120
DA:42,120
DA:43,0
DA:46,7
DA:48,7
DA:50,7
DA:54,49
DA:56,49
DA:57,37
DA:59,49
DA:60,20
DA:61,0
DA:65,49
LF:17
LH:15
end_of_record
TN:
SF:/home/runner/work/neml2/neml2/src/neml2/models/CopyVariable.cxx
FN:34,_ZN5neml212CopyVariableINS_4WSR4EE16expected_optionsEv
FN:34,_ZN5neml212CopyVariableINS_2R3EE16expected_optionsEv
FN:34,_ZN5neml212CopyVariableINS_10QuaternionEE16expected_optionsEv
FN:34,_ZN5neml212CopyVariableINS_2R5EE16expected_optionsEv
FN:34,_ZN5neml212CopyVariableINS_2R4EE16expected_optionsEv
FN:34,_ZN5neml212CopyVariableINS_4SWR4EE16expected_optionsEv
FN:34,_ZN5neml212CopyVariableINS_2R2EE16expected_optionsEv
FN:34,_ZN5neml212CopyVariableINS_3WR2EE16expected_optionsEv
FN:34,_ZN5neml212CopyVariableINS_5SFFR4EE16expected_optionsEv
FN:34,_ZN5neml212CopyVariableINS_4WWR4EE16expected_optionsEv
FN:34,_ZN5neml212CopyVariableINS_3VecEE16expected_optionsEv
FN:34,_ZN5neml212CopyVariableINS_6SSSSR8EE16expected_optionsEv
FN:34,_ZN5neml212CopyVariableINS_4SFR3EE16expected_optionsEv
FN:34,_ZN5neml212CopyVariableINS_11MillerIndexEE16expected_optionsEv
FN:34,_ZN5neml212CopyVariableINS_2R8EE16expected_optionsEv
FN:34,_ZN5neml212CopyVariableINS_3SR2EE16expected_optionsEv
FN:34,_ZN5neml212CopyVariableINS_3RotEE16expected_optionsEv
FN:34,_ZN5neml212CopyVariableINS_5SSFR5EE16expected_optionsEv
FN:34,_ZN5neml212CopyVariableINS_6ScalarEE16expected_optionsEv
FN:34,_ZN5neml212CopyVariableINS_4SSR4EE16expected_optionsEv
FN:49,_ZN5neml212CopyVariableINS_2R8EEC2ERKNS_9OptionSetE
FN:49,_ZN5neml212CopyVariableINS_4SFR3EEC2ERKNS_9OptionSetE
FN:49,_ZN5neml212CopyVariableINS_6SSSSR8EEC2ERKNS_9OptionSetE
FN:49,_ZN5neml212CopyVariableINS_2R5EEC2ERKNS_9OptionSetE
FN:49,_ZN5neml212CopyVariableINS_11MillerIndexEEC2ERKNS_9OptionSetE
FN:49,_ZN5neml212CopyVariableINS_5SFFR4EEC2ERKNS_9OptionSetE
FN:49,_ZN5neml212CopyVariableINS_4WSR4EEC2ERKNS_9OptionSetE
FN:49,_ZN5neml212CopyVariableINS_10QuaternionEEC2ERKNS_9OptionSetE
FN:49,_ZN5neml212CopyVariableINS_6ScalarEEC2ERKNS_9OptionSetE
FN:49,_ZN5neml212CopyVariableINS_3VecEEC2ERKNS_9OptionSetE
FN:49,_ZN5neml212CopyVariableINS_4SWR4EEC2ERKNS_9OptionSetE
FN:49,_ZN5neml212CopyVariableINS_4SSR4EEC2ERKNS_9OptionSetE
FN:49,_ZN5neml212CopyVariableINS_4WWR4EEC2ERKNS_9OptionSetE
FN:49,_ZN5neml212CopyVariableINS_2R4EEC2ERKNS_9OptionSetE
FN:49,_ZN5neml212CopyVariableINS_3SR2EEC2ERKNS_9OptionSetE
FN:49,_ZN5neml212CopyVariableINS_2R2EEC2ERKNS_9OptionSetE
FN:49,_ZN5neml212CopyVariableINS_5SSFR5EEC2ERKNS_9OptionSetE
FN:49,_ZN5neml212CopyVariableINS_3WR2EEC2ERKNS_9OptionSetE
FN:49,_ZN5neml212CopyVariableINS_3RotEEC2ERKNS_9OptionSetE
FN:49,_ZN5neml212CopyVariableINS_2R3EEC2ERKNS_9OptionSetE
FN:58,_ZN5neml212CopyVariableINS_4WWR4EE9set_valueEbbb
FN:58,_ZN5neml212CopyVariableINS_11MillerIndexEE9set_valueEbbb
FN:58,_ZN5neml212CopyVariableINS_2R4EE9set_valueEbbb
FN:58,_ZN5neml212CopyVariableINS_5SSFR5EE9set_valueEbbb
FN:58,_ZN5neml212CopyVariableINS_6SSSSR8EE9set_valueEbbb
FN:58,_ZN5neml212CopyVariableINS_6ScalarEE9set_valueEbbb
FN:58,_ZN5neml212CopyVariableINS_2R8EE9set_valueEbbb
FN:58,_ZN5neml212CopyVariableINS_2R5EE9set_valueEbbb
FN:58,_ZN5neml212CopyVariableINS_3VecEE9set_valueEbbb
FN:58,_ZN5neml212CopyVariableINS_4SWR4EE9set_valueEbbb
FN:58,_ZN5neml212CopyVariableINS_3RotEE9set_valueEbbb
FN:58,_ZN5neml212CopyVariableINS_2R2EE9set_valueEbbb
FN:58,_ZN5neml212CopyVariableINS_3WR2EE9set_valueEbbb
FN:58,_ZN5neml212CopyVariableINS_4SSR4EE9set_valueEbbb
FN:58,_ZN5neml212CopyVariableINS_2R3EE9set_valueEbbb
FN:58,_ZN5neml212CopyVariableINS_4SFR3EE9set_valueEbbb
FN:58,_ZN5neml212CopyVariableINS_3SR2EE9set_valueEbbb
FN:58,_ZN5neml212CopyVariableINS_4WSR4EE9set_valueEbbb
FN:58,_ZN5neml212CopyVariableINS_10QuaternionEE9set_valueEbbb
FN:58,_ZN5neml212CopyVariableINS_5SFFR4EE9set_valueEbbb
FNDA:6,_ZN5neml212CopyVariableINS_2R4EE16expected_optionsEv
FNDA:6,_ZN5neml212CopyVariableINS_2R5EE16expected_optionsEv
FNDA:0,_ZN5neml212CopyVariableINS_11MillerIndexEE9set_valueEbbb
FNDA:6,_ZN5neml212CopyVariableINS_10QuaternionEE16expected_optionsEv
FNDA:6,_ZN5neml212CopyVariableINS_2R3EE16expected_optionsEv
FNDA:0,_ZN5neml212CopyVariableINS_6SSSSR8EEC2ERKNS_9OptionSetE
FNDA:0,_ZN5neml212CopyVariableINS_2R5EEC2ERKNS_9OptionSetE
FNDA:0,_ZN5neml212CopyVariableINS_4SFR3EEC2ERKNS_9OptionSetE
FNDA:6,_ZN5neml212CopyVariableINS_4WSR4EE16expected_optionsEv
FNDA:0,_ZN5neml212CopyVariableINS_4WWR4EE9set_valueEbbb
FNDA:0,_ZN5neml212CopyVariableINS_2R8EEC2ERKNS_9OptionSetE
FNDA:0,_ZN5neml212CopyVariableINS_6SSSSR8EE9set_valueEbbb
FNDA:6,_ZN5neml212CopyVariableINS_5SFFR4EE16expected_optionsEv
FNDA:6,_ZN5neml212CopyVariableINS_3WR2EE16expected_optionsEv
FNDA:0,_ZN5neml212CopyVariableINS_11MillerIndexEEC2ERKNS_9OptionSetE
FNDA:6,_ZN5neml212CopyVariableINS_2R2EE16expected_optionsEv
FNDA:0,_ZN5neml212CopyVariableINS_5SSFR5EE9set_valueEbbb
FNDA:6,_ZN5neml212CopyVariableINS_4SWR4EE16expected_optionsEv
FNDA:0,_ZN5neml212CopyVariableINS_2R4EE9set_valueEbbb
FNDA:0,_ZN5neml212CopyVariableINS_2R5EE9set_valueEbbb
FNDA:0,_ZN5neml212CopyVariableINS_2R8EE9set_valueEbbb
FNDA:0,_ZN5neml212CopyVariableINS_5SFFR4EEC2ERKNS_9OptionSetE
FNDA:0,_ZN5neml212CopyVariableINS_6ScalarEE9set_valueEbbb
FNDA:0,_ZN5neml212CopyVariableINS_10QuaternionEEC2ERKNS_9OptionSetE
FNDA:0,_ZN5neml212CopyVariableINS_3RotEE9set_valueEbbb
FNDA:6,_ZN5neml212CopyVariableINS_3VecEE16expected_optionsEv
FNDA:0,_ZN5neml212CopyVariableINS_2R2EE9set_valueEbbb
FNDA:0,_ZN5neml212CopyVariableINS_4SWR4EE9set_valueEbbb
FNDA:6,_ZN5neml212CopyVariableINS_4WWR4EE16expected_optionsEv
FNDA:0,_ZN5neml212CopyVariableINS_4WSR4EEC2ERKNS_9OptionSetE
FNDA:0,_ZN5neml212CopyVariableINS_3VecEE9set_valueEbbb
FNDA:0,_ZN5neml212CopyVariableINS_3WR2EE9set_valueEbbb
FNDA:6,_ZN5neml212CopyVariableINS_6SSSSR8EE16expected_optionsEv
FNDA:0,_ZN5neml212CopyVariableINS_4SSR4EEC2ERKNS_9OptionSetE
FNDA:0,_ZN5neml212CopyVariableINS_4SWR4EEC2ERKNS_9OptionSetE
FNDA:0,_ZN5neml212CopyVariableINS_3VecEEC2ERKNS_9OptionSetE
FNDA:3,_ZN5neml212CopyVariableINS_6ScalarEEC2ERKNS_9OptionSetE
FNDA:0,_ZN5neml212CopyVariableINS_2R3EE9set_valueEbbb
FNDA:6,_ZN5neml212CopyVariableINS_3SR2EE16expected_optionsEv
FNDA:0,_ZN5neml212CopyVariableINS_2R4EEC2ERKNS_9OptionSetE
FNDA:0,_ZN5neml212CopyVariableINS_4WWR4EEC2ERKNS_9OptionSetE
FNDA:0,_ZN5neml212CopyVariableINS_4SSR4EE9set_valueEbbb
FNDA:6,_ZN5neml212CopyVariableINS_2R8EE16expected_optionsEv
FNDA:6,_ZN5neml212CopyVariableINS_11MillerIndexEE16expected_optionsEv
FNDA:6,_ZN5neml212CopyVariableINS_4SFR3EE16expected_optionsEv
FNDA:6,_ZN5neml212CopyVariableINS_5SSFR5EE16expected_optionsEv
FNDA:171,_ZN5neml212CopyVariableINS_3SR2EE9set_valueEbbb
FNDA:6,_ZN5neml212CopyVariableINS_3RotEE16expected_optionsEv
FNDA:0,_ZN5neml212CopyVariableINS_3WR2EEC2ERKNS_9OptionSetE
FNDA:0,_ZN5neml212CopyVariableINS_5SSFR5EEC2ERKNS_9OptionSetE
FNDA:0,_ZN5neml212CopyVariableINS_2R2EEC2ERKNS_9OptionSetE
FNDA:0,_ZN5neml212CopyVariableINS_4SFR3EE9set_valueEbbb
FNDA:1,_ZN5neml212CopyVariableINS_3SR2EEC2ERKNS_9OptionSetE
FNDA:0,_ZN5neml212CopyVariableINS_5SFFR4EE9set_valueEbbb
FNDA:0,_ZN5neml212CopyVariableINS_4WSR4EE9set_valueEbbb
FNDA:0,_ZN5neml212CopyVariableINS_2R3EEC2ERKNS_9OptionSetE
FNDA:0,_ZN5neml212CopyVariableINS_10QuaternionEE9set_valueEbbb
FNDA:0,_ZN5neml212CopyVariableINS_3RotEEC2ERKNS_9OptionSetE
FNDA:6,_ZN5neml212CopyVariableINS_4SSR4EE16expected_optionsEv
FNDA:6,_ZN5neml212CopyVariableINS_6ScalarEE16expected_optionsEv
FNF:60
FNH:23
DA:34,120
DA:36,120
DA:37,120
DA:39,120
DA:40,120
DA:42,120
DA:43,120
DA:45,120
DA:46,0
DA:49,4
DA:51,8
DA:52,4
DA:54,4
DA:58,171
DA:60,171
DA:61,171
DA:63,171
DA:64,171
DA:65,81
DA:71,171
LF:20
LH:19
end_of_record
TN:
SF:/home/runner/work/neml2/neml2/src/neml2/models/Data.cxx
FN:30,_ZN5neml24Data16expected_optionsEv
FN:37,_ZN5neml24DataC2ERKNS_9OptionSetE
FNDA:631,_ZN5neml24DataC2ERKNS_9OptionSetE
FNDA:786,_ZN5neml24Data16expected_optionsEv
FNF:2
FNH:2
DA:30,786
DA:32,786
DA:33,786
DA:34,786
DA:35,0
DA:37,631
DA:39,631
DA:41,631
LF:8
LH:7
end_of_record
TN:
SF:/home/runner/work/neml2/neml2/src/neml2/models/ForwardEulerTimeIntegration.cxx
FN:36,_ZN5neml227ForwardEulerTimeIntegrationINS_3SR2EE16expected_optionsEv
FN:36,_ZN5neml227ForwardEulerTimeIntegrationINS_6ScalarEE16expected_optionsEv
FN:36,_ZN5neml227ForwardEulerTimeIntegrationINS_3VecEE16expected_optionsEv
FN:58,_ZN5neml227ForwardEulerTimeIntegrationINS_3VecEEC2ERKNS_9OptionSetE
FN:58,_ZN5neml227ForwardEulerTimeIntegrationINS_6ScalarEEC2ERKNS_9OptionSetE
FN:58,_ZN5neml227ForwardEulerTimeIntegrationINS_3SR2EEC2ERKNS_9OptionSetE
FN:72,_ZNK5neml227ForwardEulerTimeIntegrationINS_6ScalarEE8diagnoseERSt6vectorINS_9DiagnosisESaIS4_EE
FN:72,_ZNK5neml227ForwardEulerTimeIntegrationINS_3VecEE8diagnoseERSt6vectorINS_9DiagnosisESaIS4_EE
FN:72,_ZNK5neml227ForwardEulerTimeIntegrationINS_3SR2EE8diagnoseERSt6vectorINS_9DiagnosisESaIS4_EE
FN:82,_ZN5neml227ForwardEulerTimeIntegrationINS_3SR2EE9set_valueEbbb
FN:82,_ZN5neml227ForwardEulerTimeIntegrationINS_6ScalarEE9set_valueEbbb
FN:82,_ZN5neml227ForwardEulerTimeIntegrationINS_3VecEE9set_valueEbbb
FNDA:3,_ZN5neml227ForwardEulerTimeIntegrationINS_3SR2EEC2ERKNS_9OptionSetE
FNDA:3,_ZNK5neml227ForwardEulerTimeIntegrationINS_3SR2EE8diagnoseERSt6vectorINS_9DiagnosisESaIS4_EE
FNDA:0,_ZN5neml227ForwardEulerTimeIntegrationINS_3VecEE9set_valueEbbb
FNDA:24,_ZN5neml227ForwardEulerTimeIntegrationINS_6ScalarEE9set_valueEbbb
FNDA:6,_ZN5neml227ForwardEulerTimeIntegrationINS_3VecEE16expected_optionsEv
FNDA:2,_ZN5neml227ForwardEulerTimeIntegrationINS_6ScalarEEC2ERKNS_9OptionSetE
FNDA:0,_ZNK5neml227ForwardEulerTimeIntegrationINS_3VecEE8diagnoseERSt6vectorINS_9DiagnosisESaIS4_EE
FNDA:6,_ZN5neml227ForwardEulerTimeIntegrationINS_6ScalarEE16expected_optionsEv
FNDA:0,_ZN5neml227ForwardEulerTimeIntegrationINS_3VecEEC2ERKNS_9OptionSetE
FNDA:27,_ZN5neml227ForwardEulerTimeIntegrationINS_3SR2EE9set_valueEbbb
FNDA:6,_ZN5neml227ForwardEulerTimeIntegrationINS_3SR2EE16expected_optionsEv
FNDA:0,_ZNK5neml227ForwardEulerTimeIntegrationINS_6ScalarEE8diagnoseERSt6vectorINS_9DiagnosisESaIS4_EE
FNF:12
FNH:8
DA:36,18
DA:38,18
DA:39,18
DA:45,18
DA:46,18
DA:48,18
DA:49,18
DA:51,18
DA:52,18
DA:54,18
DA:55,0
DA:58,5
DA:60,5
DA:61,5
DA:62,10
DA:63,5
DA:64,0
DA:65,5
DA:66,10
DA:68,5
DA:72,3
DA:74,3
DA:75,3
DA:76,3
DA:77,3
DA:78,3
DA:82,51
DA:84,51
DA:86,51
DA:87,49
DA:89,51
DA:91,4
DA:93,4
DA:95,4
DA:96,0
DA:98,4
DA:99,4
DA:100,4
DA:101,4
LF:39
LH:36
end_of_record
TN:
SF:/home/runner/work/neml2/neml2/src/neml2/models/ImplicitUpdate.cxx
FN:34,_ZN5neml214ImplicitUpdate16expected_optionsEv
FN:50,_ZN5neml214ImplicitUpdateC2ERKNS_9OptionSetE
FN:75,_ZNK5neml214ImplicitUpdate8diagnoseERSt6vectorINS_9DiagnosisESaIS2_EE
FN:101,_ZNK5neml214ImplicitUpdate19check_AD_limitationEv
FN:109,_ZN5neml214ImplicitUpdate18setup_output_viewsEv
FN:127,_ZN5neml214ImplicitUpdate9set_valueEbbb
FNDA:81,_ZN5neml214ImplicitUpdate18setup_output_viewsEv
FNDA:83,_ZNK5neml214ImplicitUpdate19check_AD_limitationEv
FNDA:12,_ZN5neml214ImplicitUpdateC2ERKNS_9OptionSetE
FNDA:142,_ZN5neml214ImplicitUpdate9set_valueEbbb
FNDA:5,_ZNK5neml214ImplicitUpdate8diagnoseERSt6vectorINS_9DiagnosisESaIS2_EE
FNDA:6,_ZN5neml214ImplicitUpdate16expected_optionsEv
FNF:6
FNH:6
DA:34,6
DA:36,6
DA:37,6
DA:38,6
DA:40,6
DA:41,12
DA:42,6
DA:44,6
DA:45,6
DA:47,6
DA:48,0
DA:50,12
DA:52,12
DA:55,24
DA:57,12
DA:59,12
DA:61,12
DA:68,43
DA:69,31
DA:70,62
DA:71,74
DA:72,12
DA:75,5
DA:77,5
DA:78,10
DA:79,5
DA:81,5
DA:82,5
DA:83,5
DA:85,5
DA:86,10
DA:87,5
DA:89,5
DA:90,15
DA:92,5
DA:95,5
DA:97,5
DA:98,5
DA:101,83
DA:103,83
DA:106,83
DA:109,81
DA:111,81
DA:113,81
DA:115,64
DA:116,192
DA:117,64
DA:118,192
DA:119,64
DA:120,192
DA:121,64
DA:122,0
DA:124,81
DA:127,142
DA:129,142
DA:132,142
DA:133,142
DA:134,142
DA:135,0
DA:139,142
DA:142,142
DA:146,142
DA:147,142
DA:148,142
DA:149,142
DA:150,142
DA:152,142
DA:153,140
DA:156,142
DA:159,8
DA:160,8
DA:161,8
DA:164,8
DA:165,8
DA:166,16
DA:167,8
DA:168,16
DA:169,8
DA:170,16
DA:171,8
DA:172,0
DA:173,8
DA:174,142
LF:83
LH:79
end_of_record
TN:
SF:/home/runner/work/neml2/neml2/src/neml2/models/InputParameter.cxx
FN:34,_ZN5neml214InputParameterINS_4SFR3EE16expected_optionsEv
FN:34,_ZN5neml214InputParameterINS_4SWR4EE16expected_optionsEv
FN:34,_ZN5neml214InputParameterINS_10QuaternionEE16expected_optionsEv
FN:34,_ZN5neml214InputParameterINS_11MillerIndexEE16expected_optionsEv
FN:34,_ZN5neml214InputParameterINS_3VecEE16expected_optionsEv
FN:34,_ZN5neml214InputParameterINS_3RotEE16expected_optionsEv
FN:34,_ZN5neml214InputParameterINS_5SSFR5EE16expected_optionsEv
FN:34,_ZN5neml214InputParameterINS_3SR2EE16expected_optionsEv
FN:34,_ZN5neml214InputParameterINS_4SSR4EE16expected_optionsEv
FN:34,_ZN5neml214InputParameterINS_2R3EE16expected_optionsEv
FN:34,_ZN5neml214InputParameterINS_4WSR4EE16expected_optionsEv
FN:34,_ZN5neml214InputParameterINS_2R8EE16expected_optionsEv
FN:34,_ZN5neml214InputParameterINS_6SSSSR8EE16expected_optionsEv
FN:34,_ZN5neml214InputParameterINS_2R4EE16expected_optionsEv
FN:34,_ZN5neml214InputParameterINS_3WR2EE16expected_optionsEv
FN:34,_ZN5neml214InputParameterINS_5SFFR4EE16expected_optionsEv
FN:34,_ZN5neml214InputParameterINS_2R2EE16expected_optionsEv
FN:34,_ZN5neml214InputParameterINS_2R5EE16expected_optionsEv
FN:34,_ZN5neml214InputParameterINS_4WWR4EE16expected_optionsEv
FN:34,_ZN5neml214InputParameterINS_6ScalarEE16expected_optionsEv
FN:45,_ZN5neml214InputParameterINS_4SSR4EEC2ERKNS_9OptionSetE
FN:45,_ZN5neml214InputParameterINS_4SFR3EEC2ERKNS_9OptionSetE
FN:45,_ZN5neml214InputParameterINS_4SWR4EEC2ERKNS_9OptionSetE
FN:45,_ZN5neml214InputParameterINS_6ScalarEEC2ERKNS_9OptionSetE
FN:45,_ZN5neml214InputParameterINS_3WR2EEC2ERKNS_9OptionSetE
FN:45,_ZN5neml214InputParameterINS_2R3EEC2ERKNS_9OptionSetE
FN:45,_ZN5neml214InputParameterINS_5SSFR5EEC2ERKNS_9OptionSetE
FN:45,_ZN5neml214InputParameterINS_2R5EEC2ERKNS_9OptionSetE
FN:45,_ZN5neml214InputParameterINS_2R4EEC2ERKNS_9OptionSetE
FN:45,_ZN5neml214InputParameterINS_11MillerIndexEEC2ERKNS_9OptionSetE
FN:45,_ZN5neml214InputParameterINS_4WWR4EEC2ERKNS_9OptionSetE
FN:45,_ZN5neml214InputParameterINS_4WSR4EEC2ERKNS_9OptionSetE
FN:45,_ZN5neml214InputParameterINS_3VecEEC2ERKNS_9OptionSetE
FN:45,_ZN5neml214InputParameterINS_3SR2EEC2ERKNS_9OptionSetE
FN:45,_ZN5neml214InputParameterINS_10QuaternionEEC2ERKNS_9OptionSetE
FN:45,_ZN5neml214InputParameterINS_2R8EEC2ERKNS_9OptionSetE
FN:45,_ZN5neml214InputParameterINS_3RotEEC2ERKNS_9OptionSetE
FN:45,_ZN5neml214InputParameterINS_5SFFR4EEC2ERKNS_9OptionSetE
FN:45,_ZN5neml214InputParameterINS_6SSSSR8EEC2ERKNS_9OptionSetE
FN:45,_ZN5neml214InputParameterINS_2R2EEC2ERKNS_9OptionSetE
FN:58,_ZN5neml214InputParameterINS_3WR2EE9set_valueEbbb
FN:58,_ZN5neml214InputParameterINS_4SFR3EE9set_valueEbbb
FN:58,_ZN5neml214InputParameterINS_2R2EE9set_valueEbbb
FN:58,_ZN5neml214InputParameterINS_3SR2EE9set_valueEbbb
FN:58,_ZN5neml214InputParameterINS_2R5EE9set_valueEbbb
FN:58,_ZN5neml214InputParameterINS_4WWR4EE9set_valueEbbb
FN:58,_ZN5neml214InputParameterINS_5SFFR4EE9set_valueEbbb
FN:58,_ZN5neml214InputParameterINS_11MillerIndexEE9set_valueEbbb
FN:58,_ZN5neml214InputParameterINS_4WSR4EE9set_valueEbbb
FN:58,_ZN5neml214InputParameterINS_2R4EE9set_valueEbbb
FN:58,_ZN5neml214InputParameterINS_4SWR4EE9set_valueEbbb
FN:58,_ZN5neml214InputParameterINS_6ScalarEE9set_valueEbbb
FN:58,_ZN5neml214InputParameterINS_4SSR4EE9set_valueEbbb
FN:58,_ZN5neml214InputParameterINS_3VecEE9set_valueEbbb
FN:58,_ZN5neml214InputParameterINS_2R3EE9set_valueEbbb
FN:58,_ZN5neml214InputParameterINS_10QuaternionEE9set_valueEbbb
FN:58,_ZN5neml214InputParameterINS_5SSFR5EE9set_valueEbbb
FN:58,_ZN5neml214InputParameterINS_2R8EE9set_valueEbbb
FN:58,_ZN5neml214InputParameterINS_3RotEE9set_valueEbbb
FN:58,_ZN5neml214InputParameterINS_6SSSSR8EE9set_valueEbbb
FNDA:96,_ZN5neml214InputParameterINS_6ScalarEEC2ERKNS_9OptionSetE
FNDA:0,_ZN5neml214InputParameterINS_4SWR4EEC2ERKNS_9OptionSetE
FNDA:6,_ZN5neml214InputParameterINS_10QuaternionEE16expected_optionsEv
FNDA:0,_ZN5neml214InputParameterINS_3WR2EEC2ERKNS_9OptionSetE
FNDA:0,_ZN5neml214InputParameterINS_4SFR3EEC2ERKNS_9OptionSetE
FNDA:4,_ZN5neml214InputParameterINS_4SSR4EEC2ERKNS_9OptionSetE
FNDA:6,_ZN5neml214InputParameterINS_4SFR3EE16expected_optionsEv
FNDA:0,_ZN5neml214InputParameterINS_3WR2EE9set_valueEbbb
FNDA:0,_ZN5neml214InputParameterINS_2R2EE9set_valueEbbb
FNDA:6,_ZN5neml214InputParameterINS_4SWR4EE16expected_optionsEv
FNDA:0,_ZN5neml214InputParameterINS_4SFR3EE9set_valueEbbb
FNDA:6,_ZN5neml214InputParameterINS_11MillerIndexEE16expected_optionsEv
FNDA:6,_ZN5neml214InputParameterINS_3RotEE16expected_optionsEv
FNDA:0,_ZN5neml214InputParameterINS_5SSFR5EEC2ERKNS_9OptionSetE
FNDA:6,_ZN5neml214InputParameterINS_3VecEE16expected_optionsEv
FNDA:0,_ZN5neml214InputParameterINS_11MillerIndexEE9set_valueEbbb
FNDA:0,_ZN5neml214InputParameterINS_4WSR4EE9set_valueEbbb
FNDA:0,_ZN5neml214InputParameterINS_2R5EE9set_valueEbbb
FNDA:0,_ZN5neml214InputParameterINS_3SR2EE9set_valueEbbb
FNDA:0,_ZN5neml214InputParameterINS_2R3EEC2ERKNS_9OptionSetE
FNDA:0,_ZN5neml214InputParameterINS_5SFFR4EE9set_valueEbbb
FNDA:0,_ZN5neml214InputParameterINS_4WWR4EE9set_valueEbbb
FNDA:0,_ZN5neml214InputParameterINS_3VecEEC2ERKNS_9OptionSetE
FNDA:0,_ZN5neml214InputParameterINS_4WSR4EEC2ERKNS_9OptionSetE
FNDA:0,_ZN5neml214InputParameterINS_4WWR4EEC2ERKNS_9OptionSetE
FNDA:0,_ZN5neml214InputParameterINS_11MillerIndexEEC2ERKNS_9OptionSetE
FNDA:6,_ZN5neml214InputParameterINS_4SSR4EE16expected_optionsEv
FNDA:0,_ZN5neml214InputParameterINS_2R4EE9set_valueEbbb
FNDA:0,_ZN5neml214InputParameterINS_2R5EEC2ERKNS_9OptionSetE
FNDA:6,_ZN5neml214InputParameterINS_3SR2EE16expected_optionsEv
FNDA:6,_ZN5neml214InputParameterINS_5SSFR5EE16expected_optionsEv
FNDA:0,_ZN5neml214InputParameterINS_2R4EEC2ERKNS_9OptionSetE
FNDA:198,_ZN5neml214InputParameterINS_4SSR4EE9set_valueEbbb
FNDA:0,_ZN5neml214InputParameterINS_10QuaternionEEC2ERKNS_9OptionSetE
FNDA:0,_ZN5neml214InputParameterINS_4SWR4EE9set_valueEbbb
FNDA:1246,_ZN5neml214InputParameterINS_6ScalarEE9set_valueEbbb
FNDA:6,_ZN5neml214InputParameterINS_2R3EE16expected_optionsEv
FNDA:0,_ZN5neml214InputParameterINS_3SR2EEC2ERKNS_9OptionSetE
FNDA:6,_ZN5neml214InputParameterINS_2R4EE16expected_optionsEv
FNDA:0,_ZN5neml214InputParameterINS_10QuaternionEE9set_valueEbbb
FNDA:0,_ZN5neml214InputParameterINS_2R3EE9set_valueEbbb
FNDA:6,_ZN5neml214InputParameterINS_2R8EE16expected_optionsEv
FNDA:6,_ZN5neml214InputParameterINS_4WSR4EE16expected_optionsEv
FNDA:6,_ZN5neml214InputParameterINS_6SSSSR8EE16expected_optionsEv
FNDA:0,_ZN5neml214InputParameterINS_2R8EEC2ERKNS_9OptionSetE
FNDA:0,_ZN5neml214InputParameterINS_3VecEE9set_valueEbbb
FNDA:6,_ZN5neml214InputParameterINS_5SFFR4EE16expected_optionsEv
FNDA:0,_ZN5neml214InputParameterINS_3RotEEC2ERKNS_9OptionSetE
FNDA:6,_ZN5neml214InputParameterINS_3WR2EE16expected_optionsEv
FNDA:6,_ZN5neml214InputParameterINS_6ScalarEE16expected_optionsEv
FNDA:0,_ZN5neml214InputParameterINS_2R2EEC2ERKNS_9OptionSetE
FNDA:0,_ZN5neml214InputParameterINS_6SSSSR8EE9set_valueEbbb
FNDA:0,_ZN5neml214InputParameterINS_2R8EE9set_valueEbbb
FNDA:0,_ZN5neml214InputParameterINS_6SSSSR8EEC2ERKNS_9OptionSetE
FNDA:0,_ZN5neml214InputParameterINS_5SFFR4EEC2ERKNS_9OptionSetE
FNDA:0,_ZN5neml214InputParameterINS_5SSFR5EE9set_valueEbbb
FNDA:6,_ZN5neml214InputParameterINS_2R5EE16expected_optionsEv
FNDA:6,_ZN5neml214InputParameterINS_2R2EE16expected_optionsEv
FNDA:6,_ZN5neml214InputParameterINS_4WWR4EE16expected_optionsEv
FNDA:0,_ZN5neml214InputParameterINS_3RotEE9set_valueEbbb
FNF:60
FNH:24
DA:34,120
DA:36,120
DA:37,120
DA:39,120
DA:40,120
DA:41,120
DA:42,0
DA:45,100
DA:47,100
DA:49,100
DA:52,100
DA:54,100
DA:58,1444
DA:60,1444
DA:61,1444
DA:63,1444
DA:64,460
DA:65,460
DA:69,1444
LF:19
LH:18
end_of_record
TN:
SF:/home/runner/work/neml2/neml2/src/neml2/models/LinearCombination.cxx
FN:37,_ZN5neml217LinearCombinationINS_3VecEE16expected_optionsEv
FN:37,_ZN5neml217LinearCombinationINS_6ScalarEE16expected_optionsEv
FN:37,_ZN5neml217LinearCombinationINS_3SR2EE16expected_optionsEv
FN:66,_ZN5neml217LinearCombinationINS_6ScalarEEC2ERKNS_9OptionSetE
FN:66,_ZN5neml217LinearCombinationINS_3SR2EEC2ERKNS_9OptionSetE
FN:66,_ZN5neml217LinearCombinationINS_3VecEEC2ERKNS_9OptionSetE
FN:79,_ZNK5neml217LinearCombinationINS_6ScalarEE9make_coefERKNS_9OptionSetE
FN:79,_ZNK5neml217LinearCombinationINS_3SR2EE9make_coefERKNS_9OptionSetE
FN:79,_ZNK5neml217LinearCombinationINS_3VecEE9make_coefERKNS_9OptionSetE
FN:88,_ZN5neml217LinearCombinationINS_6ScalarEE9set_valueEbbb
FN:88,_ZN5neml217LinearCombinationINS_3SR2EE9set_valueEbbb
FN:88,_ZN5neml217LinearCombinationINS_3VecEE9set_valueEbbb
FNDA:0,_ZN5neml217LinearCombinationINS_3VecEEC2ERKNS_9OptionSetE
FNDA:0,_ZNK5neml217LinearCombinationINS_3VecEE9make_coefERKNS_9OptionSetE
FNDA:6,_ZN5neml217LinearCombinationINS_3SR2EE16expected_optionsEv
FNDA:0,_ZN5neml217LinearCombinationINS_3VecEE9set_valueEbbb
FNDA:14,_ZN5neml217LinearCombinationINS_3SR2EEC2ERKNS_9OptionSetE
FNDA:1065,_ZN5neml217LinearCombinationINS_3SR2EE9set_valueEbbb
FNDA:158,_ZN5neml217LinearCombinationINS_6ScalarEE9set_valueEbbb
FNDA:8,_ZN5neml217LinearCombinationINS_6ScalarEE16expected_optionsEv
FNDA:14,_ZNK5neml217LinearCombinationINS_3SR2EE9make_coefERKNS_9OptionSetE
FNDA:14,_ZN5neml217LinearCombinationINS_6ScalarEEC2ERKNS_9OptionSetE
FNDA:6,_ZN5neml217LinearCombinationINS_3VecEE16expected_optionsEv
FNDA:14,_ZNK5neml217LinearCombinationINS_6ScalarEE9make_coefERKNS_9OptionSetE
FNF:12
FNH:9
DA:37,20
DA:41,20
DA:43,20
DA:44,20
DA:48,20
DA:49,20
DA:51,20
DA:52,20
DA:54,40
DA:55,20
DA:57,20
DA:58,20
DA:62,40
DA:63,20
DA:66,28
DA:68,56
DA:69,28
DA:70,56
DA:71,56
DA:73,89
DA:74,61
DA:75,28
DA:79,28
DA:81,56
DA:82,28
DA:83,56
DA:84,28
DA:88,1223
DA:90,1223
DA:92,1223
DA:94,1219
DA:95,3710
DA:96,2491
DA:98,1219
DA:99,1219
DA:101,1223
DA:103,1238
DA:104,1861
DA:105,1242
DA:106,3516
DA:107,619
DA:113,1223
LF:42
LH:42
end_of_record
TN:
SF:/home/runner/work/neml2/neml2/src/neml2/models/LinearInterpolation.cxx
FN:36,_ZN5neml219LinearInterpolationINS_3SR2EE16expected_optionsEv
FN:36,_ZN5neml219LinearInterpolationINS_3VecEE16expected_optionsEv
FN:36,_ZN5neml219LinearInterpolationINS_6ScalarEE16expected_optionsEv
FN:44,_ZN5neml219LinearInterpolationINS_3VecEEC2ERKNS_9OptionSetE
FN:44,_ZN5neml219LinearInterpolationINS_3SR2EEC2ERKNS_9OptionSetE
FN:44,_ZN5neml219LinearInterpolationINS_6ScalarEEC2ERKNS_9OptionSetE
FN:51,_ZN5neml219LinearInterpolationINS_3SR2EE9set_valueEbbb
FN:51,_ZN5neml219LinearInterpolationINS_3VecEE9set_valueEbbb
FN:51,_ZN5neml219LinearInterpolationINS_6ScalarEE9set_valueEbbb
FNDA:6,_ZN5neml219LinearInterpolationINS_6ScalarEE16expected_optionsEv
FNDA:10,_ZN5neml219LinearInterpolationINS_6ScalarEEC2ERKNS_9OptionSetE
FNDA:140,_ZN5neml219LinearInterpolationINS_6ScalarEE9set_valueEbbb
FNDA:6,_ZN5neml219LinearInterpolationINS_3SR2EE16expected_optionsEv
FNDA:96,_ZN5neml219LinearInterpolationINS_3SR2EE9set_valueEbbb
FNDA:0,_ZN5neml219LinearInterpolationINS_3VecEE9set_valueEbbb
FNDA:0,_ZN5neml219LinearInterpolationINS_3VecEEC2ERKNS_9OptionSetE
FNDA:6,_ZN5neml219LinearInterpolationINS_3VecEE16expected_optionsEv
FNDA:8,_ZN5neml219LinearInterpolationINS_3SR2EEC2ERKNS_9OptionSetE
FNF:9
FNH:7
DA:36,18
DA:38,18
DA:39,18
DA:40,18
DA:41,0
DA:44,18
DA:45,18
DA:47,18
DA:51,236
DA:53,944
DA:54,944
DA:55,944
DA:56,472
DA:57,236
DA:59,236
DA:60,472
DA:62,236
DA:64,236
DA:66,188
DA:67,188
DA:68,188
DA:69,188
DA:71,236
DA:72,122
DA:73,122
DA:79,236
LF:26
LH:25
end_of_record
TN:
SF:/home/runner/work/neml2/neml2/src/neml2/models/Model.cxx
FN:31,_ZN5neml25Model16expected_optionsEv
FN:54,_ZN5neml25ModelC2ERKNS_9OptionSetE
FN:75,_ZNK5neml25Model8diagnoseERSt6vectorINS_9DiagnosisESaIS2_EE
FN:101,_ZNK5neml25Model15diagnose_nl_sysERSt6vectorINS_9DiagnosisESaIS2_EE
FN:126,_ZN5neml25Model5setupEv
FN:133,_ZNK5neml25Model19get_system_matricesEv
FN:140,_ZN5neml25Model6reinitERKNS_6TensorEi
FN:146,_ZN5neml25Model6reinitEN3c108ArrayRefIlEEiRKNS1_6DeviceERKNS1_10ScalarTypeE
FN:165,_ZN5neml25Model6reinitEbb
FN:177,_ZN5neml25Model7prepareEv
FN:186,_ZN5neml25Model18allocate_variablesEbb
FN:212,_ZN5neml25Model17setup_input_viewsEPNS_13VariableStoreE
FN:219,_ZN5neml25Model26setup_submodel_input_viewsEPNS_13VariableStoreE
FN:230,_ZN5neml25Model18setup_output_viewsEv
FN:251,_ZN5neml25Model27setup_submodel_output_viewsEv
FN:258,_ZN5neml25Model22setup_nonlinear_systemEv
FN:272,_ZN5neml25Model4zeroEv
FN:281,_ZN5neml25Model12set_solutionERKNS_6TensorE
FN:291,_ZN5neml25Model5cacheEN3c108ArrayRefIlEEiRKNS1_6DeviceERKNS1_10ScalarTypeE
FN:314,_ZNK5neml25Model19check_AD_limitationEv
FN:323,_ZN5neml25Model20input_requires_grad_Eb
FN:330,_ZN5neml25Model18use_AD_derivativesEbb
FN:338,_ZNK5neml25Model11check_inputERKNS_13LabeledVectorE
FN:357,_ZN5neml25Model9set_inputERKNS_13LabeledVectorE
FN:368,_ZN5neml25Model10get_outputEv
FN:374,_ZN5neml25Model18get_doutput_dinputEv
FN:380,_ZN5neml25Model20get_d2output_dinput2Ev
FN:386,_ZN5neml25Model5valueERKNS_13LabeledVectorE
FN:397,_ZN5neml25Model16value_and_dvalueERKNS_13LabeledVectorE
FN:408,_ZN5neml25Model6dvalueERKNS_13LabeledVectorE
FN:419,_ZN5neml25Model28value_and_dvalue_and_d2valueERKNS_13LabeledVectorE
FN:430,_ZN5neml25Model18dvalue_and_d2valueERKNS_13LabeledVectorE
FN:441,_ZN5neml25Model7d2valueERKNS_13LabeledVectorE
FN:452,_ZN5neml25Model5valueEv
FN:462,_ZN5neml25Model16value_and_dvalueEv
FN:484,_ZN5neml25Model6dvalueEv
FN:506,_ZN5neml25Model28value_and_dvalue_and_d2valueEv
FN:538,_ZN5neml25Model18dvalue_and_d2valueEv
FN:570,_ZN5neml25Model7d2valueEv
FN:601,_ZN5neml25Model17check_inplace_dbgEv
FN:615,_ZNK5neml25Model16registered_modelERKSs
FN:626,_ZNK5neml25Model14consumed_itemsEv
FN:632,_ZNK5neml25Model14provided_itemsEv
FN:638,_ZN5neml25Model8assembleEbb
FN:651,_ZN5neml25Model19extract_derivativesEbbb
FN:679,_ZN5neml25Model26extract_second_derivativesEbbb
FNDA:990,_ZN5neml25Model18get_doutput_dinputEv
FNDA:15794,_ZN5neml25Model5valueEv
FNDA:10567,_ZN5neml25Model22setup_nonlinear_systemEv
FNDA:72,_ZNK5neml25Model15diagnose_nl_sysERSt6vectorINS_9DiagnosisESaIS2_EE
FNDA:5975,_ZN5neml25Model7prepareEv
FNDA:133,_ZN5neml25Model19extract_derivativesEbbb
FNDA:8636,_ZN5neml25Model16value_and_dvalueEv
FNDA:224,_ZN5neml25Model18dvalue_and_d2valueEv
FNDA:591,_ZN5neml25ModelC2ERKNS_9OptionSetE
FNDA:8,_ZNK5neml25Model19get_system_matricesEv
FNDA:3299,_ZN5neml25Model10get_outputEv
FNDA:10567,_ZN5neml25Model18setup_output_viewsEv
FNDA:10567,_ZN5neml25Model27setup_submodel_output_viewsEv
FNDA:69,_ZN5neml25Model7d2valueERKNS_13LabeledVectorE
FNDA:69,_ZN5neml25Model28value_and_dvalue_and_d2valueERKNS_13LabeledVectorE
FNDA:337,_ZN5neml25Model18use_AD_derivativesEbb
FNDA:207,_ZN5neml25Model20get_d2output_dinput2Ev
FNDA:69,_ZN5neml25Model18dvalue_and_d2valueERKNS_13LabeledVectorE
FNDA:3707,_ZNK5neml25Model11check_inputERKNS_13LabeledVectorE
FNDA:2262,_ZN5neml25Model8assembleEbb
FNDA:1106,_ZN5neml25Model12set_solutionERKNS_6TensorE
FNDA:584,_ZN5neml25Model16value_and_dvalueERKNS_13LabeledVectorE
FNDA:8647,_ZN5neml25Model26setup_submodel_input_viewsEPNS_13VariableStoreE
FNDA:1501,_ZN5neml25Model6dvalueEv
FNDA:774,_ZN5neml25Model16expected_optionsEv
FNDA:2648,_ZN5neml25Model5valueERKNS_13LabeledVectorE
FNDA:1146,_ZN5neml25Model5cacheEN3c108ArrayRefIlEEiRKNS1_6DeviceERKNS1_10ScalarTypeE
FNDA:3672,_ZN5neml25Model17setup_input_viewsEPNS_13VariableStoreE
FNDA:97,_ZNK5neml25Model8diagnoseERSt6vectorINS_9DiagnosisESaIS2_EE
FNDA:18646,_ZN5neml25Model4zeroEv
FNDA:3705,_ZN5neml25Model9set_inputERKNS_13LabeledVectorE
FNDA:692,_ZN5neml25Model28value_and_dvalue_and_d2valueEv
FNDA:0,_ZNK5neml25Model16registered_modelERKSs
FNDA:10567,_ZN5neml25Model18allocate_variablesEbb
FNDA:26916,_ZN5neml25Model17check_inplace_dbgEv
FNDA:591,_ZN5neml25Model5setupEv
FNDA:268,_ZN5neml25Model6dvalueERKNS_13LabeledVectorE
FNDA:443,_ZN5neml25Model6reinitEN3c108ArrayRefIlEEiRKNS1_6DeviceERKNS1_10ScalarTypeE
FNDA:3672,_ZN5neml25Model6reinitEbb
FNDA:349,_ZNK5neml25Model14provided_itemsEv
FNDA:3,_ZN5neml25Model26extract_second_derivativesEbbb
FNDA:69,_ZN5neml25Model7d2valueEv
FNDA:133,_ZN5neml25Model20input_requires_grad_Eb
FNDA:8805,_ZNK5neml25Model19check_AD_limitationEv
FNDA:206,_ZN5neml25Model6reinitERKNS_6TensorEi
FNDA:349,_ZNK5neml25Model14consumed_itemsEv
FNF:46
FNH:45
DA:31,774
DA:33,774
DA:34,774
DA:35,774
DA:37,774
DA:39,774
DA:40,774
DA:41,774
DA:42,774
DA:43,774
DA:45,774
DA:46,774
DA:47,774
DA:48,774
DA:49,774
DA:51,774
DA:52,0
DA:54,591
DA:60,591
DA:61,591
DA:62,591
DA:63,591
DA:64,591
DA:65,591
DA:66,591
DA:69,1182
DA:72,591
DA:75,97
DA:77,183
DA:78,86
DA:81,397
DA:82,300
DA:83,215
DA:84,118
DA:86,97
DA:87,5
DA:90,97
DA:91,11
DA:92,24
DA:93,30
DA:94,15
DA:97,24
DA:98,97
DA:101,72
DA:103,139
DA:104,67
DA:107,72
DA:108,253
DA:109,181
DA:110,181
DA:113,72
DA:114,145
DA:115,76
DA:117,76
DA:122,76
DA:123,72
DA:126,591
DA:129,591
DA:130,591
DA:133,8
DA:135,8
DA:136,8
DA:140,206
DA:142,206
DA:143,206
DA:146,443
DA:151,443
DA:154,443
DA:157,443
DA:158,443
DA:161,443
DA:162,443
DA:165,3672
DA:168,3672
DA:171,3672
DA:172,3672
DA:173,3672
DA:174,3672
DA:177,5975
DA:179,5975
DA:180,2746
DA:182,3229
DA:183,5975
DA:186,10567
DA:189,10567
DA:192,10567
DA:194,10567
DA:198,10567
DA:199,10567
DA:201,10567
DA:203,21
DA:204,21
DA:207,17462
DA:208,6895
DA:209,10567
DA:212,3672
DA:214,3672
DA:215,3672
DA:216,3672
DA:219,8647
DA:221,8758
DA:223,912
DA:224,801
DA:225,111
DA:227,8647
DA:230,10567
DA:232,10567
DA:233,10567
DA:235,10567
DA:237,1045
DA:238,3135
DA:239,1045
DA:240,3132
DA:241,1045
DA:242,3132
DA:243,1045
DA:244,3132
DA:245,1045
DA:246,0
DA:248,10567
DA:251,10567
DA:253,17462
DA:254,6895
DA:255,10567
DA:258,10567
DA:260,10567
DA:262,2090
DA:263,1045
DA:264,3135
DA:267,17462
DA:268,6895
DA:269,10567
DA:272,18646
DA:274,18646
DA:276,34546
DA:277,15900
DA:278,18646
DA:281,1106
DA:283,1106
DA:286,1106
DA:287,1106
DA:288,1106
DA:291,1146
DA:296,1146
DA:297,1146
DA:299,1146
DA:302,1146
DA:303,21
DA:305,1146
DA:307,1146
DA:309,1849
DA:310,703
DA:311,1146
DA:314,8805
DA:316,8805
DA:317,0
DA:318,8805
DA:319,867
DA:320,8805
DA:323,133
DA:325,402
DA:326,269
DA:327,133
DA:330,337
DA:332,337
DA:333,337
DA:334,337
DA:335,337
DA:338,3707
DA:340,3707
DA:342,3708
DA:344,3708
DA:347,3706
DA:349,3707
DA:351,3706
DA:354,3705
DA:357,3705
DA:359,3705
DA:364,3705
DA:365,3705
DA:368,3299
DA:370,3299
DA:374,990
DA:376,990
DA:380,207
DA:382,207
DA:386,2648
DA:388,2648
DA:389,2646
DA:390,2646
DA:392,2646
DA:393,2646
DA:397,584
DA:399,584
DA:400,584
DA:401,584
DA:403,584
DA:404,584
DA:408,268
DA:410,268
DA:411,268
DA:412,268
DA:414,268
DA:415,268
DA:419,69
DA:421,69
DA:422,69
DA:423,69
DA:425,69
DA:426,69
DA:430,69
DA:432,69
DA:433,69
DA:434,69
DA:436,69
DA:437,69
DA:441,69
DA:443,69
DA:444,69
DA:445,69
DA:447,69
DA:448,69
DA:452,15794
DA:454,15794
DA:456,15794
DA:457,15794
DA:458,15794
DA:459,15794
DA:462,8636
DA:464,8636
DA:465,8636
DA:468,8636
DA:470,8636
DA:472,8568
DA:473,8568
DA:474,8568
DA:477,68
DA:478,68
DA:479,68
DA:481,8636
DA:484,1501
DA:486,1501
DA:487,1501
DA:490,1501
DA:492,1501
DA:494,1439
DA:495,1439
DA:496,1439
DA:499,62
DA:500,62
DA:501,62
DA:503,1501
DA:506,692
DA:508,692
DA:509,692
DA:513,692
DA:515,692
DA:517,691
DA:518,691
DA:519,691
DA:522,1
DA:524,1
DA:525,0
DA:528,1
DA:529,1
DA:532,1
DA:535,692
DA:538,224
DA:540,224
DA:541,224
DA:545,224
DA:547,224
DA:549,223
DA:550,223
DA:551,223
DA:554,1
DA:556,1
DA:557,0
DA:560,1
DA:561,1
DA:564,1
DA:567,224
DA:570,69
DA:572,69
DA:573,69
DA:576,69
DA:578,69
DA:580,68
DA:581,68
DA:582,68
DA:585,1
DA:587,1
DA:588,0
DA:591,1
DA:592,1
DA:595,1
DA:598,69
DA:601,26916
DA:604,26916
DA:606,26916
DA:610,26916
DA:612,26916
DA:615,0
DA:617,0
DA:618,0
DA:619,0
DA:621,0
DA:622,0
DA:626,349
DA:628,349
DA:632,349
DA:634,349
DA:638,2262
DA:640,2262
DA:642,2262
DA:643,1248
DA:644,1014
DA:645,0
DA:646,1014
DA:647,1014
DA:648,2262
DA:651,133
DA:654,133
DA:655,552
DA:657,427
DA:658,1281
DA:659,1254
DA:661,7443
DA:662,1654
DA:666,827
DA:668,827
DA:670,3935
DA:671,787
DA:672,1574
DA:674,827
DA:675,427
DA:676,133
DA:679,3
DA:682,3
DA:683,6
DA:684,18
DA:686,15
DA:687,60
DA:688,90
DA:690,675
DA:691,150
DA:695,75
DA:696,75
DA:697,270
DA:698,45
DA:699,90
DA:700,75
DA:701,15
DA:702,3
LF:354
LH:341
end_of_record
TN:
SF:/home/runner/work/neml2/neml2/src/neml2/models/NonlinearParameter.cxx
FN:31,_ZN5neml218NonlinearParameterINS_2R2EE16expected_optionsEv
FN:31,_ZN5neml218NonlinearParameterINS_11MillerIndexEE16expected_optionsEv
FN:31,_ZN5neml218NonlinearParameterINS_6ScalarEE16expected_optionsEv
FN:31,_ZN5neml218NonlinearParameterINS_5SSFR5EE16expected_optionsEv
FN:31,_ZN5neml218NonlinearParameterINS_4SSR4EE16expected_optionsEv
FN:31,_ZN5neml218NonlinearParameterINS_3VecEE16expected_optionsEv
FN:31,_ZN5neml218NonlinearParameterINS_3RotEE16expected_optionsEv
FN:31,_ZN5neml218NonlinearParameterINS_2R5EE16expected_optionsEv
FN:31,_ZN5neml218NonlinearParameterINS_4WSR4EE16expected_optionsEv
FN:31,_ZN5neml218NonlinearParameterINS_2R4EE16expected_optionsEv
FN:31,_ZN5neml218NonlinearParameterINS_4SWR4EE16expected_optionsEv
FN:31,_ZN5neml218NonlinearParameterINS_5SFFR4EE16expected_optionsEv
FN:31,_ZN5neml218NonlinearParameterINS_3SR2EE16expected_optionsEv
FN:31,_ZN5neml218NonlinearParameterINS_10QuaternionEE16expected_optionsEv
FN:31,_ZN5neml218NonlinearParameterINS_2R3EE16expected_optionsEv
FN:31,_ZN5neml218NonlinearParameterINS_4WWR4EE16expected_optionsEv
FN:31,_ZN5neml218NonlinearParameterINS_6SSSSR8EE16expected_optionsEv
FN:31,_ZN5neml218NonlinearParameterINS_3WR2EE16expected_optionsEv
FN:31,_ZN5neml218NonlinearParameterINS_4SFR3EE16expected_optionsEv
FN:31,_ZN5neml218NonlinearParameterINS_2R8EE16expected_optionsEv
FN:38,_ZN5neml218NonlinearParameterINS_3WR2EEC2ERKNS_9OptionSetE
FN:38,_ZN5neml218NonlinearParameterINS_2R4EEC2ERKNS_9OptionSetE
FN:38,_ZN5neml218NonlinearParameterINS_5SFFR4EEC2ERKNS_9OptionSetE
FN:38,_ZN5neml218NonlinearParameterINS_2R8EEC2ERKNS_9OptionSetE
FN:38,_ZN5neml218NonlinearParameterINS_2R5EEC2ERKNS_9OptionSetE
FN:38,_ZN5neml218NonlinearParameterINS_2R3EEC2ERKNS_9OptionSetE
FN:38,_ZN5neml218NonlinearParameterINS_3RotEEC2ERKNS_9OptionSetE
FN:38,_ZN5neml218NonlinearParameterINS_5SSFR5EEC2ERKNS_9OptionSetE
FN:38,_ZN5neml218NonlinearParameterINS_4WSR4EEC2ERKNS_9OptionSetE
FN:38,_ZN5neml218NonlinearParameterINS_10QuaternionEEC2ERKNS_9OptionSetE
FN:38,_ZN5neml218NonlinearParameterINS_11MillerIndexEEC2ERKNS_9OptionSetE
FN:38,_ZN5neml218NonlinearParameterINS_6ScalarEEC2ERKNS_9OptionSetE
FN:38,_ZN5neml218NonlinearParameterINS_3SR2EEC2ERKNS_9OptionSetE
FN:38,_ZN5neml218NonlinearParameterINS_4SWR4EEC2ERKNS_9OptionSetE
FN:38,_ZN5neml218NonlinearParameterINS_2R2EEC2ERKNS_9OptionSetE
FN:38,_ZN5neml218NonlinearParameterINS_4WWR4EEC2ERKNS_9OptionSetE
FN:38,_ZN5neml218NonlinearParameterINS_4SFR3EEC2ERKNS_9OptionSetE
FN:38,_ZN5neml218NonlinearParameterINS_6SSSSR8EEC2ERKNS_9OptionSetE
FN:38,_ZN5neml218NonlinearParameterINS_3VecEEC2ERKNS_9OptionSetE
FN:38,_ZN5neml218NonlinearParameterINS_4SSR4EEC2ERKNS_9OptionSetE
FNDA:0,_ZN5neml218NonlinearParameterINS_3VecEEC2ERKNS_9OptionSetE
FNDA:12,_ZN5neml218NonlinearParameterINS_2R8EE16expected_optionsEv
FNDA:12,_ZN5neml218NonlinearParameterINS_4SSR4EEC2ERKNS_9OptionSetE
FNDA:0,_ZN5neml218NonlinearParameterINS_2R2EEC2ERKNS_9OptionSetE
FNDA:0,_ZN5neml218NonlinearParameterINS_4SWR4EEC2ERKNS_9OptionSetE
FNDA:10,_ZN5neml218NonlinearParameterINS_3SR2EEC2ERKNS_9OptionSetE
FNDA:12,_ZN5neml218NonlinearParameterINS_6SSSSR8EE16expected_optionsEv
FNDA:130,_ZN5neml218NonlinearParameterINS_6ScalarEEC2ERKNS_9OptionSetE
FNDA:0,_ZN5neml218NonlinearParameterINS_4SFR3EEC2ERKNS_9OptionSetE
FNDA:0,_ZN5neml218NonlinearParameterINS_6SSSSR8EEC2ERKNS_9OptionSetE
FNDA:12,_ZN5neml218NonlinearParameterINS_3WR2EE16expected_optionsEv
FNDA:12,_ZN5neml218NonlinearParameterINS_4SFR3EE16expected_optionsEv
FNDA:0,_ZN5neml218NonlinearParameterINS_4WWR4EEC2ERKNS_9OptionSetE
FNDA:12,_ZN5neml218NonlinearParameterINS_4WWR4EE16expected_optionsEv
FNDA:12,_ZN5neml218NonlinearParameterINS_2R3EE16expected_optionsEv
FNDA:0,_ZN5neml218NonlinearParameterINS_10QuaternionEEC2ERKNS_9OptionSetE
FNDA:12,_ZN5neml218NonlinearParameterINS_10QuaternionEE16expected_optionsEv
FNDA:0,_ZN5neml218NonlinearParameterINS_11MillerIndexEEC2ERKNS_9OptionSetE
FNDA:0,_ZN5neml218NonlinearParameterINS_5SSFR5EEC2ERKNS_9OptionSetE
FNDA:0,_ZN5neml218NonlinearParameterINS_3RotEEC2ERKNS_9OptionSetE
FNDA:0,_ZN5neml218NonlinearParameterINS_4WSR4EEC2ERKNS_9OptionSetE
FNDA:0,_ZN5neml218NonlinearParameterINS_2R8EEC2ERKNS_9OptionSetE
FNDA:12,_ZN5neml218NonlinearParameterINS_2R4EE16expected_optionsEv
FNDA:18,_ZN5neml218NonlinearParameterINS_3SR2EE16expected_optionsEv
FNDA:0,_ZN5neml218NonlinearParameterINS_2R3EEC2ERKNS_9OptionSetE
FNDA:12,_ZN5neml218NonlinearParameterINS_4SWR4EE16expected_optionsEv
FNDA:12,_ZN5neml218NonlinearParameterINS_5SFFR4EE16expected_optionsEv
FNDA:0,_ZN5neml218NonlinearParameterINS_2R5EEC2ERKNS_9OptionSetE
FNDA:12,_ZN5neml218NonlinearParameterINS_3RotEE16expected_optionsEv
FNDA:0,_ZN5neml218NonlinearParameterINS_5SFFR4EEC2ERKNS_9OptionSetE
FNDA:12,_ZN5neml218NonlinearParameterINS_2R5EE16expected_optionsEv
FNDA:12,_ZN5neml218NonlinearParameterINS_4WSR4EE16expected_optionsEv
FNDA:12,_ZN5neml218NonlinearParameterINS_5SSFR5EE16expected_optionsEv
FNDA:48,_ZN5neml218NonlinearParameterINS_6ScalarEE16expected_optionsEv
FNDA:18,_ZN5neml218NonlinearParameterINS_3VecEE16expected_optionsEv
FNDA:0,_ZN5neml218NonlinearParameterINS_2R4EEC2ERKNS_9OptionSetE
FNDA:24,_ZN5neml218NonlinearParameterINS_4SSR4EE16expected_optionsEv
FNDA:0,_ZN5neml218NonlinearParameterINS_3WR2EEC2ERKNS_9OptionSetE
FNDA:12,_ZN5neml218NonlinearParameterINS_11MillerIndexEE16expected_optionsEv
FNDA:12,_ZN5neml218NonlinearParameterINS_2R2EE16expected_optionsEv
FNF:40
FNH:23
DA:31,300
DA:33,300
DA:34,300
DA:38,152
DA:40,152
DA:42,152
LF:6
LH:6
end_of_record
TN:
SF:/home/runner/work/neml2/neml2/src/neml2/models/ParameterStore.cxx
FN:32,_ZN5neml214ParameterStoreC2ERKNS_9OptionSetEPNS_11NEML2ObjectE
FN:39,_ZN5neml214ParameterStore18send_parameters_toERKN3c1013TensorOptionsE
FN:48,_ZN5neml214ParameterStore13set_parameterERKSsRKNS_6TensorE
FN:57,_ZN5neml214ParameterStore14set_parametersERKSt3mapISsNS_6TensorESt4lessISsESaISt4pairIKSsS2_EEE
FN:64,_ZN5neml214ParameterStore13get_parameterERKSs
FN:72,_ZNK5neml214ParameterStore13get_parameterERKSs
FN:80,_ZNK5neml214ParameterStore8nl_paramERKSs
FN:86,_ZN5neml214ParameterStore16named_parametersEv
FN:94,_ZNK5neml214ParameterStore26named_nonlinear_parametersEb
FN:117,_ZNK5neml214ParameterStore32named_nonlinear_parameter_modelsEb
FN:141,_ZN5neml214ParameterStore17declare_parameterINS_2R2EvEERKT_RKSsS7_b
FN:141,_ZN5neml214ParameterStore17declare_parameterINS_4SFR3EvEERKT_RKSsS7_b
FN:141,_ZN5neml214ParameterStore17declare_parameterINS_6ScalarEvEERKT_RKSsS7_b
FN:141,_ZN5neml214ParameterStore17declare_parameterINS_2R8EvEERKT_RKSsS7_b
FN:141,_ZN5neml214ParameterStore17declare_parameterINS_2R5EvEERKT_RKSsS7_b
FN:141,_ZN5neml214ParameterStore17declare_parameterINS_6SSSSR8EvEERKT_RKSsS7_b
FN:141,_ZN5neml214ParameterStore17declare_parameterINS_4SSR4EvEERKT_RKSsS7_b
FN:141,_ZN5neml214ParameterStore17declare_parameterINS_4WSR4EvEERKT_RKSsS7_b
FN:141,_ZN5neml214ParameterStore17declare_parameterINS_3SR2EvEERKT_RKSsS7_b
FN:141,_ZN5neml214ParameterStore17declare_parameterINS_10QuaternionEvEERKT_RKSsS7_b
FN:141,_ZN5neml214ParameterStore17declare_parameterINS_2R4EvEERKT_RKSsS7_b
FN:141,_ZN5neml214ParameterStore17declare_parameterINS_4SWR4EvEERKT_RKSsS7_b
FN:141,_ZN5neml214ParameterStore17declare_parameterINS_4WWR4EvEERKT_RKSsS7_b
FN:141,_ZN5neml214ParameterStore17declare_parameterINS_3WR2EvEERKT_RKSsS7_b
FN:141,_ZN5neml214ParameterStore17declare_parameterINS_11MillerIndexEvEERKT_RKSsS7_b
FN:141,_ZN5neml214ParameterStore17declare_parameterINS_3VecEvEERKT_RKSsS7_b
FN:141,_ZN5neml214ParameterStore17declare_parameterINS_5SSFR5EvEERKT_RKSsS7_b
FN:141,_ZN5neml214ParameterStore17declare_parameterINS_3RotEvEERKT_RKSsS7_b
FN:141,_ZN5neml214ParameterStore17declare_parameterINS_2R3EvEERKT_RKSsS7_b
FN:141,_ZN5neml214ParameterStore17declare_parameterINS_5SFFR4EvEERKT_RKSsS7_b
FN:157,_ZN5neml214ParameterStore18declare_parametersINS_5SSFR5EvEESt6vectorIPKT_SaIS6_EERKSsSA_b
FN:157,_ZN5neml214ParameterStore18declare_parametersINS_4SFR3EvEESt6vectorIPKT_SaIS6_EERKSsSA_b
FN:157,_ZN5neml214ParameterStore18declare_parametersINS_3RotEvEESt6vectorIPKT_SaIS6_EERKSsSA_b
FN:157,_ZN5neml214ParameterStore18declare_parametersINS_4WWR4EvEESt6vectorIPKT_SaIS6_EERKSsSA_b
FN:157,_ZN5neml214ParameterStore18declare_parametersINS_4SSR4EvEESt6vectorIPKT_SaIS6_EERKSsSA_b
FN:157,_ZN5neml214ParameterStore18declare_parametersINS_4WSR4EvEESt6vectorIPKT_SaIS6_EERKSsSA_b
FN:157,_ZN5neml214ParameterStore18declare_parametersINS_6SSSSR8EvEESt6vectorIPKT_SaIS6_EERKSsSA_b
FN:157,_ZN5neml214ParameterStore18declare_parametersINS_5SFFR4EvEESt6vectorIPKT_SaIS6_EERKSsSA_b
FN:157,_ZN5neml214ParameterStore18declare_parametersINS_3WR2EvEESt6vectorIPKT_SaIS6_EERKSsSA_b
FN:157,_ZN5neml214ParameterStore18declare_parametersINS_3SR2EvEESt6vectorIPKT_SaIS6_EERKSsSA_b
FN:157,_ZN5neml214ParameterStore18declare_parametersINS_10QuaternionEvEESt6vectorIPKT_SaIS6_EERKSsSA_b
FN:157,_ZN5neml214ParameterStore18declare_parametersINS_2R5EvEESt6vectorIPKT_SaIS6_EERKSsSA_b
FN:157,_ZN5neml214ParameterStore18declare_parametersINS_2R8EvEESt6vectorIPKT_SaIS6_EERKSsSA_b
FN:157,_ZN5neml214ParameterStore18declare_parametersINS_11MillerIndexEvEESt6vectorIPKT_SaIS6_EERKSsSA_b
FN:157,_ZN5neml214ParameterStore18declare_parametersINS_4SWR4EvEESt6vectorIPKT_SaIS6_EERKSsSA_b
FN:157,_ZN5neml214ParameterStore18declare_parametersINS_2R2EvEESt6vectorIPKT_SaIS6_EERKSsSA_b
FN:157,_ZN5neml214ParameterStore18declare_parametersINS_2R3EvEESt6vectorIPKT_SaIS6_EERKSsSA_b
FN:157,_ZN5neml214ParameterStore18declare_parametersINS_2R4EvEESt6vectorIPKT_SaIS6_EERKSsSA_b
FN:157,_ZN5neml214ParameterStore18declare_parametersINS_6ScalarEvEESt6vectorIPKT_SaIS6_EERKSsSA_b
FN:157,_ZN5neml214ParameterStore18declare_parametersINS_3VecEvEESt6vectorIPKT_SaIS6_EERKSsSA_b
FN:186,_ZN5neml214ParameterStore26declare_parameter_crossrefINS_2R8EvEERKT_RKSsRKNS_8CrossRefIS3_EEb
FN:186,_ZN5neml214ParameterStore26declare_parameter_crossrefINS_2R3EvEERKT_RKSsRKNS_8CrossRefIS3_EEb
FN:186,_ZN5neml214ParameterStore26declare_parameter_crossrefINS_5SFFR4EvEERKT_RKSsRKNS_8CrossRefIS3_EEb
FN:186,_ZN5neml214ParameterStore26declare_parameter_crossrefINS_5SSFR5EvEERKT_RKSsRKNS_8CrossRefIS3_EEb
FN:186,_ZN5neml214ParameterStore26declare_parameter_crossrefINS_6SSSSR8EvEERKT_RKSsRKNS_8CrossRefIS3_EEb
FN:186,_ZN5neml214ParameterStore26declare_parameter_crossrefINS_4SWR4EvEERKT_RKSsRKNS_8CrossRefIS3_EEb
FN:186,_ZN5neml214ParameterStore26declare_parameter_crossrefINS_4WSR4EvEERKT_RKSsRKNS_8CrossRefIS3_EEb
FN:186,_ZN5neml214ParameterStore26declare_parameter_crossrefINS_4WWR4EvEERKT_RKSsRKNS_8CrossRefIS3_EEb
FN:186,_ZN5neml214ParameterStore26declare_parameter_crossrefINS_4SSR4EvEERKT_RKSsRKNS_8CrossRefIS3_EEb
FN:186,_ZN5neml214ParameterStore26declare_parameter_crossrefINS_11MillerIndexEvEERKT_RKSsRKNS_8CrossRefIS3_EEb
FN:186,_ZN5neml214ParameterStore26declare_parameter_crossrefINS_3VecEvEERKT_RKSsRKNS_8CrossRefIS3_EEb
FN:186,_ZN5neml214ParameterStore26declare_parameter_crossrefINS_2R2EvEERKT_RKSsRKNS_8CrossRefIS3_EEb
FN:186,_ZN5neml214ParameterStore26declare_parameter_crossrefINS_3SR2EvEERKT_RKSsRKNS_8CrossRefIS3_EEb
FN:186,_ZN5neml214ParameterStore26declare_parameter_crossrefINS_3WR2EvEERKT_RKSsRKNS_8CrossRefIS3_EEb
FN:186,_ZN5neml214ParameterStore26declare_parameter_crossrefINS_2R4EvEERKT_RKSsRKNS_8CrossRefIS3_EEb
FN:186,_ZN5neml214ParameterStore26declare_parameter_crossrefINS_3RotEvEERKT_RKSsRKNS_8CrossRefIS3_EEb
FN:186,_ZN5neml214ParameterStore26declare_parameter_crossrefINS_10QuaternionEvEERKT_RKSsRKNS_8CrossRefIS3_EEb
FN:186,_ZN5neml214ParameterStore26declare_parameter_crossrefINS_6ScalarEvEERKT_RKSsRKNS_8CrossRefIS3_EEb
FN:186,_ZN5neml214ParameterStore26declare_parameter_crossrefINS_2R5EvEERKT_RKSsRKNS_8CrossRefIS3_EEb
FN:186,_ZN5neml214ParameterStore26declare_parameter_crossrefINS_4SFR3EvEERKT_RKSsRKNS_8CrossRefIS3_EEb
FNDA:0,_ZN5neml214ParameterStore17declare_parameterINS_2R3EvEERKT_RKSsS7_b
FNDA:8,_ZN5neml214ParameterStore18declare_parametersINS_6ScalarEvEESt6vectorIPKT_SaIS6_EERKSsSA_b
FNDA:0,_ZN5neml214ParameterStore17declare_parameterINS_3RotEvEERKT_RKSsS7_b
FNDA:0,_ZN5neml214ParameterStore26declare_parameter_crossrefINS_4SFR3EvEERKT_RKSsRKNS_8CrossRefIS3_EEb
FNDA:271,_ZN5neml214ParameterStore13get_parameterERKSs
FNDA:0,_ZN5neml214ParameterStore18declare_parametersINS_3VecEvEESt6vectorIPKT_SaIS6_EERKSsSA_b
FNDA:0,_ZN5neml214ParameterStore26declare_parameter_crossrefINS_2R5EvEERKT_RKSsRKNS_8CrossRefIS3_EEb
FNDA:0,_ZN5neml214ParameterStore17declare_parameterINS_5SFFR4EvEERKT_RKSsS7_b
FNDA:443,_ZN5neml214ParameterStore18send_parameters_toERKN3c1013TensorOptionsE
FNDA:0,_ZN5neml214ParameterStore17declare_parameterINS_3VecEvEERKT_RKSsS7_b
FNDA:0,_ZN5neml214ParameterStore26declare_parameter_crossrefINS_10QuaternionEvEERKT_RKSsRKNS_8CrossRefIS3_EEb
FNDA:0,_ZN5neml214ParameterStore18declare_parametersINS_2R4EvEESt6vectorIPKT_SaIS6_EERKSsSA_b
FNDA:690,_ZNK5neml214ParameterStore32named_nonlinear_parameter_modelsEb
FNDA:324,_ZN5neml214ParameterStore26declare_parameter_crossrefINS_6ScalarEvEERKT_RKSsRKNS_8CrossRefIS3_EEb
FNDA:0,_ZN5neml214ParameterStore17declare_parameterINS_5SSFR5EvEERKT_RKSsS7_b
FNDA:0,_ZN5neml214ParameterStore18declare_parametersINS_11MillerIndexEvEESt6vectorIPKT_SaIS6_EERKSsSA_b
FNDA:0,_ZN5neml214ParameterStore18declare_parametersINS_4SWR4EvEESt6vectorIPKT_SaIS6_EERKSsSA_b
FNDA:0,_ZN5neml214ParameterStore18declare_parametersINS_2R2EvEESt6vectorIPKT_SaIS6_EERKSsSA_b
FNDA:0,_ZN5neml214ParameterStore26declare_parameter_crossrefINS_3WR2EvEERKT_RKSsRKNS_8CrossRefIS3_EEb
FNDA:0,_ZN5neml214ParameterStore18declare_parametersINS_2R3EvEESt6vectorIPKT_SaIS6_EERKSsSA_b
FNDA:520,_ZN5neml214ParameterStore13set_parameterERKSsRKNS_6TensorE
FNDA:0,_ZN5neml214ParameterStore26declare_parameter_crossrefINS_2R4EvEERKT_RKSsRKNS_8CrossRefIS3_EEb
FNDA:0,_ZN5neml214ParameterStore26declare_parameter_crossrefINS_3RotEvEERKT_RKSsRKNS_8CrossRefIS3_EEb
FNDA:0,_ZN5neml214ParameterStore17declare_parameterINS_3WR2EvEERKT_RKSsS7_b
FNDA:0,_ZN5neml214ParameterStore17declare_parameterINS_11MillerIndexEvEERKT_RKSsS7_b
FNDA:0,_ZN5neml214ParameterStore26declare_parameter_crossrefINS_11MillerIndexEvEERKT_RKSsRKNS_8CrossRefIS3_EEb
FNDA:10,_ZN5neml214ParameterStore17declare_parameterINS_3SR2EvEERKT_RKSsS7_b
FNDA:0,_ZN5neml214ParameterStore18declare_parametersINS_10QuaternionEvEESt6vectorIPKT_SaIS6_EERKSsSA_b
FNDA:10,_ZN5neml214ParameterStore26declare_parameter_crossrefINS_4SSR4EvEERKT_RKSsRKNS_8CrossRefIS3_EEb
FNDA:0,_ZN5neml214ParameterStore18declare_parametersINS_2R5EvEESt6vectorIPKT_SaIS6_EERKSsSA_b
FNDA:0,_ZN5neml214ParameterStore17declare_parameterINS_4WWR4EvEERKT_RKSsS7_b
FNDA:4593,_ZNK5neml214ParameterStore8nl_paramERKSs
FNDA:10,_ZN5neml214ParameterStore26declare_parameter_crossrefINS_3SR2EvEERKT_RKSsRKNS_8CrossRefIS3_EEb
FNDA:0,_ZN5neml214ParameterStore17declare_parameterINS_10QuaternionEvEERKT_RKSsS7_b
FNDA:0,_ZN5neml214ParameterStore26declare_parameter_crossrefINS_3VecEvEERKT_RKSsRKNS_8CrossRefIS3_EEb
FNDA:0,_ZN5neml214ParameterStore17declare_parameterINS_2R4EvEERKT_RKSsS7_b
FNDA:0,_ZN5neml214ParameterStore18declare_parametersINS_2R8EvEESt6vectorIPKT_SaIS6_EERKSsSA_b
FNDA:0,_ZN5neml214ParameterStore26declare_parameter_crossrefINS_2R2EvEERKT_RKSsRKNS_8CrossRefIS3_EEb
FNDA:0,_ZN5neml214ParameterStore17declare_parameterINS_4SWR4EvEERKT_RKSsS7_b
FNDA:0,_ZN5neml214ParameterStore18declare_parametersINS_3SR2EvEESt6vectorIPKT_SaIS6_EERKSsSA_b
FNDA:0,_ZN5neml214ParameterStore26declare_parameter_crossrefINS_4WWR4EvEERKT_RKSsRKNS_8CrossRefIS3_EEb
FNDA:345,_ZNK5neml214ParameterStore26named_nonlinear_parametersEb
FNDA:0,_ZN5neml214ParameterStore26declare_parameter_crossrefINS_5SSFR5EvEERKT_RKSsRKNS_8CrossRefIS3_EEb
FNDA:0,_ZN5neml214ParameterStore17declare_parameterINS_4WSR4EvEERKT_RKSsS7_b
FNDA:0,_ZNK5neml214ParameterStore13get_parameterERKSs
FNDA:10,_ZN5neml214ParameterStore17declare_parameterINS_4SSR4EvEERKT_RKSsS7_b
FNDA:0,_ZN5neml214ParameterStore26declare_parameter_crossrefINS_4SWR4EvEERKT_RKSsRKNS_8CrossRefIS3_EEb
FNDA:0,_ZN5neml214ParameterStore18declare_parametersINS_5SFFR4EvEESt6vectorIPKT_SaIS6_EERKSsSA_b
FNDA:0,_ZN5neml214ParameterStore26declare_parameter_crossrefINS_4WSR4EvEERKT_RKSsRKNS_8CrossRefIS3_EEb
FNDA:0,_ZN5neml214ParameterStore18declare_parametersINS_3WR2EvEESt6vectorIPKT_SaIS6_EERKSsSA_b
FNDA:1322,_ZN5neml214ParameterStore16named_parametersEv
FNDA:0,_ZN5neml214ParameterStore26declare_parameter_crossrefINS_6SSSSR8EvEERKT_RKSsRKNS_8CrossRefIS3_EEb
FNDA:591,_ZN5neml214ParameterStoreC2ERKNS_9OptionSetEPNS_11NEML2ObjectE
FNDA:0,_ZN5neml214ParameterStore18declare_parametersINS_4WWR4EvEESt6vectorIPKT_SaIS6_EERKSsSA_b
FNDA:0,_ZN5neml214ParameterStore17declare_parameterINS_2R5EvEERKT_RKSsS7_b
FNDA:0,_ZN5neml214ParameterStore26declare_parameter_crossrefINS_2R3EvEERKT_RKSsRKNS_8CrossRefIS3_EEb
FNDA:0,_ZN5neml214ParameterStore17declare_parameterINS_2R8EvEERKT_RKSsS7_b
FNDA:0,_ZN5neml214ParameterStore18declare_parametersINS_3RotEvEESt6vectorIPKT_SaIS6_EERKSsSA_b
FNDA:0,_ZN5neml214ParameterStore26declare_parameter_crossrefINS_5SFFR4EvEERKT_RKSsRKNS_8CrossRefIS3_EEb
FNDA:0,_ZN5neml214ParameterStore17declare_parameterINS_6SSSSR8EvEERKT_RKSsS7_b
FNDA:0,_ZN5neml214ParameterStore18declare_parametersINS_4SSR4EvEESt6vectorIPKT_SaIS6_EERKSsSA_b
FNDA:0,_ZN5neml214ParameterStore18declare_parametersINS_6SSSSR8EvEESt6vectorIPKT_SaIS6_EERKSsSA_b
FNDA:0,_ZN5neml214ParameterStore18declare_parametersINS_4WSR4EvEESt6vectorIPKT_SaIS6_EERKSsSA_b
FNDA:0,_ZN5neml214ParameterStore17declare_parameterINS_2R2EvEERKT_RKSsS7_b
FNDA:0,_ZN5neml214ParameterStore14set_parametersERKSt3mapISsNS_6TensorESt4lessISsESaISt4pairIKSsS2_EEE
FNDA:0,_ZN5neml214ParameterStore17declare_parameterINS_4SFR3EvEERKT_RKSsS7_b
FNDA:0,_ZN5neml214ParameterStore18declare_parametersINS_5SSFR5EvEESt6vectorIPKT_SaIS6_EERKSsSA_b
FNDA:0,_ZN5neml214ParameterStore18declare_parametersINS_4SFR3EvEESt6vectorIPKT_SaIS6_EERKSsSA_b
FNDA:304,_ZN5neml214ParameterStore17declare_parameterINS_6ScalarEvEERKT_RKSsS7_b
FNDA:0,_ZN5neml214ParameterStore26declare_parameter_crossrefINS_2R8EvEERKT_RKSsRKNS_8CrossRefIS3_EEb
FNF:70
FNH:15
DA:32,591
DA:33,591
DA:34,591
DA:36,591
DA:39,443
DA:41,443
DA:43,936
DA:44,493
DA:45,443
DA:48,520
DA:50,520
DA:52,520
DA:53,520
DA:54,520
DA:57,0
DA:59,0
DA:60,0
DA:61,0
DA:64,271
DA:66,271
DA:67,271
DA:68,271
DA:72,0
DA:74,0
DA:75,0
DA:76,0
DA:80,4593
DA:82,4593
DA:86,1322
DA:88,1322
DA:90,1322
DA:94,345
DA:96,345
DA:97,0
DA:99,345
DA:100,345
DA:102,345
DA:103,355
DA:105,10
DA:106,10
DA:107,10
DA:108,452
DA:110,107
DA:111,107
DA:112,107
DA:113,345
DA:114,345
DA:117,690
DA:119,690
DA:120,0
DA:122,690
DA:123,690
DA:125,690
DA:126,710
DA:128,20
DA:129,20
DA:130,20
DA:131,904
DA:133,214
DA:134,214
DA:135,214
DA:136,690
DA:137,690
DA:141,324
DA:145,324
DA:146,0
DA:148,324
DA:149,324
DA:150,324
DA:152,0
DA:157,8
DA:162,8
DA:164,0
DA:165,0
DA:166,0
DA:167,0
DA:168,0
DA:169,0
DA:171,8
DA:173,8
DA:174,8
DA:175,28
DA:176,20
DA:177,20
DA:178,8
DA:179,8
DA:181,0
DA:186,344
DA:192,344
DA:194,214
DA:200,107
DA:201,107
DA:203,107
DA:205,107
DA:213,107
DA:215,107
DA:217,107
DA:224,107
DA:225,107
DA:226,107
DA:227,107
DA:228,107
DA:230,107
DA:231,107
DA:232,107
DA:233,107
DA:234,107
DA:235,0
DA:237,0
DA:238,0
DA:240,0
DA:241,0
LF:112
LH:88
end_of_record
TN:
SF:/home/runner/work/neml2/neml2/src/neml2/models/RotationMatrix.cxx
FN:32,_ZN5neml214RotationMatrix16expected_optionsEv
FN:47,_ZN5neml214RotationMatrixC2ERKNS_9OptionSetE
FN:55,_ZN5neml214RotationMatrix9set_valueEbbb
FNDA:388,_ZN5neml214RotationMatrix9set_valueEbbb
FNDA:6,_ZN5neml214RotationMatrix16expected_optionsEv
FNDA:7,_ZN5neml214RotationMatrixC2ERKNS_9OptionSetE
FNF:3
FNH:3
DA:32,6
DA:34,6
DA:35,6
DA:36,6
DA:38,6
DA:39,6
DA:41,6
DA:42,6
DA:44,6
DA:45,0
DA:47,7
DA:49,14
DA:50,7
DA:52,7
DA:55,388
DA:57,388
DA:59,388
DA:60,388
DA:62,388
DA:63,73
DA:64,73
DA:65,388
LF:22
LH:21
end_of_record
TN:
SF:/home/runner/work/neml2/neml2/src/neml2/models/SR2Invariant.cxx
FN:33,_ZN5neml212SR2Invariant16expected_optionsEv
FN:58,_ZN5neml212SR2InvariantC2ERKNS_9OptionSetE
FN:67,_ZN5neml212SR2Invariant9set_valueEbbb
FNDA:37,_ZN5neml212SR2InvariantC2ERKNS_9OptionSetE
FNDA:6,_ZN5neml212SR2Invariant16expected_optionsEv
FNDA:1379,_ZN5neml212SR2Invariant9set_valueEbbb
FNF:3
FNH:3
DA:33,6
DA:35,6
DA:36,6
DA:38,6
DA:39,6
DA:41,6
DA:42,6
DA:50,48
DA:51,6
DA:52,12
DA:53,18
DA:55,12
DA:56,6
DA:58,37
DA:60,37
DA:61,37
DA:62,74
DA:64,37
DA:67,1379
DA:69,1379
DA:71,1379
DA:73,160
DA:74,154
DA:76,160
DA:77,0
DA:79,160
DA:80,54
DA:87,1219
DA:89,50
DA:90,44
DA:92,50
DA:93,0
DA:95,50
DA:97,24
DA:99,24
DA:100,22
DA:102,24
DA:104,6
DA:105,6
DA:106,6
DA:107,6
DA:108,24
DA:110,1169
DA:112,1119
DA:113,1119
DA:115,1119
DA:116,1113
DA:118,1119
DA:119,0
DA:121,1119
DA:123,745
DA:125,745
DA:126,743
DA:128,745
DA:130,203
DA:131,203
DA:132,203
DA:133,203
DA:134,745
DA:135,1119
DA:136,50
DA:138,50
DA:140,50
DA:141,44
DA:143,50
DA:144,0
DA:146,50
DA:148,24
DA:150,24
DA:151,22
DA:153,24
DA:154,6
DA:155,12
DA:156,24
DA:157,50
DA:159,0
DA:160,0
DA:161,1379
LF:78
LH:72
end_of_record
TN:
SF:/home/runner/work/neml2/neml2/src/neml2/models/VariableRate.cxx
FN:36,_ZN5neml212VariableRateINS_3VecEE16expected_optionsEv
FN:36,_ZN5neml212VariableRateINS_6ScalarEE16expected_optionsEv
FN:36,_ZN5neml212VariableRateINS_3SR2EE16expected_optionsEv
FN:56,_ZN5neml212VariableRateINS_6ScalarEEC2ERKNS_9OptionSetE
FN:56,_ZN5neml212VariableRateINS_3VecEEC2ERKNS_9OptionSetE
FN:56,_ZN5neml212VariableRateINS_3SR2EEC2ERKNS_9OptionSetE
FN:70,_ZNK5neml212VariableRateINS_3VecEE8diagnoseERSt6vectorINS_9DiagnosisESaIS4_EE
FN:70,_ZNK5neml212VariableRateINS_6ScalarEE8diagnoseERSt6vectorINS_9DiagnosisESaIS4_EE
FN:70,_ZNK5neml212VariableRateINS_3SR2EE8diagnoseERSt6vectorINS_9DiagnosisESaIS4_EE
FN:78,_ZN5neml212VariableRateINS_6ScalarEE9set_valueEbbb
FN:78,_ZN5neml212VariableRateINS_3SR2EE9set_valueEbbb
FN:78,_ZN5neml212VariableRateINS_3VecEE9set_valueEbbb
FNDA:0,_ZN5neml212VariableRateINS_3VecEEC2ERKNS_9OptionSetE
FNDA:6,_ZN5neml212VariableRateINS_3SR2EE16expected_optionsEv
FNDA:48,_ZN5neml212VariableRateINS_6ScalarEE9set_valueEbbb
FNDA:0,_ZNK5neml212VariableRateINS_3VecEE8diagnoseERSt6vectorINS_9DiagnosisESaIS4_EE
FNDA:6,_ZN5neml212VariableRateINS_3VecEE16expected_optionsEv
FNDA:4,_ZN5neml212VariableRateINS_6ScalarEEC2ERKNS_9OptionSetE
FNDA:6,_ZN5neml212VariableRateINS_6ScalarEE16expected_optionsEv
FNDA:356,_ZN5neml212VariableRateINS_3SR2EE9set_valueEbbb
FNDA:6,_ZN5neml212VariableRateINS_3SR2EEC2ERKNS_9OptionSetE
FNDA:0,_ZN5neml212VariableRateINS_3VecEE9set_valueEbbb
FNDA:6,_ZNK5neml212VariableRateINS_3SR2EE8diagnoseERSt6vectorINS_9DiagnosisESaIS4_EE
FNDA:0,_ZNK5neml212VariableRateINS_6ScalarEE8diagnoseERSt6vectorINS_9DiagnosisESaIS4_EE
FNF:12
FNH:8
DA:36,18
DA:38,18
DA:39,18
DA:43,18
DA:44,18
DA:46,18
DA:47,18
DA:49,18
DA:50,18
DA:52,18
DA:53,0
DA:56,10
DA:58,20
DA:59,10
DA:60,10
DA:61,10
DA:62,20
DA:63,19
DA:64,19
DA:66,10
DA:70,6
DA:72,6
DA:73,6
DA:74,6
DA:78,404
DA:80,404
DA:82,404
DA:83,404
DA:85,404
DA:86,400
DA:88,404
DA:90,159
DA:92,159
DA:93,89
DA:95,159
DA:96,8
DA:98,159
DA:99,151
DA:101,8
DA:102,8
DA:103,159
DA:104,555
LF:42
LH:41
end_of_record
TN:
SF:/home/runner/work/neml2/neml2/src/neml2/models/VariableStore.cxx
FN:30,_ZN5neml213VariableStoreC2ERKNS_9OptionSetEPNS_5ModelE
FN:39,_ZN5neml213VariableStore12declare_axisERKSs
FN:51,_ZN5neml213VariableStore12setup_layoutEv
FN:58,_ZN5neml213VariableStore14input_variableERKNS_19LabeledAxisAccessorE
FN:64,_ZN5neml213VariableStore15output_variableERKNS_19LabeledAxisAccessorE
FN:70,_ZNK5neml213VariableStore10input_typeERKNS_19LabeledAxisAccessorE
FN:78,_ZNK5neml213VariableStore11output_typeERKNS_19LabeledAxisAccessorE
FN:86,_ZN5neml213VariableStore5cacheEN3c108ArrayRefIlEE
FN:95,_ZN5neml213VariableStore18allocate_variablesEN3c108ArrayRefIlEERKNS1_13TensorOptionsEbbbb
FN:119,_ZN5neml213VariableStore17setup_input_viewsEPS0_
FN:134,_ZN5neml213VariableStore18setup_output_viewsEbbb
FN:143,_ZN5neml213VariableStore4zeroEbb
FNDA:18646,_ZN5neml213VariableStore4zeroEbb
FNDA:2,_ZNK5neml213VariableStore11output_typeERKNS_19LabeledAxisAccessorE
FNDA:1182,_ZN5neml213VariableStore12declare_axisERKSs
FNDA:591,_ZN5neml213VariableStoreC2ERKNS_9OptionSetEPNS_5ModelE
FNDA:18,_ZNK5neml213VariableStore10input_typeERKNS_19LabeledAxisAccessorE
FNDA:5128,_ZN5neml213VariableStore15output_variableERKNS_19LabeledAxisAccessorE
FNDA:10567,_ZN5neml213VariableStore18setup_output_viewsEbbb
FNDA:1146,_ZN5neml213VariableStore5cacheEN3c108ArrayRefIlEE
FNDA:3672,_ZN5neml213VariableStore17setup_input_viewsEPS0_
FNDA:10567,_ZN5neml213VariableStore18allocate_variablesEN3c108ArrayRefIlEERKNS1_13TensorOptionsEbbbb
FNDA:55329,_ZN5neml213VariableStore14input_variableERKNS_19LabeledAxisAccessorE
FNDA:591,_ZN5neml213VariableStore12setup_layoutEv
FNF:12
FNH:12
DA:30,591
DA:31,591
DA:32,591
DA:33,591
DA:34,1182
DA:36,591
DA:39,1182
DA:41,1182
DA:46,1182
DA:47,2364
DA:48,1182
DA:51,591
DA:53,591
DA:54,591
DA:55,591
DA:58,55329
DA:60,55329
DA:64,5128
DA:66,5128
DA:70,18
DA:72,18
DA:73,18
DA:74,18
DA:78,2
DA:80,2
DA:81,2
DA:82,2
DA:86,1146
DA:88,4110
DA:89,2964
DA:90,2423
DA:91,1277
DA:92,1146
DA:95,10567
DA:103,10567
DA:104,443
DA:107,10567
DA:108,10567
DA:110,10567
DA:111,10056
DA:113,10567
DA:114,3750
DA:115,3750
DA:116,10567
DA:119,3672
DA:121,3672
DA:124,19445
DA:126,15773
DA:127,7097
DA:129,8676
DA:130,15773
DA:131,3672
DA:134,10567
DA:136,25565
DA:137,14998
DA:139,14998
DA:140,10567
DA:143,18646
DA:145,18646
DA:146,18457
DA:148,18646
DA:149,2643
DA:150,18646
LF:63
LH:63
end_of_record
TN:
SF:/home/runner/work/neml2/neml2/src/neml2/models/WR2ExplicitExponentialTimeIntegration.cxx
FN:33,_ZN5neml237WR2ExplicitExponentialTimeIntegration16expected_optionsEv
FN:52,_ZN5neml237WR2ExplicitExponentialTimeIntegrationC2ERKNS_9OptionSetE
FN:66,_ZNK5neml237WR2ExplicitExponentialTimeIntegration8diagnoseERSt6vectorINS_9DiagnosisESaIS2_EE
FN:75,_ZN5neml237WR2ExplicitExponentialTimeIntegration9set_valueEbbb
FNDA:2,_ZN5neml237WR2ExplicitExponentialTimeIntegrationC2ERKNS_9OptionSetE
FNDA:6,_ZN5neml237WR2ExplicitExponentialTimeIntegration16expected_optionsEv
FNDA:36,_ZN5neml237WR2ExplicitExponentialTimeIntegration9set_valueEbbb
FNDA:0,_ZNK5neml237WR2ExplicitExponentialTimeIntegration8diagnoseERSt6vectorINS_9DiagnosisESaIS2_EE
FNF:4
FNH:3
DA:33,6
DA:35,6
DA:36,6
DA:38,6
DA:40,6
DA:41,6
DA:43,6
DA:44,6
DA:46,6
DA:47,6
DA:49,6
DA:50,0
DA:52,2
DA:53,2
DA:55,2
DA:56,2
DA:57,4
DA:58,2
DA:59,0
DA:60,2
DA:61,4
DA:63,2
DA:66,0
DA:68,0
DA:69,0
DA:70,0
DA:71,0
DA:72,0
DA:75,36
DA:77,36
DA:79,36
DA:82,36
DA:84,36
DA:85,34
DA:87,36
DA:89,4
DA:90,4
DA:92,4
DA:93,0
DA:95,4
DA:96,4
DA:97,4
DA:98,4
DA:99,36
LF:44
LH:35
end_of_record
TN:
SF:/home/runner/work/neml2/neml2/src/neml2/models/WR2ImplicitExponentialTimeIntegration.cxx
FN:37,_ZN5neml237WR2ImplicitExponentialTimeIntegration16expected_optionsEv
FN:59,_ZN5neml237WR2ImplicitExponentialTimeIntegrationC2ERKNS_9OptionSetE
FN:74,_ZNK5neml237WR2ImplicitExponentialTimeIntegration8diagnoseERSt6vectorINS_9DiagnosisESaIS2_EE
FN:83,_ZN5neml237WR2ImplicitExponentialTimeIntegration9set_valueEbbb
FNDA:1,_ZNK5neml237WR2ImplicitExponentialTimeIntegration8diagnoseERSt6vectorINS_9DiagnosisESaIS2_EE
FNDA:3,_ZN5neml237WR2ImplicitExponentialTimeIntegrationC2ERKNS_9OptionSetE
FNDA:328,_ZN5neml237WR2ImplicitExponentialTimeIntegration9set_valueEbbb
FNDA:6,_ZN5neml237WR2ImplicitExponentialTimeIntegration16expected_optionsEv
FNF:4
FNH:4
DA:37,6
DA:39,6
DA:40,6
DA:43,6
DA:45,6
DA:47,6
DA:48,6
DA:50,6
DA:51,6
DA:53,6
DA:54,6
DA:56,6
DA:57,0
DA:59,3
DA:60,3
DA:62,3
DA:63,3
DA:64,6
DA:65,3
DA:66,0
DA:67,3
DA:68,3
DA:69,6
DA:71,3
DA:74,1
DA:76,1
DA:77,1
DA:78,1
DA:79,1
DA:80,1
DA:83,328
DA:85,328
DA:87,328
DA:88,328
DA:90,328
DA:91,326
DA:93,328
DA:95,65
DA:96,65
DA:97,65
DA:99,65
DA:100,61
DA:102,4
DA:103,4
DA:104,4
DA:105,65
DA:106,389
LF:47
LH:45
end_of_record
TN:
SF:/home/runner/work/neml2/neml2/src/neml2/models/crystallography/CrystalGeometry.cxx
FN:38,_ZN5neml215crystallography15CrystalGeometry16expected_optionsEv
FN:61,_ZN5neml215crystallography15CrystalGeometryC2ERKNS_9OptionSetE
FN:72,_ZN5neml215crystallography15CrystalGeometryC2ERKNS_9OptionSetERKNS_2R2ERKNS_3VecE
FN:86,_ZNK5neml215crystallography15CrystalGeometry2a1Ev
FN:92,_ZNK5neml215crystallography15CrystalGeometry2a2Ev
FN:98,_ZNK5neml215crystallography15CrystalGeometry2a3Ev
FN:104,_ZNK5neml215crystallography15CrystalGeometry2b1Ev
FN:110,_ZNK5neml215crystallography15CrystalGeometry2b2Ev
FN:116,_ZNK5neml215crystallography15CrystalGeometry2b3Ev
FN:122,_ZNK5neml215crystallography15CrystalGeometry5nslipEv
FN:128,_ZNK5neml215crystallography15CrystalGeometry12nslip_groupsEv
FN:135,_ZNK5neml215crystallography15CrystalGeometry14nslip_in_groupEl
FN:141,_ZN5neml215crystallography15CrystalGeometryC2ERKNS_9OptionSetERKNS_2R2ERKNS_3VecESt5tupleIJS8_S8_NS_6ScalarESt6vectorIlSaIlEEEE
FN:166,_ZN5neml215crystallography15CrystalGeometry23make_reciprocal_latticeERKNS_3VecE
FN:180,_ZN5neml215crystallography15CrystalGeometry19miller_to_cartesianERKNS_3VecERKNS_11MillerIndexE
FN:187,_ZN5neml215crystallography15CrystalGeometry20setup_schmid_tensorsERKNS_3VecERKNS_2R2ERKNS_11MillerIndexESA_
FNDA:12,_ZN5neml215crystallography15CrystalGeometry16expected_optionsEv
FNDA:2,_ZNK5neml215crystallography15CrystalGeometry2a3Ev
FNDA:2,_ZNK5neml215crystallography15CrystalGeometry14nslip_in_groupEl
FNDA:80,_ZN5neml215crystallography15CrystalGeometry23make_reciprocal_latticeERKNS_3VecE
FNDA:29,_ZN5neml215crystallography15CrystalGeometryC2ERKNS_9OptionSetERKNS_2R2ERKNS_3VecE
FNDA:2,_ZNK5neml215crystallography15CrystalGeometry2a2Ev
FNDA:40,_ZN5neml215crystallography15CrystalGeometry20setup_schmid_tensorsERKNS_3VecERKNS_2R2ERKNS_11MillerIndexESA_
FNDA:80,_ZN5neml215crystallography15CrystalGeometry19miller_to_cartesianERKNS_3VecERKNS_11MillerIndexE
FNDA:40,_ZN5neml215crystallography15CrystalGeometryC2ERKNS_9OptionSetERKNS_2R2ERKNS_3VecESt5tupleIJS8_S8_NS_6ScalarESt6vectorIlSaIlEEEE
FNDA:26,_ZNK5neml215crystallography15CrystalGeometry5nslipEv
FNDA:2,_ZNK5neml215crystallography15CrystalGeometry2a1Ev
FNDA:2,_ZNK5neml215crystallography15CrystalGeometry2b3Ev
FNDA:2,_ZNK5neml215crystallography15CrystalGeometry2b2Ev
FNDA:6,_ZNK5neml215crystallography15CrystalGeometry12nslip_groupsEv
FNDA:2,_ZNK5neml215crystallography15CrystalGeometry2b1Ev
FNDA:11,_ZN5neml215crystallography15CrystalGeometryC2ERKNS_9OptionSetE
FNF:16
FNH:16
DA:38,12
DA:40,12
DA:42,12
DA:43,12
DA:45,12
DA:46,12
DA:48,12
DA:49,24
DA:50,12
DA:52,12
DA:53,12
DA:55,12
DA:56,12
DA:58,12
DA:59,0
DA:61,11
DA:63,22
DA:64,22
DA:65,22
DA:66,22
DA:67,22
DA:68,55
DA:70,11
DA:72,29
DA:74,29
DA:78,58
DA:80,58
DA:81,87
DA:83,29
DA:86,2
DA:88,4
DA:92,2
DA:94,4
DA:98,2
DA:100,4
DA:104,2
DA:106,4
DA:110,2
DA:112,4
DA:116,2
DA:118,4
DA:122,26
DA:124,26
DA:128,6
DA:131,6
DA:135,2
DA:137,2
DA:138,2
DA:141,40
DA:144,40
DA:146,40
DA:147,40
DA:148,40
DA:149,80
DA:150,40
DA:151,40
DA:152,40
DA:153,40
DA:154,40
DA:155,40
DA:156,40
DA:157,40
DA:158,80
DA:159,80
DA:160,40
DA:161,80
DA:163,40
DA:166,80
DA:168,160
DA:169,160
DA:170,160
DA:172,720
DA:173,160
DA:174,240
DA:176,160
DA:177,80
DA:180,80
DA:183,160
DA:187,40
DA:193,40
DA:196,40
DA:197,0
DA:199,40
DA:200,40
DA:203,40
DA:204,40
DA:205,40
DA:206,40
DA:208,80
DA:211,120
DA:212,120
DA:215,40
DA:216,40
DA:221,40
DA:222,280
DA:224,720
DA:225,240
DA:227,480
DA:229,720
DA:231,960
DA:232,1440
DA:233,480
DA:234,480
DA:235,480
DA:236,480
DA:237,480
DA:238,240
DA:239,40
DA:240,40
DA:242,80
DA:243,80
DA:244,80
DA:245,80
DA:246,40
LF:114
LH:112
end_of_record
TN:
SF:/home/runner/work/neml2/neml2/src/neml2/models/crystallography/CubicCrystal.cxx
FN:38,_ZN5neml215crystallography12CubicCrystal16expected_optionsEv
FN:53,_ZN5neml215crystallography12CubicCrystalC2ERKNS_9OptionSetE
FNDA:29,_ZN5neml215crystallography12CubicCrystalC2ERKNS_9OptionSetE
FNDA:6,_ZN5neml215crystallography12CubicCrystal16expected_optionsEv
FNF:2
FNH:2
DA:38,6
DA:40,6
DA:41,6
DA:42,6
DA:44,6
DA:45,6
DA:47,6
DA:48,6
DA:50,6
DA:51,0
DA:53,29
DA:56,58
DA:57,87
DA:59,29
LF:14
LH:13
end_of_record
TN:
SF:/home/runner/work/neml2/neml2/src/neml2/models/crystallography/MillerIndex.cxx
FN:32,_ZN5neml211MillerIndex4fillEiiiRKN3c1013TensorOptionsE
FN:38,_ZNK5neml211MillerIndex6reduceEv
FN:48,_ZNK5neml211MillerIndex6to_vecERKN3c1013TensorOptionsE
FN:54,_ZNK5neml211MillerIndex17to_normalized_vecERKN3c1013TensorOptionsE
FNDA:83,_ZNK5neml211MillerIndex6reduceEv
FNDA:2,_ZNK5neml211MillerIndex17to_normalized_vecERKN3c1013TensorOptionsE
FNDA:10,_ZN5neml211MillerIndex4fillEiiiRKN3c1013TensorOptionsE
FNDA:84,_ZNK5neml211MillerIndex6to_vecERKN3c1013TensorOptionsE
FNF:4
FNH:4
DA:32,10
DA:34,50
DA:38,83
DA:42,415
DA:43,83
DA:44,83
DA:48,84
DA:50,168
DA:54,2
DA:56,2
DA:57,6
DA:58,2
LF:12
LH:12
end_of_record
TN:
SF:/home/runner/work/neml2/neml2/src/neml2/models/crystallography/crystallography.cxx
FN:37,_ZN5neml215crystallography26crystal_symmetry_operators10tetragonalERKN3c1013TensorOptionsE
FN:51,_ZN5neml215crystallography26crystal_symmetry_operators9hexagonalERKN3c1013TensorOptionsE
FN:69,_ZN5neml215crystallography26crystal_symmetry_operators5cubicERKN3c1013TensorOptionsE
FN:82,_ZN5neml215crystallography33symmetry_operations_from_orbifoldESsRKN3c1013TensorOptionsE
FN:131,_ZN5neml215crystallography20unique_bidirectionalERKNS_2R2ERKNS_3VecE
FN:145,_ZZN5neml215crystallography20unique_bidirectionalERKNS_2R2ERKNS_3VecEENKUlRKN2at6TensorESA_E_clESA_SA_
FNDA:3120,_ZZN5neml215crystallography20unique_bidirectionalERKNS_2R2ERKNS_3VecEENKUlRKN2at6TensorESA_E_clESA_SA_
FNDA:95,_ZN5neml215crystallography33symmetry_operations_from_orbifoldESsRKN3c1013TensorOptionsE
FNDA:80,_ZN5neml215crystallography20unique_bidirectionalERKNS_2R2ERKNS_3VecE
FNDA:20,_ZN5neml215crystallography26crystal_symmetry_operators9hexagonalERKN3c1013TensorOptionsE
FNDA:59,_ZN5neml215crystallography26crystal_symmetry_operators5cubicERKN3c1013TensorOptionsE
FNDA:24,_ZN5neml215crystallography26crystal_symmetry_operators10tetragonalERKN3c1013TensorOptionsE
FNF:6
FNH:6
DA:37,24
DA:39,960
DA:47,984
DA:51,20
DA:53,1200
DA:65,1220
DA:69,59
DA:71,7080
DA:77,7139
DA:82,95
DA:84,95
DA:85,110
DA:87,40
DA:89,12
DA:91,36
DA:92,8
DA:94,32
DA:95,36
DA:96,12
DA:97,20
DA:99,28
DA:101,12
DA:103,24
DA:105,12
DA:107,20
DA:108,8
DA:110,16
DA:111,36
DA:112,12
DA:113,20
DA:115,12
DA:117,12
DA:119,8
DA:121,12
DA:123,4
DA:125,12
DA:127,0
DA:131,80
DA:133,80
DA:135,80
DA:139,400
DA:140,80
DA:141,1920
DA:143,3680
DA:145,3120
DA:146,6240
DA:147,1840
DA:149,320
DA:150,320
DA:152,1840
DA:154,160
DA:155,80
LF:52
LH:51
end_of_record
TN:
SF:/home/runner/work/neml2/neml2/src/neml2/models/crystallography/user_tensors/FillMillerIndex.cxx
FN:35,_ZN5neml215crystallography15FillMillerIndex16expected_optionsEv
FN:46,_ZN5neml215crystallography15FillMillerIndexC2ERKNS_9OptionSetE
FN:53,_ZNK5neml215crystallography15FillMillerIndex4fillERKSt6vectorIiSaIiEE
FNDA:163,_ZNK5neml215crystallography15FillMillerIndex4fillERKSt6vectorIiSaIiEE
FNDA:163,_ZN5neml215crystallography15FillMillerIndexC2ERKNS_9OptionSetE
FNDA:6,_ZN5neml215crystallography15FillMillerIndex16expected_optionsEv
FNF:3
FNH:3
DA:35,6
DA:37,6
DA:38,6
DA:39,6
DA:41,6
DA:42,6
DA:43,6
DA:44,0
DA:46,163
DA:48,165
DA:50,162
DA:53,163
DA:55,163
DA:56,1
DA:58,324
LF:15
LH:14
end_of_record
TN:
SF:/home/runner/work/neml2/neml2/src/neml2/models/crystallography/user_tensors/SymmetryFromOrbifold.cxx
FN:36,_ZN5neml215crystallography20SymmetryFromOrbifold16expected_optionsEv
FN:49,_ZN5neml215crystallography20SymmetryFromOrbifoldC2ERKNS_9OptionSetE
FNDA:66,_ZN5neml215crystallography20SymmetryFromOrbifoldC2ERKNS_9OptionSetE
FNDA:6,_ZN5neml215crystallography20SymmetryFromOrbifold16expected_optionsEv
FNF:2
FNH:2
DA:36,6
DA:38,6
DA:39,6
DA:40,6
DA:42,6
DA:43,12
DA:45,6
DA:46,6
DA:47,0
DA:49,66
DA:50,66
DA:51,66
DA:53,66
LF:13
LH:12
end_of_record
TN:
SF:/home/runner/work/neml2/neml2/src/neml2/models/solid_mechanics/AnisotropicElasticity.cxx
FN:30,_ZN5neml221AnisotropicElasticity16expected_optionsEv
FN:41,_ZN5neml221AnisotropicElasticityC2ERKNS_9OptionSetE
FNDA:6,_ZN5neml221AnisotropicElasticity16expected_optionsEv
FNDA:10,_ZN5neml221AnisotropicElasticityC2ERKNS_9OptionSetE
FNF:2
FNH:2
DA:30,6
DA:32,6
DA:33,6
DA:35,6
DA:36,6
DA:38,6
DA:39,0
DA:41,10
DA:43,10
DA:45,10
LF:10
LH:9
end_of_record
TN:
SF:/home/runner/work/neml2/neml2/src/neml2/models/solid_mechanics/AssociativeIsotropicPlasticHardening.cxx
FN:32,_ZN5neml236AssociativeIsotropicPlasticHardening16expected_optionsEv
FN:52,_ZN5neml236AssociativeIsotropicPlasticHardeningC2ERKNS_9OptionSetE
FN:61,_ZN5neml236AssociativeIsotropicPlasticHardening9set_valueEbbb
FNDA:6,_ZN5neml236AssociativeIsotropicPlasticHardening16expected_optionsEv
FNDA:3,_ZN5neml236AssociativeIsotropicPlasticHardeningC2ERKNS_9OptionSetE
FNDA:189,_ZN5neml236AssociativeIsotropicPlasticHardening9set_valueEbbb
FNF:3
FNH:3
DA:32,6
DA:34,6
DA:35,6
DA:39,6
DA:41,6
DA:42,12
DA:43,6
DA:45,12
DA:46,18
DA:47,6
DA:49,6
DA:50,0
DA:52,3
DA:53,3
DA:55,6
DA:56,3
DA:58,3
DA:61,189
DA:63,189
DA:70,189
DA:71,187
DA:73,189
DA:75,85
DA:76,85
DA:78,85
DA:79,85
DA:81,189
LF:27
LH:26
end_of_record
TN:
SF:/home/runner/work/neml2/neml2/src/neml2/models/solid_mechanics/AssociativeJ2FlowDirection.cxx
FN:33,_ZN5neml226AssociativeJ2FlowDirection16expected_optionsEv
FN:47,_ZN5neml226AssociativeJ2FlowDirectionC2ERKNS_9OptionSetE
FN:55,_ZN5neml226AssociativeJ2FlowDirection9set_valueEbbb
FNDA:6,_ZN5neml226AssociativeJ2FlowDirection16expected_optionsEv
FNDA:2,_ZN5neml226AssociativeJ2FlowDirectionC2ERKNS_9OptionSetE
FNDA:30,_ZN5neml226AssociativeJ2FlowDirection9set_valueEbbb
FNF:3
FNH:3
DA:33,6
DA:35,6
DA:36,6
DA:38,6
DA:39,6
DA:41,6
DA:42,6
DA:44,6
DA:45,0
DA:47,2
DA:49,4
DA:50,2
DA:52,2
DA:55,30
DA:57,30
DA:59,30
DA:60,30
DA:61,30
DA:63,30
DA:65,28
DA:68,30
DA:69,4
DA:71,4
DA:72,4
DA:74,4
DA:75,4
DA:76,30
LF:27
LH:26
end_of_record
TN:
SF:/home/runner/work/neml2/neml2/src/neml2/models/solid_mechanics/AssociativeKinematicPlasticHardening.cxx
FN:33,_ZN5neml236AssociativeKinematicPlasticHardening16expected_optionsEv
FN:54,_ZN5neml236AssociativeKinematicPlasticHardeningC2ERKNS_9OptionSetE
FN:63,_ZN5neml236AssociativeKinematicPlasticHardening9set_valueEbbb
FNDA:6,_ZN5neml236AssociativeKinematicPlasticHardening16expected_optionsEv
FNDA:33,_ZN5neml236AssociativeKinematicPlasticHardening9set_valueEbbb
FNDA:2,_ZN5neml236AssociativeKinematicPlasticHardeningC2ERKNS_9OptionSetE
FNF:3
FNH:3
DA:33,6
DA:35,6
DA:36,6
DA:41,6
DA:43,6
DA:44,12
DA:45,6
DA:47,12
DA:48,18
DA:49,6
DA:51,6
DA:52,0
DA:54,2
DA:55,2
DA:57,4
DA:58,2
DA:60,2
DA:63,33
DA:65,33
DA:72,33
DA:73,31
DA:75,33
DA:77,4
DA:79,4
DA:80,4
DA:82,4
DA:83,4
DA:84,4
DA:85,33
LF:29
LH:28
end_of_record
TN:
SF:/home/runner/work/neml2/neml2/src/neml2/models/solid_mechanics/AssociativePlasticFlow.cxx
FN:33,_ZN5neml222AssociativePlasticFlow16expected_optionsEv
FN:52,_ZN5neml222AssociativePlasticFlowC2ERKNS_9OptionSetE
FN:60,_ZN5neml222AssociativePlasticFlow9set_valueEbbb
FNDA:5,_ZN5neml222AssociativePlasticFlowC2ERKNS_9OptionSetE
FNDA:362,_ZN5neml222AssociativePlasticFlow9set_valueEbbb
FNDA:6,_ZN5neml222AssociativePlasticFlow16expected_optionsEv
FNF:3
FNH:3
DA:33,6
DA:35,6
DA:36,6
DA:41,6
DA:43,6
DA:44,6
DA:46,6
DA:47,6
DA:49,6
DA:50,0
DA:52,5
DA:54,10
DA:55,5
DA:57,5
DA:60,362
DA:62,362
DA:68,362
DA:69,360
DA:71,362
DA:73,155
DA:75,155
DA:76,155
DA:78,155
DA:79,155
DA:80,155
DA:81,362
LF:26
LH:25
end_of_record
TN:
SF:/home/runner/work/neml2/neml2/src/neml2/models/solid_mechanics/ChabochePlasticHardening.cxx
FN:34,_ZN5neml224ChabochePlasticHardening16expected_optionsEv
FN:52,_ZN5neml224ChabochePlasticHardeningC2ERKNS_9OptionSetE
FN:60,_ZN5neml224ChabochePlasticHardening9set_valueEbbb
FNDA:6,_ZN5neml224ChabochePlasticHardening16expected_optionsEv
FNDA:444,_ZN5neml224ChabochePlasticHardening9set_valueEbbb
FNDA:6,_ZN5neml224ChabochePlasticHardeningC2ERKNS_9OptionSetE
FNF:3
FNH:3
DA:34,6
DA:36,6
DA:37,6
DA:41,6
DA:43,6
DA:44,6
DA:46,6
DA:47,6
DA:49,6
DA:50,0
DA:52,6
DA:54,6
DA:55,12
DA:57,6
DA:60,444
DA:62,444
DA:65,444
DA:68,444
DA:70,444
DA:73,884
DA:74,442
DA:75,442
DA:77,444
DA:79,170
DA:81,170
DA:82,510
DA:83,680
DA:85,170
DA:86,4
DA:88,170
DA:89,4
DA:90,170
DA:91,444
LF:33
LH:32
end_of_record
TN:
SF:/home/runner/work/neml2/neml2/src/neml2/models/solid_mechanics/CubicElasticityTensor.cxx
FN:33,_ZN5neml221CubicElasticityTensor16expected_optionsEv
FN:43,_ZN5neml221CubicElasticityTensorC2ERKNS_9OptionSetE
FN:49,_ZN5neml221CubicElasticityTensor9set_valueEbbb
FN:72,_ZN5neml221CubicElasticityTensor13convert_to_C1Ev
FN:87,_ZN5neml221CubicElasticityTensor13convert_to_C2Ev
FN:102,_ZN5neml221CubicElasticityTensor13convert_to_C3Ev
FNDA:30,_ZN5neml221CubicElasticityTensor13convert_to_C3Ev
FNDA:4,_ZN5neml221CubicElasticityTensorC2ERKNS_9OptionSetE
FNDA:30,_ZN5neml221CubicElasticityTensor9set_valueEbbb
FNDA:6,_ZN5neml221CubicElasticityTensor16expected_optionsEv
FNDA:30,_ZN5neml221CubicElasticityTensor13convert_to_C2Ev
FNDA:30,_ZN5neml221CubicElasticityTensor13convert_to_C1Ev
FNF:6
FNH:6
DA:33,6
DA:35,6
DA:36,6
DA:38,6
DA:40,6
DA:41,0
DA:43,4
DA:44,4
DA:46,4
DA:49,30
DA:51,30
DA:52,30
DA:53,30
DA:54,30
DA:55,30
DA:56,30
DA:57,30
DA:58,30
DA:59,30
DA:60,30
DA:62,8
DA:63,8
DA:64,8
DA:65,8
DA:66,8
DA:67,8
DA:69,30
DA:72,30
DA:74,60
DA:76,30
DA:77,30
DA:79,60
DA:80,60
DA:81,60
DA:82,60
DA:83,210
DA:84,60
DA:85,30
DA:87,30
DA:89,60
DA:91,30
DA:92,30
DA:94,60
DA:95,60
DA:96,60
DA:97,60
DA:98,210
DA:99,60
DA:100,30
DA:102,30
DA:104,60
DA:106,30
DA:108,30
DA:110,150
DA:112,60
DA:113,30
LF:56
LH:55
end_of_record
TN:
SF:/home/runner/work/neml2/neml2/src/neml2/models/solid_mechanics/Eigenstrain.cxx
FN:30,_ZN5neml211Eigenstrain16expected_optionsEv
FN:40,_ZN5neml211EigenstrainC2ERKNS_9OptionSetE
FNDA:6,_ZN5neml211Eigenstrain16expected_optionsEv
FNDA:4,_ZN5neml211EigenstrainC2ERKNS_9OptionSetE
FNF:2
FNH:2
DA:30,6
DA:32,6
DA:34,6
DA:35,6
DA:37,6
DA:38,0
DA:40,4
DA:42,4
DA:44,4
LF:9
LH:8
end_of_record
TN:
SF:/home/runner/work/neml2/neml2/src/neml2/models/solid_mechanics/Elasticity.cxx
FN:30,_ZN5neml210Elasticity16expected_optionsEv
FN:54,_ZN5neml210ElasticityC2ERKNS_9OptionSetE
FNDA:38,_ZN5neml210ElasticityC2ERKNS_9OptionSetE
FNDA:12,_ZN5neml210Elasticity16expected_optionsEv
FNF:2
FNH:2
DA:30,12
DA:32,12
DA:33,12
DA:35,12
DA:36,12
DA:38,12
DA:39,12
DA:41,12
DA:42,24
DA:44,12
DA:46,12
DA:47,24
DA:49,12
DA:51,12
DA:52,0
DA:54,38
DA:56,38
DA:57,38
DA:58,38
DA:59,38
DA:60,38
DA:61,76
DA:63,38
LF:23
LH:22
end_of_record
TN:
SF:/home/runner/work/neml2/neml2/src/neml2/models/solid_mechanics/ElasticityTensor.cxx
FN:34,_ZN5neml216ElasticityTensor16expected_optionsEv
FN:56,_ZN5neml216ElasticityTensorC2ERKNS_9OptionSetE
FN:66,_ZNK5neml216ElasticityTensor5remapERKSt6vectorINS0_9ParamTypeESaIS2_EE
FN:86,_ZNK5neml216ElasticityTensor14reorder_derivsERKSt6vectorINS_6ScalarESaIS2_EERKS1_ImSaImEE
FNDA:142,_ZNK5neml216ElasticityTensor5remapERKSt6vectorINS0_9ParamTypeESaIS2_EE
FNDA:142,_ZNK5neml216ElasticityTensor14reorder_derivsERKSt6vectorINS_6ScalarESaIS2_EERKS1_ImSaImEE
FNDA:8,_ZN5neml216ElasticityTensorC2ERKNS_9OptionSetE
FNDA:12,_ZN5neml216ElasticityTensor16expected_optionsEv
FNF:4
FNH:4
DA:34,12
DA:36,12
DA:37,12
DA:45,108
DA:46,12
DA:47,24
DA:48,36
DA:50,12
DA:51,12
DA:53,24
DA:54,12
DA:56,8
DA:58,8
DA:59,16
DA:61,8
DA:63,8
DA:66,142
DA:68,142
DA:69,142
DA:71,516
DA:73,374
DA:74,374
DA:77,374
DA:78,374
DA:79,374
DA:82,284
DA:83,142
DA:86,142
DA:89,142
DA:90,516
DA:92,374
DA:94,142
LF:32
LH:32
end_of_record
TN:
SF:/home/runner/work/neml2/neml2/src/neml2/models/solid_mechanics/FlowRule.cxx
FN:30,_ZN5neml28FlowRule16expected_optionsEv
FN:42,_ZN5neml28FlowRuleC2ERKNS_9OptionSetE
FNDA:36,_ZN5neml28FlowRule16expected_optionsEv
FNDA:24,_ZN5neml28FlowRuleC2ERKNS_9OptionSetE
FNF:2
FNH:2
DA:30,36
DA:32,36
DA:33,36
DA:34,36
DA:36,36
DA:37,36
DA:39,36
DA:40,0
DA:42,24
DA:44,24
DA:46,24
LF:11
LH:10
end_of_record
TN:
SF:/home/runner/work/neml2/neml2/src/neml2/models/solid_mechanics/FredrickArmstrongPlasticHardening.cxx
FN:34,_ZN5neml233FredrickArmstrongPlasticHardening16expected_optionsEv
FN:64,_ZN5neml233FredrickArmstrongPlasticHardeningC2ERKNS_9OptionSetE
FN:77,_ZN5neml233FredrickArmstrongPlasticHardening9set_valueEbbb
FNDA:12,_ZN5neml233FredrickArmstrongPlasticHardening16expected_optionsEv
FNDA:538,_ZN5neml233FredrickArmstrongPlasticHardening9set_valueEbbb
FNDA:10,_ZN5neml233FredrickArmstrongPlasticHardeningC2ERKNS_9OptionSetE
FNF:3
FNH:3
DA:34,12
DA:36,12
DA:37,12
DA:44,12
DA:46,12
DA:47,12
DA:49,12
DA:50,12
DA:52,12
DA:53,12
DA:55,12
DA:56,12
DA:58,12
DA:59,12
DA:61,12
DA:62,0
DA:64,10
DA:66,20
DA:67,10
DA:68,30
DA:69,20
DA:71,10
DA:72,20
DA:74,10
DA:77,538
DA:79,538
DA:83,538
DA:85,1076
DA:87,538
DA:88,534
DA:90,538
DA:92,178
DA:94,178
DA:95,178
DA:97,178
DA:98,178
DA:100,178
DA:101,178
DA:103,178
DA:104,8
DA:106,178
DA:107,8
DA:108,178
DA:109,538
LF:44
LH:43
end_of_record
TN:
SF:/home/runner/work/neml2/neml2/src/neml2/models/solid_mechanics/GTNYieldFunction.cxx
FN:33,_ZN5neml216GTNYieldFunction16expected_optionsEv
FN:77,_ZN5neml216GTNYieldFunctionC2ERKNS_9OptionSetE
FN:94,_ZN5neml216GTNYieldFunction9set_valueEbbb
FNDA:6,_ZN5neml216GTNYieldFunction16expected_optionsEv
FNDA:6,_ZN5neml216GTNYieldFunctionC2ERKNS_9OptionSetE
FNDA:154,_ZN5neml216GTNYieldFunction9set_valueEbbb
FNF:3
FNH:3
DA:33,6
DA:35,6
DA:36,6
DA:44,6
DA:46,6
DA:47,6
DA:49,6
DA:50,12
DA:51,6
DA:53,6
DA:54,6
DA:56,6
DA:57,6
DA:59,6
DA:60,6
DA:62,6
DA:63,6
DA:65,6
DA:66,6
DA:68,6
DA:69,6
DA:71,6
DA:72,6
DA:74,6
DA:75,0
DA:77,6
DA:79,12
DA:80,6
DA:81,6
DA:82,6
DA:83,12
DA:84,6
DA:85,6
DA:86,6
DA:87,6
DA:88,6
DA:89,12
DA:91,6
DA:94,154
DA:97,154
DA:99,154
DA:100,148
DA:101,296
DA:103,154
DA:105,74
DA:106,74
DA:108,74
DA:109,74
DA:111,74
DA:112,74
DA:114,74
DA:115,222
DA:116,296
DA:119,74
DA:120,84
DA:121,112
DA:123,74
DA:124,28
DA:126,74
DA:127,28
DA:129,74
DA:130,28
DA:133,154
DA:135,18
DA:136,18
DA:137,18
DA:138,18
DA:169,18
DA:171,18
DA:173,18
DA:174,18
DA:176,18
DA:177,6
DA:187,18
DA:189,54
DA:190,72
DA:192,18
DA:193,18
DA:195,18
DA:196,54
DA:197,36
DA:198,72
DA:199,72
DA:200,18
DA:201,18
DA:202,12
DA:203,24
DA:204,24
DA:206,18
DA:207,6
DA:209,18
DA:210,18
DA:211,12
DA:212,24
DA:213,24
DA:223,18
DA:225,18
DA:226,18
DA:228,18
DA:230,18
DA:231,18
DA:233,18
DA:234,6
DA:236,18
DA:237,6
DA:239,18
DA:240,6
DA:242,18
DA:243,6
DA:253,18
DA:255,18
DA:256,18
DA:258,18
DA:259,54
DA:260,36
DA:261,72
DA:262,72
DA:264,18
DA:265,18
DA:267,18
DA:268,36
DA:269,36
DA:270,72
DA:271,72
DA:273,18
DA:274,6
DA:275,12
DA:276,12
DA:277,24
DA:278,24
DA:280,18
DA:281,6
DA:283,18
DA:284,18
DA:285,12
DA:286,24
DA:287,24
DA:297,18
DA:299,6
DA:300,6
DA:302,6
DA:303,6
DA:305,6
DA:306,6
DA:307,12
DA:308,12
DA:309,24
DA:310,24
DA:312,6
DA:313,12
DA:314,12
DA:315,24
DA:316,24
DA:318,6
DA:319,6
DA:321,6
DA:322,18
DA:323,12
DA:324,24
DA:325,24
DA:335,18
DA:337,6
DA:338,6
DA:340,6
DA:341,6
DA:343,6
DA:344,6
DA:346,6
DA:347,6
DA:349,6
DA:350,6
DA:360,18
DA:362,6
DA:363,18
DA:364,12
DA:365,24
DA:366,24
DA:368,6
DA:369,6
DA:371,6
DA:372,18
DA:373,12
DA:374,24
DA:375,24
DA:377,6
DA:378,18
DA:379,12
DA:380,24
DA:381,24
DA:383,6
DA:384,6
DA:386,18
DA:387,24
DA:397,18
DA:399,6
DA:400,6
DA:403,154
LF:197
LH:196
end_of_record
TN:
SF:/home/runner/work/neml2/neml2/src/neml2/models/solid_mechanics/GeneralElasticity.cxx
FN:34,_ZN5neml217GeneralElasticity16expected_optionsEv
FN:46,_ZN5neml217GeneralElasticityC2ERKNS_9OptionSetE
FN:53,_ZN5neml217GeneralElasticity9set_valueEbbb
FNDA:6,_ZN5neml217GeneralElasticity16expected_optionsEv
FNDA:426,_ZN5neml217GeneralElasticity9set_valueEbbb
FNDA:10,_ZN5neml217GeneralElasticityC2ERKNS_9OptionSetE
FNF:3
FNH:3
DA:34,6
DA:36,6
DA:37,6
DA:38,6
DA:40,6
DA:41,6
DA:43,6
DA:44,0
DA:46,10
DA:48,10
DA:50,10
DA:53,426
DA:55,426
DA:57,426
DA:59,426
DA:60,175
DA:62,426
DA:63,420
DA:65,426
DA:67,20
DA:68,20
DA:70,20
DA:72,20
DA:73,8
DA:74,64
DA:75,32
DA:76,8
DA:78,12
DA:79,48
DA:82,20
DA:84,8
DA:85,12
DA:86,32
DA:87,16
DA:88,4
DA:90,16
DA:91,4
DA:94,426
LF:38
LH:37
end_of_record
TN:
SF:/home/runner/work/neml2/neml2/src/neml2/models/solid_mechanics/GursonCavitation.cxx
FN:33,_ZN5neml216GursonCavitation16expected_optionsEv
FN:51,_ZN5neml216GursonCavitationC2ERKNS_9OptionSetE
FN:60,_ZN5neml216GursonCavitation9set_valueEbbb
FNDA:2,_ZN5neml216GursonCavitationC2ERKNS_9OptionSetE
FNDA:6,_ZN5neml216GursonCavitation16expected_optionsEv
FNDA:33,_ZN5neml216GursonCavitation9set_valueEbbb
FNF:3
FNH:3
DA:33,6
DA:35,6
DA:36,6
DA:37,6
DA:39,6
DA:40,6
DA:42,6
DA:43,6
DA:45,6
DA:46,6
DA:48,6
DA:49,0
DA:51,2
DA:53,4
DA:54,2
DA:55,4
DA:57,2
DA:60,33
DA:62,33
DA:64,33
DA:66,33
DA:67,31
DA:69,33
DA:71,4
DA:73,4
DA:74,4
DA:76,4
DA:77,4
DA:78,4
DA:79,33
LF:30
LH:29
end_of_record
TN:
SF:/home/runner/work/neml2/neml2/src/neml2/models/solid_mechanics/IsotropicElasticityTensor.cxx
FN:34,_ZN5neml225IsotropicElasticityTensor16expected_optionsEv
FN:43,_ZN5neml225IsotropicElasticityTensorC2ERKNS_9OptionSetE
FN:51,_ZN5neml225IsotropicElasticityTensor9set_valueEbbb
FN:75,_ZN5neml225IsotropicElasticityTensor17convert_to_lambdaEv
FN:90,_ZN5neml225IsotropicElasticityTensor13convert_to_muEv
FNDA:26,_ZN5neml225IsotropicElasticityTensor9set_valueEbbb
FNDA:6,_ZN5neml225IsotropicElasticityTensor16expected_optionsEv
FNDA:26,_ZN5neml225IsotropicElasticityTensor13convert_to_muEv
FNDA:26,_ZN5neml225IsotropicElasticityTensor17convert_to_lambdaEv
FNDA:4,_ZN5neml225IsotropicElasticityTensorC2ERKNS_9OptionSetE
FNF:5
FNH:5
DA:34,6
DA:36,6
DA:37,6
DA:38,6
DA:40,6
DA:41,0
DA:43,4
DA:44,4
DA:46,4
DA:48,4
DA:51,26
DA:53,26
DA:55,26
DA:56,26
DA:58,26
DA:59,26
DA:61,26
DA:62,26
DA:64,26
DA:66,8
DA:67,8
DA:69,8
DA:70,8
DA:72,26
DA:75,26
DA:77,52
DA:79,26
DA:80,26
DA:82,52
DA:83,52
DA:84,52
DA:85,182
DA:87,52
DA:88,26
DA:90,26
DA:92,52
DA:94,26
DA:95,26
DA:97,52
DA:98,130
DA:100,52
DA:101,26
LF:42
LH:41
end_of_record
TN:
SF:/home/runner/work/neml2/neml2/src/neml2/models/solid_mechanics/IsotropicHardening.cxx
FN:30,_ZN5neml218IsotropicHardening16expected_optionsEv
FN:44,_ZN5neml218IsotropicHardeningC2ERKNS_9OptionSetE
FNDA:12,_ZN5neml218IsotropicHardening16expected_optionsEv
FNDA:7,_ZN5neml218IsotropicHardeningC2ERKNS_9OptionSetE
FNF:2
FNH:2
DA:30,12
DA:32,12
DA:33,12
DA:35,12
DA:36,12
DA:38,12
DA:39,12
DA:41,12
DA:42,0
DA:44,7
DA:46,14
DA:47,7
DA:49,7
LF:13
LH:12
end_of_record
TN:
SF:/home/runner/work/neml2/neml2/src/neml2/models/solid_mechanics/IsotropicHardeningStaticRecovery.cxx
FN:31,_ZN5neml232IsotropicHardeningStaticRecovery16expected_optionsEv
FN:46,_ZN5neml232IsotropicHardeningStaticRecoveryC2ERKNS_9OptionSetE
FNDA:2,_ZN5neml232IsotropicHardeningStaticRecoveryC2ERKNS_9OptionSetE
FNDA:6,_ZN5neml232IsotropicHardeningStaticRecovery16expected_optionsEv
FNF:2
FNH:2
DA:31,6
DA:33,6
DA:34,6
DA:36,6
DA:37,6
DA:39,6
DA:40,12
DA:41,6
DA:43,6
DA:44,0
DA:46,2
DA:48,4
DA:49,2
DA:50,4
DA:51,4
DA:52,2
DA:54,2
LF:17
LH:16
end_of_record
TN:
SF:/home/runner/work/neml2/neml2/src/neml2/models/solid_mechanics/IsotropicMandelStress.cxx
FN:33,_ZN5neml221IsotropicMandelStress16expected_optionsEv
FN:43,_ZN5neml221IsotropicMandelStress9set_valueEbbb
FNDA:6,_ZN5neml221IsotropicMandelStress16expected_optionsEv
FNDA:359,_ZN5neml221IsotropicMandelStress9set_valueEbbb
FNF:2
FNH:2
DA:33,6
DA:35,6
DA:36,6
DA:37,6
DA:39,6
DA:40,0
DA:43,359
DA:47,359
DA:48,357
DA:50,359
DA:51,155
DA:52,155
DA:58,359
LF:13
LH:12
end_of_record
TN:
SF:/home/runner/work/neml2/neml2/src/neml2/models/solid_mechanics/KinematicHardening.cxx
FN:30,_ZN5neml218KinematicHardening16expected_optionsEv
FN:44,_ZN5neml218KinematicHardeningC2ERKNS_9OptionSetE
FNDA:6,_ZN5neml218KinematicHardening16expected_optionsEv
FNDA:2,_ZN5neml218KinematicHardeningC2ERKNS_9OptionSetE
FNF:2
FNH:2
DA:30,6
DA:32,6
DA:33,6
DA:35,6
DA:36,6
DA:38,6
DA:39,6
DA:41,6
DA:42,0
DA:44,2
DA:46,4
DA:47,2
DA:49,2
LF:13
LH:12
end_of_record
TN:
SF:/home/runner/work/neml2/neml2/src/neml2/models/solid_mechanics/KinematicHardeningStaticRecovery.cxx
FN:32,_ZN5neml232KinematicHardeningStaticRecovery16expected_optionsEv
FN:47,_ZN5neml232KinematicHardeningStaticRecoveryC2ERKNS_9OptionSetE
FNDA:6,_ZN5neml232KinematicHardeningStaticRecovery16expected_optionsEv
FNDA:2,_ZN5neml232KinematicHardeningStaticRecoveryC2ERKNS_9OptionSetE
FNF:2
FNH:2
DA:32,6
DA:34,6
DA:35,6
DA:37,6
DA:38,6
DA:40,6
DA:41,12
DA:42,6
DA:44,6
DA:45,0
DA:47,2
DA:49,4
DA:50,6
DA:51,4
DA:52,2
DA:54,2
LF:16
LH:15
end_of_record
TN:
SF:/home/runner/work/neml2/neml2/src/neml2/models/solid_mechanics/KocksMeckingActivationEnergy.cxx
FN:33,_ZN5neml228KocksMeckingActivationEnergy16expected_optionsEv
FN:65,_ZN5neml228KocksMeckingActivationEnergyC2ERKNS_9OptionSetE
FN:78,_ZN5neml228KocksMeckingActivationEnergy9set_valueEbbb
FNDA:6,_ZN5neml228KocksMeckingActivationEnergy16expected_optionsEv
FNDA:30,_ZN5neml228KocksMeckingActivationEnergy9set_valueEbbb
FNDA:4,_ZN5neml228KocksMeckingActivationEnergyC2ERKNS_9OptionSetE
FNF:3
FNH:3
DA:33,6
DA:35,6
DA:36,6
DA:41,6
DA:43,6
DA:44,6
DA:46,6
DA:47,6
DA:49,6
DA:50,6
DA:51,6
DA:52,6
DA:54,6
DA:55,6
DA:57,6
DA:58,6
DA:60,6
DA:61,6
DA:62,6
DA:63,0
DA:65,4
DA:67,4
DA:68,4
DA:69,4
DA:70,4
DA:71,4
DA:72,4
DA:73,8
DA:75,4
DA:78,30
DA:80,30
DA:82,30
DA:83,28
DA:85,30
DA:87,8
DA:88,8
DA:90,8
DA:91,8
DA:93,8
DA:94,4
DA:96,30
LF:41
LH:40
end_of_record
TN:
SF:/home/runner/work/neml2/neml2/src/neml2/models/solid_mechanics/KocksMeckingFlowSwitch.cxx
FN:33,_ZN5neml222KocksMeckingFlowSwitch16expected_optionsEv
FN:62,_ZN5neml222KocksMeckingFlowSwitchC2ERKNS_9OptionSetE
FN:74,_ZN5neml222KocksMeckingFlowSwitch9set_valueEbbb
FNDA:6,_ZN5neml222KocksMeckingFlowSwitch16expected_optionsEv
FNDA:4,_ZN5neml222KocksMeckingFlowSwitchC2ERKNS_9OptionSetE
FNDA:34,_ZN5neml222KocksMeckingFlowSwitch9set_valueEbbb
FNF:3
FNH:3
DA:33,6
DA:35,6
DA:36,6
DA:40,6
DA:42,6
DA:43,6
DA:45,6
DA:46,6
DA:48,6
DA:49,12
DA:50,6
DA:52,6
DA:53,6
DA:54,6
DA:55,6
DA:57,6
DA:58,6
DA:59,6
DA:60,0
DA:62,4
DA:64,4
DA:65,4
DA:66,4
DA:67,4
DA:68,4
DA:69,8
DA:71,4
DA:74,34
DA:76,34
DA:78,68
DA:80,34
DA:81,32
DA:83,34
DA:85,8
DA:86,8
DA:88,8
DA:89,8
DA:91,8
DA:92,8
DA:94,8
DA:95,4
DA:96,8
DA:97,34
LF:43
LH:42
end_of_record
TN:
SF:/home/runner/work/neml2/neml2/src/neml2/models/solid_mechanics/KocksMeckingFlowViscosity.cxx
FN:33,_ZN5neml225KocksMeckingFlowViscosity16expected_optionsEv
FN:67,_ZN5neml225KocksMeckingFlowViscosityC2ERKNS_9OptionSetE
FN:80,_ZN5neml225KocksMeckingFlowViscosity9set_valueEbbb
FNDA:64,_ZN5neml225KocksMeckingFlowViscosity9set_valueEbbb
FNDA:4,_ZN5neml225KocksMeckingFlowViscosityC2ERKNS_9OptionSetE
FNDA:6,_ZN5neml225KocksMeckingFlowViscosity16expected_optionsEv
FNF:3
FNH:3
DA:33,6
DA:35,6
DA:36,6
DA:44,6
DA:46,6
DA:47,6
DA:48,6
DA:49,6
DA:50,6
DA:51,6
DA:53,6
DA:54,6
DA:56,6
DA:57,6
DA:58,6
DA:59,6
DA:61,6
DA:62,6
DA:64,6
DA:65,0
DA:67,4
DA:69,4
DA:70,4
DA:71,4
DA:72,4
DA:73,4
DA:74,4
DA:75,8
DA:77,4
DA:80,64
DA:82,128
DA:84,64
DA:85,58
DA:87,64
DA:89,32
DA:90,32
DA:92,32
DA:93,20
DA:95,32
DA:96,20
DA:98,32
DA:99,20
DA:102,64
DA:105,12
DA:107,12
DA:109,12
DA:110,12
DA:111,18
DA:113,12
DA:114,6
DA:116,12
DA:117,6
DA:118,12
DA:122,12
DA:124,6
DA:125,12
DA:126,18
DA:128,6
DA:130,6
DA:131,6
DA:133,6
DA:134,6
DA:135,12
DA:139,12
DA:141,6
DA:142,6
DA:144,6
DA:145,6
DA:147,6
DA:149,6
DA:150,6
DA:151,12
DA:155,12
DA:157,6
DA:158,6
DA:159,12
DA:161,6
DA:162,6
DA:163,12
DA:165,6
DA:166,6
DA:167,12
DA:169,18
DA:170,24
DA:173,64
LF:85
LH:84
end_of_record
TN:
SF:/home/runner/work/neml2/neml2/src/neml2/models/solid_mechanics/KocksMeckingIntercept.cxx
FN:34,_ZN5neml221KocksMeckingIntercept16expected_optionsEv
FN:53,_ZN5neml221KocksMeckingInterceptC2ERKNS_9OptionSetE
FN:62,_ZN5neml221KocksMeckingIntercept9set_valueEbbb
FNDA:4,_ZN5neml221KocksMeckingInterceptC2ERKNS_9OptionSetE
FNDA:55,_ZN5neml221KocksMeckingIntercept9set_valueEbbb
FNDA:6,_ZN5neml221KocksMeckingIntercept16expected_optionsEv
FNF:3
FNH:3
DA:34,6
DA:36,6
DA:38,6
DA:39,6
DA:41,6
DA:42,6
DA:44,6
DA:45,6
DA:47,6
DA:48,6
DA:50,6
DA:51,0
DA:53,4
DA:55,4
DA:56,4
DA:57,8
DA:59,4
DA:62,55
DA:64,55
DA:65,49
DA:67,55
DA:69,28
DA:70,18
DA:72,28
DA:73,18
DA:75,28
DA:76,18
DA:79,55
DA:81,12
DA:83,6
DA:84,6
DA:85,6
DA:86,6
DA:87,6
DA:90,12
DA:91,6
DA:92,6
DA:94,12
DA:95,6
DA:96,6
DA:98,55
LF:41
LH:40
end_of_record
TN:
SF:/home/runner/work/neml2/neml2/src/neml2/models/solid_mechanics/KocksMeckingRateSensitivity.cxx
FN:32,_ZN5neml227KocksMeckingRateSensitivity16expected_optionsEv
FN:56,_ZN5neml227KocksMeckingRateSensitivityC2ERKNS_9OptionSetE
FN:67,_ZN5neml227KocksMeckingRateSensitivity9set_valueEbbb
FNDA:6,_ZN5neml227KocksMeckingRateSensitivity16expected_optionsEv
FNDA:58,_ZN5neml227KocksMeckingRateSensitivity9set_valueEbbb
FNDA:4,_ZN5neml227KocksMeckingRateSensitivityC2ERKNS_9OptionSetE
FNF:3
FNH:3
DA:32,6
DA:34,6
DA:35,6
DA:39,6
DA:41,6
DA:42,6
DA:43,6
DA:44,6
DA:46,6
DA:47,6
DA:48,6
DA:49,6
DA:51,6
DA:52,6
DA:53,6
DA:54,0
DA:56,4
DA:58,4
DA:59,4
DA:60,4
DA:61,4
DA:62,8
DA:64,4
DA:67,58
DA:69,58
DA:70,52
DA:72,58
DA:74,30
DA:75,30
DA:76,30
DA:77,18
DA:78,30
DA:79,18
DA:82,58
DA:85,12
DA:86,12
DA:88,12
DA:91,6
DA:93,6
DA:95,12
DA:96,6
DA:97,6
DA:98,6
DA:101,12
DA:104,6
DA:106,12
DA:107,6
DA:108,6
DA:109,6
DA:111,6
DA:114,12
DA:115,6
DA:116,6
DA:117,6
DA:120,58
LF:55
LH:54
end_of_record
TN:
SF:/home/runner/work/neml2/neml2/src/neml2/models/solid_mechanics/KocksMeckingYieldStress.cxx
FN:33,_ZN5neml223KocksMeckingYieldStress16expected_optionsEv
FN:49,_ZN5neml223KocksMeckingYieldStressC2ERKNS_9OptionSetE
FN:57,_ZN5neml223KocksMeckingYieldStress9set_valueEbbb
FNDA:4,_ZN5neml223KocksMeckingYieldStressC2ERKNS_9OptionSetE
FNDA:49,_ZN5neml223KocksMeckingYieldStress9set_valueEbbb
FNDA:6,_ZN5neml223KocksMeckingYieldStress16expected_optionsEv
FNF:3
FNH:3
DA:33,6
DA:35,6
DA:37,6
DA:39,6
DA:41,6
DA:42,6
DA:43,6
DA:44,6
DA:46,6
DA:47,0
DA:49,4
DA:51,4
DA:52,8
DA:54,4
DA:57,49
DA:59,49
DA:60,43
DA:62,49
DA:64,26
DA:65,16
DA:67,26
DA:68,16
DA:71,49
DA:73,12
DA:75,6
DA:77,6
DA:79,6
DA:80,6
DA:84,49
LF:29
LH:28
end_of_record
TN:
SF:/home/runner/work/neml2/neml2/src/neml2/models/solid_mechanics/LinearIsotropicElasticJ2TrialStressUpdate.cxx
FN:32,_ZN5neml241LinearIsotropicElasticJ2TrialStressUpdate16expected_optionsEv
FN:59,_ZN5neml241LinearIsotropicElasticJ2TrialStressUpdateC2ERKNS_9OptionSetE
FN:72,_ZN5neml241LinearIsotropicElasticJ2TrialStressUpdate9set_valueEbbb
FNDA:25,_ZN5neml241LinearIsotropicElasticJ2TrialStressUpdate9set_valueEbbb
FNDA:6,_ZN5neml241LinearIsotropicElasticJ2TrialStressUpdate16expected_optionsEv
FNDA:2,_ZN5neml241LinearIsotropicElasticJ2TrialStressUpdateC2ERKNS_9OptionSetE
FNF:3
FNH:3
DA:32,6
DA:34,6
DA:36,6
DA:37,6
DA:39,6
DA:40,6
DA:42,6
DA:43,12
DA:44,6
DA:46,6
DA:47,12
DA:48,6
DA:50,6
DA:51,6
DA:53,6
DA:54,6
DA:56,6
DA:57,0
DA:59,2
DA:60,2
DA:62,4
DA:63,2
DA:64,2
DA:65,2
DA:66,2
DA:67,4
DA:69,2
DA:72,25
DA:74,50
DA:76,25
DA:77,23
DA:78,46
DA:80,25
DA:82,4
DA:83,4
DA:85,4
DA:86,4
DA:88,4
DA:89,4
DA:96,25
LF:40
LH:39
end_of_record
TN:
SF:/home/runner/work/neml2/neml2/src/neml2/models/solid_mechanics/LinearIsotropicElasticity.cxx
FN:34,_ZN5neml225LinearIsotropicElasticity16expected_optionsEv
FN:52,_ZN5neml225LinearIsotropicElasticityC2ERKNS_9OptionSetE
FN:60,_ZN5neml225LinearIsotropicElasticity9set_valueEbbb
FNDA:840,_ZN5neml225LinearIsotropicElasticity9set_valueEbbb
FNDA:28,_ZN5neml225LinearIsotropicElasticityC2ERKNS_9OptionSetE
FNDA:6,_ZN5neml225LinearIsotropicElasticity16expected_optionsEv
FNF:3
FNH:3
DA:34,6
DA:36,6
DA:37,6
DA:41,6
DA:43,6
DA:44,6
DA:46,6
DA:47,6
DA:49,6
DA:50,0
DA:52,28
DA:54,28
DA:55,56
DA:57,28
DA:60,840
DA:62,840
DA:66,1680
DA:67,1680
DA:68,942
DA:69,942
DA:71,840
DA:72,832
DA:74,840
DA:75,840
DA:77,840
DA:79,236
DA:80,236
DA:82,236
DA:83,236
DA:85,236
DA:87,32
DA:88,24
DA:89,8
DA:90,8
DA:92,236
DA:94,32
DA:95,24
DA:96,8
DA:97,8
DA:98,236
DA:99,840
LF:41
LH:40
end_of_record
TN:
SF:/home/runner/work/neml2/neml2/src/neml2/models/solid_mechanics/LinearIsotropicHardening.cxx
FN:32,_ZN5neml224LinearIsotropicHardening16expected_optionsEv
FN:44,_ZN5neml224LinearIsotropicHardeningC2ERKNS_9OptionSetE
FN:51,_ZN5neml224LinearIsotropicHardening9set_valueEbbb
FNDA:6,_ZN5neml224LinearIsotropicHardening16expected_optionsEv
FNDA:17,_ZN5neml224LinearIsotropicHardening9set_valueEbbb
FNDA:2,_ZN5neml224LinearIsotropicHardeningC2ERKNS_9OptionSetE
FNF:3
FNH:3
DA:32,6
DA:34,6
DA:35,6
DA:36,6
DA:38,6
DA:39,6
DA:41,6
DA:42,0
DA:44,2
DA:46,2
DA:48,2
DA:51,17
DA:53,17
DA:54,15
DA:56,17
DA:57,4
DA:58,4
DA:64,17
LF:18
LH:17
end_of_record
TN:
SF:/home/runner/work/neml2/neml2/src/neml2/models/solid_mechanics/LinearKinematicHardening.cxx
FN:33,_ZN5neml224LinearKinematicHardening16expected_optionsEv
FN:45,_ZN5neml224LinearKinematicHardeningC2ERKNS_9OptionSetE
FN:52,_ZN5neml224LinearKinematicHardening9set_valueEbbb
FNDA:6,_ZN5neml224LinearKinematicHardening16expected_optionsEv
FNDA:2,_ZN5neml224LinearKinematicHardeningC2ERKNS_9OptionSetE
FNDA:32,_ZN5neml224LinearKinematicHardening9set_valueEbbb
FNF:3
FNH:3
DA:33,6
DA:35,6
DA:36,6
DA:37,6
DA:39,6
DA:40,6
DA:42,6
DA:43,0
DA:45,2
DA:47,2
DA:49,2
DA:52,32
DA:54,32
DA:55,30
DA:57,32
DA:58,4
DA:59,4
DA:65,32
LF:18
LH:17
end_of_record
TN:
SF:/home/runner/work/neml2/neml2/src/neml2/models/solid_mechanics/MandelStress.cxx
FN:30,_ZN5neml212MandelStress16expected_optionsEv
FN:44,_ZN5neml212MandelStressC2ERKNS_9OptionSetE
FNDA:5,_ZN5neml212MandelStressC2ERKNS_9OptionSetE
FNDA:6,_ZN5neml212MandelStress16expected_optionsEv
FNF:2
FNH:2
DA:30,6
DA:32,6
DA:33,6
DA:35,6
DA:36,6
DA:38,6
DA:39,6
DA:41,6
DA:42,0
DA:44,5
DA:46,10
DA:47,5
DA:49,5
LF:13
LH:12
end_of_record
TN:
SF:/home/runner/work/neml2/neml2/src/neml2/models/solid_mechanics/MixedControlSetup.cxx
FN:33,_ZN5neml217MixedControlSetup16expected_optionsEv
FN:66,_ZN5neml217MixedControlSetupC2ERKNS_9OptionSetE
FN:78,_ZN5neml217MixedControlSetup9set_valueEbbb
FN:109,_ZNK5neml217MixedControlSetup14make_operatorsERKNS_3SR2E
FNDA:246,_ZNK5neml217MixedControlSetup14make_operatorsERKNS_3SR2E
FNDA:6,_ZN5neml217MixedControlSetup16expected_optionsEv
FNDA:4,_ZN5neml217MixedControlSetupC2ERKNS_9OptionSetE
FNDA:246,_ZN5neml217MixedControlSetup9set_valueEbbb
FNF:4
FNH:4
DA:33,6
DA:35,6
DA:36,6
DA:39,6
DA:41,6
DA:42,12
DA:44,6
DA:46,6
DA:47,6
DA:49,6
DA:50,12
DA:51,6
DA:53,6
DA:54,12
DA:55,6
DA:57,6
DA:58,6
DA:60,6
DA:61,6
DA:63,6
DA:64,0
DA:66,4
DA:68,4
DA:69,4
DA:70,4
DA:71,4
DA:72,4
DA:73,8
DA:75,4
DA:78,246
DA:80,492
DA:82,246
DA:85,244
DA:86,244
DA:89,246
DA:91,85
DA:93,4
DA:94,4
DA:97,85
DA:99,85
DA:100,85
DA:106,246
DA:109,246
DA:111,246
DA:112,246
DA:115,492
DA:116,492
DA:119,246
DA:120,246
DA:122,492
DA:123,246
LF:51
LH:50
end_of_record
TN:
SF:/home/runner/work/neml2/neml2/src/neml2/models/solid_mechanics/Normality.cxx
FN:33,_ZN5neml29Normality16expected_optionsEv
FN:54,_ZN5neml29NormalityC2ERKNS_9OptionSetE
FN:77,_ZN5neml29Normality18setup_output_viewsEv
FN:92,_ZN5neml29Normality9set_valueEbbb
FNDA:5,_ZN5neml29NormalityC2ERKNS_9OptionSetE
FNDA:366,_ZN5neml29Normality9set_valueEbbb
FNDA:6,_ZN5neml29Normality16expected_optionsEv
FNDA:30,_ZN5neml29Normality18setup_output_viewsEv
FNF:4
FNH:4
DA:33,6
DA:35,6
DA:36,6
DA:37,6
DA:39,6
DA:40,6
DA:42,6
DA:43,6
DA:45,6
DA:46,6
DA:48,6
DA:49,6
DA:51,6
DA:52,0
DA:54,5
DA:56,5
DA:57,10
DA:60,10
DA:61,10
DA:62,5
DA:64,5
DA:66,5
DA:68,15
DA:70,10
DA:71,10
DA:72,20
DA:74,5
DA:77,30
DA:79,30
DA:81,110
DA:83,240
DA:84,80
DA:85,288
DA:86,214
DA:87,1070
DA:89,30
DA:92,366
DA:94,366
DA:97,366
DA:98,366
DA:99,211
DA:101,155
DA:102,366
DA:104,977
DA:106,611
DA:107,605
DA:109,611
DA:110,836
DA:111,592
DA:112,592
DA:114,366
LF:51
LH:50
end_of_record
TN:
SF:/home/runner/work/neml2/neml2/src/neml2/models/solid_mechanics/OlevskySinteringStress.cxx
FN:32,_ZN5neml222OlevskySinteringStress16expected_optionsEv
FN:56,_ZN5neml222OlevskySinteringStressC2ERKNS_9OptionSetE
FN:66,_ZN5neml222OlevskySinteringStress9set_valueEbbb
FNDA:29,_ZN5neml222OlevskySinteringStress9set_valueEbbb
FNDA:2,_ZN5neml222OlevskySinteringStressC2ERKNS_9OptionSetE
FNDA:6,_ZN5neml222OlevskySinteringStress16expected_optionsEv
FNF:3
FNH:3
DA:32,6
DA:34,6
DA:35,6
DA:39,6
DA:41,6
DA:42,6
DA:44,6
DA:45,6
DA:47,6
DA:48,6
DA:50,6
DA:51,6
DA:53,6
DA:54,0
DA:56,2
DA:58,4
DA:59,2
DA:60,2
DA:61,4
DA:63,2
DA:66,29
DA:68,29
DA:69,23
DA:71,29
DA:72,12
DA:73,12
DA:75,29
DA:76,6
DA:77,6
DA:78,29
LF:30
LH:29
end_of_record
TN:
SF:/home/runner/work/neml2/neml2/src/neml2/models/solid_mechanics/PerzynaPlasticFlowRate.cxx
FN:33,_ZN5neml222PerzynaPlasticFlowRate16expected_optionsEv
FN:51,_ZN5neml222PerzynaPlasticFlowRateC2ERKNS_9OptionSetE
FN:59,_ZN5neml222PerzynaPlasticFlowRate9set_valueEbbb
FNDA:363,_ZN5neml222PerzynaPlasticFlowRate9set_valueEbbb
FNDA:6,_ZN5neml222PerzynaPlasticFlowRate16expected_optionsEv
FNDA:7,_ZN5neml222PerzynaPlasticFlowRateC2ERKNS_9OptionSetE
FNF:3
FNH:3
DA:33,6
DA:35,6
DA:36,6
DA:40,6
DA:42,6
DA:43,6
DA:45,6
DA:46,6
DA:48,6
DA:49,0
DA:51,7
DA:53,7
DA:54,14
DA:56,7
DA:59,363
DA:61,363
DA:64,363
DA:65,363
DA:66,363
DA:67,363
DA:69,363
DA:70,361
DA:72,363
DA:74,159
DA:76,159
DA:78,159
DA:79,159
DA:81,159
DA:82,4
DA:84,159
DA:85,4
DA:87,159
DA:88,363
LF:33
LH:32
end_of_record
TN:
SF:/home/runner/work/neml2/neml2/src/neml2/models/solid_mechanics/PlasticFlowRate.cxx
FN:30,_ZN5neml215PlasticFlowRate16expected_optionsEv
FN:43,_ZN5neml215PlasticFlowRateC2ERKNS_9OptionSetE
FNDA:7,_ZN5neml215PlasticFlowRateC2ERKNS_9OptionSetE
FNDA:6,_ZN5neml215PlasticFlowRate16expected_optionsEv
FNF:2
FNH:2
DA:30,6
DA:32,6
DA:34,6
DA:35,6
DA:37,6
DA:38,6
DA:40,6
DA:41,0
DA:43,7
DA:45,14
DA:46,7
DA:48,7
LF:12
LH:11
end_of_record
TN:
SF:/home/runner/work/neml2/neml2/src/neml2/models/solid_mechanics/PowerLawIsotropicHardeningStaticRecovery.cxx
FN:33,_ZN5neml240PowerLawIsotropicHardeningStaticRecovery16expected_optionsEv
FN:48,_ZN5neml240PowerLawIsotropicHardeningStaticRecoveryC2ERKNS_9OptionSetE
FN:57,_ZN5neml240PowerLawIsotropicHardeningStaticRecovery9set_valueEbbb
FNDA:15,_ZN5neml240PowerLawIsotropicHardeningStaticRecovery9set_valueEbbb
FNDA:6,_ZN5neml240PowerLawIsotropicHardeningStaticRecovery16expected_optionsEv
FNDA:2,_ZN5neml240PowerLawIsotropicHardeningStaticRecoveryC2ERKNS_9OptionSetE
FNF:3
FNH:3
DA:33,6
DA:35,6
DA:36,6
DA:38,6
DA:40,6
DA:41,6
DA:42,6
DA:43,6
DA:45,6
DA:46,0
DA:48,2
DA:49,2
DA:51,2
DA:52,4
DA:54,2
DA:57,15
DA:59,15
DA:60,15
DA:63,15
DA:64,15
DA:66,15
DA:68,4
DA:69,4
DA:71,4
DA:72,4
DA:73,8
DA:75,4
DA:76,12
DA:77,16
DA:79,15
LF:30
LH:29
end_of_record
TN:
SF:/home/runner/work/neml2/neml2/src/neml2/models/solid_mechanics/PowerLawKinematicHardeningStaticRecovery.cxx
FN:34,_ZN5neml240PowerLawKinematicHardeningStaticRecovery16expected_optionsEv
FN:53,_ZN5neml240PowerLawKinematicHardeningStaticRecoveryC2ERKNS_9OptionSetE
FN:62,_ZN5neml240PowerLawKinematicHardeningStaticRecovery9set_valueEbbb
FNDA:2,_ZN5neml240PowerLawKinematicHardeningStaticRecoveryC2ERKNS_9OptionSetE
FNDA:6,_ZN5neml240PowerLawKinematicHardeningStaticRecovery16expected_optionsEv
FNDA:25,_ZN5neml240PowerLawKinematicHardeningStaticRecovery9set_valueEbbb
FNF:3
FNH:3
DA:34,6
DA:36,6
DA:37,6
DA:42,6
DA:44,6
DA:45,6
DA:47,6
DA:48,6
DA:50,6
DA:51,0
DA:53,2
DA:54,2
DA:56,2
DA:57,4
DA:59,2
DA:62,25
DA:64,25
DA:65,25
DA:69,25
DA:71,25
DA:72,25
DA:74,25
DA:76,4
DA:78,4
DA:79,12
DA:80,16
DA:82,4
DA:83,4
DA:85,4
DA:86,4
DA:87,8
DA:88,4
DA:89,25
LF:33
LH:32
end_of_record
TN:
SF:/home/runner/work/neml2/neml2/src/neml2/models/solid_mechanics/RateIndependentPlasticFlowConstraint.cxx
FN:33,_ZN5neml236RateIndependentPlasticFlowConstraint16expected_optionsEv
FN:49,_ZN5neml236RateIndependentPlasticFlowConstraintC2ERKNS_9OptionSetE
FN:59,_ZN5neml236RateIndependentPlasticFlowConstraint9set_valueEbbb
FNDA:2,_ZN5neml236RateIndependentPlasticFlowConstraintC2ERKNS_9OptionSetE
FNDA:18,_ZN5neml236RateIndependentPlasticFlowConstraint9set_valueEbbb
FNDA:6,_ZN5neml236RateIndependentPlasticFlowConstraint16expected_optionsEv
FNF:3
FNH:3
DA:33,6
DA:35,6
DA:36,6
DA:38,6
DA:40,6
DA:41,6
DA:43,6
DA:44,6
DA:46,6
DA:47,0
DA:49,2
DA:50,2
DA:52,4
DA:53,2
DA:54,4
DA:56,2
DA:59,18
DA:61,18
DA:63,36
DA:65,18
DA:66,16
DA:68,18
DA:70,4
DA:72,4
DA:73,4
DA:74,8
DA:76,4
DA:77,4
DA:78,4
DA:79,18
LF:30
LH:29
end_of_record
TN:
SF:/home/runner/work/neml2/neml2/src/neml2/models/solid_mechanics/SlopeSaturationVoceIsotropicHardening.cxx
FN:33,_ZN5neml237SlopeSaturationVoceIsotropicHardening16expected_optionsEv
FN:60,_ZN5neml237SlopeSaturationVoceIsotropicHardeningC2ERKNS_9OptionSetE
FN:74,_ZN5neml237SlopeSaturationVoceIsotropicHardening9set_valueEbbb
FNDA:4,_ZN5neml237SlopeSaturationVoceIsotropicHardeningC2ERKNS_9OptionSetE
FNDA:39,_ZN5neml237SlopeSaturationVoceIsotropicHardening9set_valueEbbb
FNDA:6,_ZN5neml237SlopeSaturationVoceIsotropicHardening16expected_optionsEv
FNF:3
FNH:3
DA:33,6
DA:35,6
DA:36,6
DA:43,6
DA:45,6
DA:46,6
DA:48,6
DA:49,12
DA:50,6
DA:52,6
DA:53,6
DA:54,6
DA:55,6
DA:57,6
DA:58,0
DA:60,4
DA:61,4
DA:63,8
DA:64,4
DA:65,8
DA:66,8
DA:68,4
DA:69,8
DA:71,4
DA:74,39
DA:76,39
DA:77,39
DA:80,39
DA:81,37
DA:83,39
DA:85,8
DA:86,8
DA:88,8
DA:89,8
DA:91,8
DA:92,4
DA:94,8
DA:95,4
DA:97,39
LF:39
LH:38
end_of_record
TN:
SF:/home/runner/work/neml2/neml2/src/neml2/models/solid_mechanics/ThermalEigenstrain.cxx
FN:32,_ZN5neml218ThermalEigenstrain16expected_optionsEv
FN:53,_ZN5neml218ThermalEigenstrainC2ERKNS_9OptionSetE
FN:62,_ZN5neml218ThermalEigenstrain9set_valueEbbb
FNDA:6,_ZN5neml218ThermalEigenstrain16expected_optionsEv
FNDA:4,_ZN5neml218ThermalEigenstrainC2ERKNS_9OptionSetE
FNDA:30,_ZN5neml218ThermalEigenstrain9set_valueEbbb
FNF:3
FNH:3
DA:32,6
DA:34,6
DA:35,6
DA:39,6
DA:41,6
DA:42,6
DA:44,6
DA:45,6
DA:47,6
DA:48,6
DA:50,6
DA:51,0
DA:53,4
DA:55,8
DA:56,4
DA:57,8
DA:59,4
DA:62,30
DA:64,30
DA:65,28
DA:67,30
DA:69,8
DA:70,8
DA:72,8
DA:73,4
DA:76,30
DA:78,0
DA:79,0
DA:81,0
DA:82,0
DA:85,30
LF:31
LH:26
end_of_record
TN:
SF:/home/runner/work/neml2/neml2/src/neml2/models/solid_mechanics/TwoStageThermalAnnealing.cxx
FN:35,_ZN5neml224TwoStageThermalAnnealingINS_3SR2EE16expected_optionsEv
FN:35,_ZN5neml224TwoStageThermalAnnealingINS_6ScalarEE16expected_optionsEv
FN:76,_ZN5neml224TwoStageThermalAnnealingINS_3SR2EEC2ERKNS_9OptionSetE
FN:76,_ZN5neml224TwoStageThermalAnnealingINS_6ScalarEEC2ERKNS_9OptionSetE
FN:90,_ZN5neml224TwoStageThermalAnnealingINS_3SR2EE9set_valueEbbb
FN:90,_ZN5neml224TwoStageThermalAnnealingINS_6ScalarEE9set_valueEbbb
FNDA:27,_ZN5neml224TwoStageThermalAnnealingINS_6ScalarEE9set_valueEbbb
FNDA:2,_ZN5neml224TwoStageThermalAnnealingINS_6ScalarEEC2ERKNS_9OptionSetE
FNDA:6,_ZN5neml224TwoStageThermalAnnealingINS_3SR2EE16expected_optionsEv
FNDA:2,_ZN5neml224TwoStageThermalAnnealingINS_3SR2EEC2ERKNS_9OptionSetE
FNDA:6,_ZN5neml224TwoStageThermalAnnealingINS_6ScalarEE16expected_optionsEv
FNDA:57,_ZN5neml224TwoStageThermalAnnealingINS_3SR2EE9set_valueEbbb
FNF:6
FNH:6
DA:35,12
DA:39,12
DA:41,12
DA:42,12
DA:51,12
DA:52,12
DA:54,12
DA:55,12
DA:57,12
DA:58,12
DA:60,12
DA:61,12
DA:63,12
DA:64,12
DA:66,12
DA:67,12
DA:69,12
DA:70,12
DA:72,24
DA:73,12
DA:76,4
DA:78,8
DA:79,4
DA:80,4
DA:81,4
DA:82,4
DA:83,4
DA:84,8
DA:86,4
DA:90,84
DA:92,84
DA:95,84
DA:96,84
DA:97,168
DA:98,168
DA:100,84
DA:101,80
DA:103,84
DA:105,8
DA:107,8
DA:108,8
DA:110,8
DA:111,8
DA:112,8
DA:113,84
LF:45
LH:45
end_of_record
TN:
SF:/home/runner/work/neml2/neml2/src/neml2/models/solid_mechanics/VoceIsotropicHardening.cxx
FN:33,_ZN5neml222VoceIsotropicHardening16expected_optionsEv
FN:48,_ZN5neml222VoceIsotropicHardeningC2ERKNS_9OptionSetE
FN:56,_ZN5neml222VoceIsotropicHardening9set_valueEbbb
FNDA:6,_ZN5neml222VoceIsotropicHardening16expected_optionsEv
FNDA:215,_ZN5neml222VoceIsotropicHardening9set_valueEbbb
FNDA:5,_ZN5neml222VoceIsotropicHardeningC2ERKNS_9OptionSetE
FNF:3
FNH:3
DA:33,6
DA:35,6
DA:36,6
DA:38,6
DA:40,6
DA:41,6
DA:42,6
DA:43,6
DA:45,6
DA:46,0
DA:48,5
DA:50,5
DA:51,10
DA:53,5
DA:56,215
DA:58,215
DA:59,209
DA:61,215
DA:63,97
DA:64,97
DA:66,97
DA:67,4
DA:69,97
DA:70,4
DA:73,215
DA:74,6
DA:75,6
DA:76,215
LF:28
LH:27
end_of_record
TN:
SF:/home/runner/work/neml2/neml2/src/neml2/models/solid_mechanics/YieldFunction.cxx
FN:32,_ZN5neml213YieldFunction16expected_optionsEv
FN:55,_ZN5neml213YieldFunctionC2ERKNS_9OptionSetE
FN:67,_ZN5neml213YieldFunction9set_valueEbbb
FNDA:20,_ZN5neml213YieldFunctionC2ERKNS_9OptionSetE
FNDA:6,_ZN5neml213YieldFunction16expected_optionsEv
FNDA:1012,_ZN5neml213YieldFunction9set_valueEbbb
FNF:3
FNH:3
DA:32,6
DA:34,6
DA:35,6
DA:38,6
DA:40,6
DA:41,6
DA:43,6
DA:44,6
DA:46,6
DA:47,6
DA:49,6
DA:50,6
DA:52,6
DA:53,0
DA:55,20
DA:57,40
DA:58,40
DA:59,20
DA:60,8
DA:61,20
DA:62,40
DA:64,20
DA:67,1012
DA:69,1012
DA:71,1012
DA:72,497
DA:74,515
DA:77,1012
DA:79,693
DA:81,693
DA:82,693
DA:84,693
DA:85,353
DA:87,693
DA:88,52
DA:89,693
DA:95,1012
LF:37
LH:36
end_of_record
TN:
SF:/home/runner/work/neml2/neml2/src/neml2/models/solid_mechanics/crystal_plasticity/ElasticStrainRate.cxx
FN:35,_ZN5neml217ElasticStrainRate16expected_optionsEv
FN:64,_ZN5neml217ElasticStrainRateC2ERKNS_9OptionSetE
FN:75,_ZN5neml217ElasticStrainRate9set_valueEbbb
FNDA:3,_ZN5neml217ElasticStrainRateC2ERKNS_9OptionSetE
FNDA:358,_ZN5neml217ElasticStrainRate9set_valueEbbb
FNDA:6,_ZN5neml217ElasticStrainRate16expected_optionsEv
FNF:3
FNH:3
DA:35,6
DA:37,6
DA:39,6
DA:43,6
DA:45,6
DA:46,6
DA:48,6
DA:49,6
DA:51,6
DA:52,6
DA:54,6
DA:55,6
DA:57,12
DA:58,18
DA:59,6
DA:61,6
DA:62,0
DA:64,3
DA:66,6
DA:67,3
DA:68,3
DA:69,3
DA:70,6
DA:72,3
DA:75,358
DA:77,358
DA:79,358
DA:80,356
DA:82,358
DA:84,65
DA:86,65
DA:87,65
DA:89,65
DA:90,4
DA:92,65
DA:93,4
DA:95,65
DA:96,65
DA:97,65
DA:98,358
LF:40
LH:39
end_of_record
TN:
SF:/home/runner/work/neml2/neml2/src/neml2/models/solid_mechanics/crystal_plasticity/FixOrientation.cxx
FN:35,_ZN5neml214FixOrientation16expected_optionsEv
FN:57,_ZN5neml214FixOrientationC2ERKNS_9OptionSetE
FN:66,_ZN5neml214FixOrientation9set_valueEbbb
FNDA:6,_ZN5neml214FixOrientation16expected_optionsEv
FNDA:21,_ZN5neml214FixOrientation9set_valueEbbb
FNDA:2,_ZN5neml214FixOrientationC2ERKNS_9OptionSetE
FNF:3
FNH:3
DA:35,6
DA:37,6
DA:39,6
DA:43,6
DA:45,6
DA:46,6
DA:48,6
DA:49,6
DA:51,6
DA:52,6
DA:54,6
DA:55,0
DA:57,2
DA:59,4
DA:60,2
DA:61,4
DA:63,2
DA:66,21
DA:68,21
DA:70,21
DA:71,19
DA:72,38
DA:74,21
DA:75,4
DA:77,4
DA:78,4
DA:79,8
DA:81,16
DA:82,4
DA:83,21
LF:30
LH:29
end_of_record
TN:
SF:/home/runner/work/neml2/neml2/src/neml2/models/solid_mechanics/crystal_plasticity/LinearSingleSlipHardeningRule.cxx
FN:32,_ZN5neml229LinearSingleSlipHardeningRule16expected_optionsEv
FN:46,_ZN5neml229LinearSingleSlipHardeningRuleC2ERKNS_9OptionSetE
FN:53,_ZN5neml229LinearSingleSlipHardeningRule9set_valueEbbb
FNDA:6,_ZN5neml229LinearSingleSlipHardeningRule16expected_optionsEv
FNDA:2,_ZN5neml229LinearSingleSlipHardeningRuleC2ERKNS_9OptionSetE
FNDA:20,_ZN5neml229LinearSingleSlipHardeningRule9set_valueEbbb
FNF:3
FNH:3
DA:32,6
DA:34,6
DA:36,6
DA:38,6
DA:40,6
DA:41,6
DA:43,6
DA:44,0
DA:46,2
DA:48,2
DA:50,2
DA:53,20
DA:55,20
DA:57,20
DA:58,18
DA:60,20
DA:61,4
DA:62,4
DA:63,20
LF:19
LH:18
end_of_record
TN:
SF:/home/runner/work/neml2/neml2/src/neml2/models/solid_mechanics/crystal_plasticity/OrientationRate.cxx
FN:35,_ZN5neml215OrientationRate16expected_optionsEv
FN:64,_ZN5neml215OrientationRateC2ERKNS_9OptionSetE
FN:75,_ZN5neml215OrientationRate9set_valueEbbb
FNDA:3,_ZN5neml215OrientationRateC2ERKNS_9OptionSetE
FNDA:349,_ZN5neml215OrientationRate9set_valueEbbb
FNDA:6,_ZN5neml215OrientationRate16expected_optionsEv
FNF:3
FNH:3
DA:35,6
DA:37,6
DA:39,6
DA:44,6
DA:46,6
DA:47,6
DA:49,6
DA:50,6
DA:52,6
DA:53,6
DA:55,12
DA:56,18
DA:57,6
DA:59,6
DA:60,6
DA:61,6
DA:62,0
DA:64,3
DA:66,6
DA:67,3
DA:68,3
DA:69,3
DA:70,6
DA:72,3
DA:75,349
DA:77,349
DA:79,349
DA:80,347
DA:82,349
DA:84,65
DA:86,65
DA:87,65
DA:89,65
DA:90,4
DA:92,65
DA:93,65
DA:95,65
DA:96,65
DA:97,65
DA:98,349
LF:40
LH:39
end_of_record
TN:
SF:/home/runner/work/neml2/neml2/src/neml2/models/solid_mechanics/crystal_plasticity/PlasticDeformationRate.cxx
FN:37,_ZN5neml222PlasticDeformationRate16expected_optionsEv
FN:64,_ZN5neml222PlasticDeformationRateC2ERKNS_9OptionSetE
FN:75,_ZN5neml222PlasticDeformationRate9set_valueEbbb
FNDA:322,_ZN5neml222PlasticDeformationRate9set_valueEbbb
FNDA:3,_ZN5neml222PlasticDeformationRateC2ERKNS_9OptionSetE
FNDA:6,_ZN5neml222PlasticDeformationRate16expected_optionsEv
FNF:3
FNH:3
DA:37,6
DA:39,6
DA:41,6
DA:45,6
DA:47,12
DA:48,18
DA:49,6
DA:51,6
DA:52,6
DA:54,6
DA:55,6
DA:57,6
DA:58,12
DA:59,6
DA:61,6
DA:62,0
DA:64,3
DA:66,9
DA:67,3
DA:68,3
DA:69,3
DA:70,6
DA:72,3
DA:75,322
DA:77,322
DA:80,322
DA:81,322
DA:83,322
DA:84,322
DA:86,322
DA:88,65
DA:89,195
DA:90,130
DA:92,65
DA:93,65
DA:95,322
LF:36
LH:35
end_of_record
TN:
SF:/home/runner/work/neml2/neml2/src/neml2/models/solid_mechanics/crystal_plasticity/PlasticVorticity.cxx
FN:37,_ZN5neml216PlasticVorticity16expected_optionsEv
FN:63,_ZN5neml216PlasticVorticityC2ERKNS_9OptionSetE
FN:74,_ZN5neml216PlasticVorticity9set_valueEbbb
FNDA:3,_ZN5neml216PlasticVorticityC2ERKNS_9OptionSetE
FNDA:322,_ZN5neml216PlasticVorticity9set_valueEbbb
FNDA:6,_ZN5neml216PlasticVorticity16expected_optionsEv
FNF:3
FNH:3
DA:37,6
DA:39,6
DA:41,6
DA:45,6
DA:47,6
DA:48,6
DA:50,6
DA:51,6
DA:53,6
DA:54,6
DA:56,6
DA:57,12
DA:58,6
DA:60,6
DA:61,0
DA:63,3
DA:65,9
DA:66,3
DA:67,3
DA:68,3
DA:69,6
DA:71,3
DA:74,322
DA:76,322
DA:78,644
DA:80,322
DA:81,322
DA:83,322
DA:85,65
DA:86,65
DA:87,130
DA:88,130
DA:90,65
DA:91,65
DA:93,322
LF:35
LH:34
end_of_record
TN:
SF:/home/runner/work/neml2/neml2/src/neml2/models/solid_mechanics/crystal_plasticity/PowerLawSlipRule.cxx
FN:34,_ZN5neml216PowerLawSlipRule16expected_optionsEv
FN:53,_ZN5neml216PowerLawSlipRuleC2ERKNS_9OptionSetE
FN:61,_ZN5neml216PowerLawSlipRule9set_valueEbbb
FNDA:366,_ZN5neml216PowerLawSlipRule9set_valueEbbb
FNDA:3,_ZN5neml216PowerLawSlipRuleC2ERKNS_9OptionSetE
FNDA:6,_ZN5neml216PowerLawSlipRule16expected_optionsEv
FNF:3
FNH:3
DA:34,6
DA:36,6
DA:37,6
DA:42,6
DA:44,6
DA:45,6
DA:47,6
DA:48,6
DA:50,6
DA:51,0
DA:53,3
DA:55,3
DA:56,6
DA:58,3
DA:61,366
DA:63,366
DA:66,366
DA:67,366
DA:69,366
DA:70,364
DA:72,366
DA:74,65
DA:75,65
DA:76,130
DA:77,65
DA:79,65
DA:80,65
DA:81,195
DA:82,130
DA:83,65
DA:85,366
LF:31
LH:30
end_of_record
TN:
SF:/home/runner/work/neml2/neml2/src/neml2/models/solid_mechanics/crystal_plasticity/ResolvedShear.cxx
FN:36,_ZN5neml213ResolvedShear16expected_optionsEv
FN:61,_ZN5neml213ResolvedShearC2ERKNS_9OptionSetE
FN:72,_ZN5neml213ResolvedShear9set_valueEbbb
FNDA:3,_ZN5neml213ResolvedShearC2ERKNS_9OptionSetE
FNDA:310,_ZN5neml213ResolvedShear9set_valueEbbb
FNDA:6,_ZN5neml213ResolvedShear16expected_optionsEv
FNF:3
FNH:3
DA:36,6
DA:38,6
DA:40,6
DA:44,6
DA:46,6
DA:47,6
DA:49,6
DA:50,6
DA:52,6
DA:53,6
DA:55,6
DA:56,12
DA:57,6
DA:58,6
DA:59,0
DA:61,3
DA:63,9
DA:64,3
DA:65,3
DA:66,3
DA:67,6
DA:69,3
DA:72,310
DA:74,310
DA:76,310
DA:77,310
DA:79,310
DA:80,310
DA:82,310
DA:84,65
DA:85,65
DA:87,65
DA:88,65
DA:89,260
DA:90,130
DA:91,65
DA:93,310
LF:37
LH:36
end_of_record
TN:
SF:/home/runner/work/neml2/neml2/src/neml2/models/solid_mechanics/crystal_plasticity/SingleSlipHardeningRule.cxx
FN:33,_ZN5neml223SingleSlipHardeningRule16expected_optionsEv
FN:54,_ZN5neml223SingleSlipHardeningRuleC2ERKNS_9OptionSetE
FNDA:5,_ZN5neml223SingleSlipHardeningRuleC2ERKNS_9OptionSetE
FNDA:12,_ZN5neml223SingleSlipHardeningRule16expected_optionsEv
FNF:2
FNH:2
DA:33,12
DA:35,12
DA:37,12
DA:38,12
DA:40,24
DA:41,36
DA:42,24
DA:43,12
DA:45,12
DA:46,12
DA:48,12
DA:49,12
DA:51,12
DA:52,0
DA:54,5
DA:56,10
DA:57,5
DA:58,10
DA:60,5
LF:19
LH:18
end_of_record
TN:
SF:/home/runner/work/neml2/neml2/src/neml2/models/solid_mechanics/crystal_plasticity/SingleSlipStrengthMap.cxx
FN:32,_ZN5neml221SingleSlipStrengthMap16expected_optionsEv
FN:51,_ZN5neml221SingleSlipStrengthMapC2ERKNS_9OptionSetE
FN:59,_ZN5neml221SingleSlipStrengthMap9set_valueEbbb
FNDA:300,_ZN5neml221SingleSlipStrengthMap9set_valueEbbb
FNDA:6,_ZN5neml221SingleSlipStrengthMap16expected_optionsEv
FNDA:3,_ZN5neml221SingleSlipStrengthMapC2ERKNS_9OptionSetE
FNF:3
FNH:3
DA:32,6
DA:34,6
DA:36,6
DA:40,6
DA:42,6
DA:43,6
DA:45,6
DA:46,6
DA:48,6
DA:49,0
DA:51,3
DA:53,6
DA:54,3
DA:56,3
DA:59,300
DA:61,300
DA:63,300
DA:64,298
DA:66,300
DA:67,65
DA:68,65
DA:69,300
LF:22
LH:21
end_of_record
TN:
SF:/home/runner/work/neml2/neml2/src/neml2/models/solid_mechanics/crystal_plasticity/SlipRule.cxx
FN:34,_ZN5neml28SlipRule16expected_optionsEv
FN:57,_ZN5neml28SlipRuleC2ERKNS_9OptionSetE
FNDA:6,_ZN5neml28SlipRule16expected_optionsEv
FNDA:3,_ZN5neml28SlipRuleC2ERKNS_9OptionSetE
FNF:2
FNH:2
DA:34,6
DA:36,6
DA:38,6
DA:39,6
DA:41,6
DA:42,6
DA:44,6
DA:45,6
DA:47,6
DA:48,6
DA:50,6
DA:51,12
DA:52,6
DA:54,6
DA:55,0
DA:57,3
DA:59,9
DA:60,3
DA:61,3
DA:62,3
DA:63,6
DA:65,3
LF:22
LH:21
end_of_record
TN:
SF:/home/runner/work/neml2/neml2/src/neml2/models/solid_mechanics/crystal_plasticity/SlipStrengthMap.cxx
FN:34,_ZN5neml215SlipStrengthMap16expected_optionsEv
FN:49,_ZN5neml215SlipStrengthMapC2ERKNS_9OptionSetE
FNDA:6,_ZN5neml215SlipStrengthMap16expected_optionsEv
FNDA:3,_ZN5neml215SlipStrengthMapC2ERKNS_9OptionSetE
FNF:2
FNH:2
DA:34,6
DA:36,6
DA:37,6
DA:39,6
DA:40,6
DA:42,6
DA:43,12
DA:44,6
DA:46,6
DA:47,0
DA:49,3
DA:51,9
DA:52,3
DA:53,6
DA:55,3
LF:15
LH:14
end_of_record
TN:
SF:/home/runner/work/neml2/neml2/src/neml2/models/solid_mechanics/crystal_plasticity/SumSlipRates.cxx
FN:38,_ZN5neml212SumSlipRates16expected_optionsEv
FN:57,_ZN5neml212SumSlipRatesC2ERKNS_9OptionSetE
FN:67,_ZN5neml212SumSlipRates9set_valueEbbb
FNDA:6,_ZN5neml212SumSlipRates16expected_optionsEv
FNDA:3,_ZN5neml212SumSlipRatesC2ERKNS_9OptionSetE
FNDA:331,_ZN5neml212SumSlipRates9set_valueEbbb
FNF:3
FNH:3
DA:38,6
DA:40,6
DA:41,6
DA:42,6
DA:44,6
DA:45,6
DA:47,6
DA:48,6
DA:50,6
DA:51,12
DA:52,6
DA:54,6
DA:55,0
DA:57,3
DA:59,9
DA:60,3
DA:61,3
DA:62,6
DA:64,3
DA:67,331
DA:69,331
DA:72,331
DA:74,331
DA:75,329
DA:77,331
DA:78,65
DA:79,65
DA:80,331
LF:28
LH:27
end_of_record
TN:
SF:/home/runner/work/neml2/neml2/src/neml2/models/solid_mechanics/crystal_plasticity/VoceSingleSlipHardeningRule.cxx
FN:32,_ZN5neml227VoceSingleSlipHardeningRule16expected_optionsEv
FN:50,_ZN5neml227VoceSingleSlipHardeningRuleC2ERKNS_9OptionSetE
FN:58,_ZN5neml227VoceSingleSlipHardeningRule9set_valueEbbb
FNDA:6,_ZN5neml227VoceSingleSlipHardeningRule16expected_optionsEv
FNDA:3,_ZN5neml227VoceSingleSlipHardeningRuleC2ERKNS_9OptionSetE
FNDA:300,_ZN5neml227VoceSingleSlipHardeningRule9set_valueEbbb
FNF:3
FNH:3
DA:32,6
DA:34,6
DA:35,6
DA:40,6
DA:42,6
DA:43,6
DA:44,6
DA:45,12
DA:46,6
DA:47,6
DA:48,0
DA:50,3
DA:52,3
DA:53,6
DA:55,3
DA:58,300
DA:60,300
DA:62,300
DA:63,298
DA:65,300
DA:67,65
DA:68,65
DA:70,65
DA:71,65
DA:73,300
LF:25
LH:24
end_of_record
TN:
SF:/home/runner/work/neml2/neml2/src/neml2/solvers/Newton.cxx
FN:34,_ZN5neml26Newton16expected_optionsEv
FN:42,_ZN5neml26NewtonC2ERKNS_9OptionSetE
FN:48,_ZN5neml26Newton5solveERNS_15NonlinearSystemERNS_6TensorE
FN:98,_ZNK5neml26Newton9convergedEmRKN2at6TensorES4_
FN:111,_ZN5neml26Newton6updateERNS_15NonlinearSystemERNS_6TensorE
FN:120,_ZN5neml26Newton12final_updateERNS_15NonlinearSystemERNS_6TensorE
FN:127,_ZN5neml26Newton15solve_directionERKNS_15NonlinearSystemE
FNDA:964,_ZN5neml26Newton6updateERNS_15NonlinearSystemERNS_6TensorE
FNDA:89,_ZN5neml26Newton12final_updateERNS_15NonlinearSystemERNS_6TensorE
FNDA:1232,_ZNK5neml26Newton9convergedEmRKN2at6TensorES4_
FNDA:1149,_ZN5neml26Newton15solve_directionERKNS_15NonlinearSystemE
FNDA:172,_ZN5neml26Newton5solveERNS_15NonlinearSystemERNS_6TensorE
FNDA:24,_ZN5neml26NewtonC2ERKNS_9OptionSetE
FNDA:30,_ZN5neml26Newton16expected_optionsEv
FNF:7
FNH:7
DA:34,30
DA:36,30
DA:37,30
DA:39,30
DA:40,0
DA:42,24
DA:43,24
DA:45,24
DA:48,172
DA:51,172
DA:52,172
DA:53,172
DA:56,172
DA:59,0
DA:61,0
DA:62,0
DA:64,0
DA:68,172
DA:74,1061
DA:76,1060
DA:77,1060
DA:78,1060
DA:79,1060
DA:82,1060
DA:85,171
DA:87,89
DA:88,89
DA:90,171
DA:94,1
DA:95,172
DA:98,1232
DA:107,1232
DA:111,964
DA:113,964
DA:115,964
DA:116,964
DA:117,964
DA:120,89
DA:122,89
DA:123,89
DA:124,89
DA:127,1149
DA:130,1149
DA:131,148
DA:133,2150
LF:45
LH:40
end_of_record
TN:
SF:/home/runner/work/neml2/neml2/src/neml2/solvers/NewtonWithLineSearch.cxx
FN:34,_ZN5neml220NewtonWithLineSearch16expected_optionsEv
FN:55,_ZN5neml220NewtonWithLineSearchC2ERKNS_9OptionSetE
FN:64,_ZN5neml220NewtonWithLineSearch6updateERNS_15NonlinearSystemERNS_6TensorE
FN:74,_ZN5neml220NewtonWithLineSearch10linesearchERNS_15NonlinearSystemERKNS_6TensorES5_
FNDA:4,_ZN5neml220NewtonWithLineSearchC2ERKNS_9OptionSetE
FNDA:9,_ZN5neml220NewtonWithLineSearch16expected_optionsEv
FNDA:78,_ZN5neml220NewtonWithLineSearch6updateERNS_15NonlinearSystemERNS_6TensorE
FNDA:78,_ZN5neml220NewtonWithLineSearch10linesearchERNS_15NonlinearSystemERKNS_6TensorES5_
FNF:4
FNH:4
DA:34,9
DA:36,9
DA:37,9
DA:39,9
DA:40,18
DA:42,9
DA:44,9
DA:45,18
DA:46,9
DA:48,9
DA:49,18
DA:50,9
DA:52,9
DA:53,0
DA:55,4
DA:57,4
DA:58,4
DA:59,8
DA:61,4
DA:64,78
DA:66,78
DA:68,78
DA:69,78
DA:70,78
DA:71,78
DA:74,78
DA:76,78
DA:78,78
DA:79,78
DA:80,78
DA:82,187
DA:84,169
DA:85,169
DA:86,169
DA:87,338
DA:88,169
DA:89,0
DA:90,0
DA:91,0
DA:92,0
DA:94,338
DA:96,169
DA:97,60
DA:99,218
DA:100,327
DA:101,289
DA:102,78
LF:47
LH:42
end_of_record
TN:
SF:/home/runner/work/neml2/neml2/src/neml2/solvers/NewtonWithTrustRegion.cxx
FN:34,_ZN5neml221NewtonWithTrustRegion16expected_optionsEv
FN:80,_ZN5neml221NewtonWithTrustRegionC2ERKNS_9OptionSetE
FN:95,_ZNK5neml221NewtonWithTrustRegion18subproblem_optionsERKNS_9OptionSetE
FN:102,_ZNK5neml221NewtonWithTrustRegion25subproblem_solver_optionsERKNS_9OptionSetE
FN:112,_ZN5neml221NewtonWithTrustRegion7prepareERKNS_15NonlinearSystemERKNS_6TensorE
FN:118,_ZN5neml221NewtonWithTrustRegion6updateERNS_15NonlinearSystemERNS_6TensorE
FN:163,_ZN5neml221NewtonWithTrustRegion15solve_directionERKNS_15NonlinearSystemE
FN:191,_ZNK5neml221NewtonWithTrustRegion24merit_function_reductionERKNS_15NonlinearSystemERKNS_6TensorE
FNDA:18,_ZNK5neml221NewtonWithTrustRegion24merit_function_reductionERKNS_15NonlinearSystemERKNS_6TensorE
FNDA:9,_ZN5neml221NewtonWithTrustRegion16expected_optionsEv
FNDA:21,_ZN5neml221NewtonWithTrustRegion15solve_directionERKNS_15NonlinearSystemE
FNDA:3,_ZN5neml221NewtonWithTrustRegion7prepareERKNS_15NonlinearSystemERKNS_6TensorE
FNDA:3,_ZNK5neml221NewtonWithTrustRegion18subproblem_optionsERKNS_9OptionSetE
FNDA:3,_ZN5neml221NewtonWithTrustRegionC2ERKNS_9OptionSetE
FNDA:18,_ZN5neml221NewtonWithTrustRegion6updateERNS_15NonlinearSystemERNS_6TensorE
FNDA:3,_ZNK5neml221NewtonWithTrustRegion25subproblem_solver_optionsERKNS_9OptionSetE
FNF:8
FNH:8
DA:34,9
DA:36,9
DA:37,9
DA:41,9
DA:43,9
DA:44,9
DA:46,9
DA:47,9
DA:49,9
DA:50,18
DA:51,9
DA:53,9
DA:54,18
DA:55,9
DA:57,9
DA:58,9
DA:60,9
DA:61,9
DA:63,9
DA:64,18
DA:65,9
DA:67,9
DA:68,9
DA:70,9
DA:71,9
DA:73,9
DA:74,18
DA:75,9
DA:77,9
DA:78,0
DA:80,3
DA:82,3
DA:83,3
DA:84,3
DA:85,3
DA:86,3
DA:87,3
DA:88,3
DA:89,3
DA:90,9
DA:92,3
DA:95,3
DA:98,3
DA:102,3
DA:104,3
DA:105,3
DA:106,3
DA:107,3
DA:108,3
DA:109,0
DA:112,3
DA:114,3
DA:115,3
DA:118,18
DA:120,18
DA:123,18
DA:124,18
DA:127,18
DA:128,18
DA:129,18
DA:130,36
DA:133,18
DA:136,36
DA:137,54
DA:138,36
DA:139,36
DA:140,72
DA:141,72
DA:144,36
DA:147,18
DA:149,0
DA:150,0
DA:151,0
DA:152,0
DA:153,0
DA:154,0
DA:155,0
DA:158,18
DA:159,18
DA:160,18
DA:163,21
DA:166,21
DA:169,21
DA:170,21
DA:171,21
DA:172,21
DA:173,42
DA:177,42
DA:180,21
DA:182,0
DA:183,0
DA:184,0
DA:187,63
DA:188,21
DA:191,18
DA:194,18
DA:195,54
DA:196,18
LF:98
LH:86
end_of_record
TN:
SF:/home/runner/work/neml2/neml2/src/neml2/solvers/NonlinearSolver.cxx
FN:30,_ZN5neml215NonlinearSolver16expected_optionsEv
FN:47,_ZN5neml215NonlinearSolverC2ERKNS_9OptionSetE
FNDA:30,_ZN5neml215NonlinearSolver16expected_optionsEv
FNDA:24,_ZN5neml215NonlinearSolverC2ERKNS_9OptionSetE
FNF:2
FNH:2
DA:30,30
DA:32,30
DA:34,30
DA:35,30
DA:37,30
DA:38,30
DA:40,30
DA:41,60
DA:42,30
DA:44,30
DA:45,0
DA:47,24
DA:49,24
DA:50,24
DA:51,48
DA:53,24
LF:16
LH:15
end_of_record
TN:
SF:/home/runner/work/neml2/neml2/src/neml2/solvers/NonlinearSystem.cxx
FN:31,_ZN5neml215NonlinearSystem16expected_optionsEv
FN:54,_ZN5neml215NonlinearSystem25disable_automatic_scalingERNS_9OptionSetE
FN:62,_ZN5neml215NonlinearSystem24enable_automatic_scalingERNS_9OptionSetE
FN:69,_ZN5neml215NonlinearSystemC2ERKNS_9OptionSetE
FN:79,_ZN5neml215NonlinearSystem12init_scalingEb
FN:129,_ZNK5neml215NonlinearSystem14scale_residualERKNS_6TensorE
FN:139,_ZNK5neml215NonlinearSystem14scale_JacobianERKNS_6TensorE
FN:150,_ZNK5neml215NonlinearSystem15scale_directionERKNS_6TensorE
FN:160,_ZN5neml215NonlinearSystem12set_solutionERKNS_6TensorE
FN:166,_ZN5neml215NonlinearSystem8residualERKNS_6TensorE
FN:174,_ZN5neml215NonlinearSystem8residualEv
FN:182,_ZN5neml215NonlinearSystem8JacobianERKNS_6TensorE
FN:190,_ZN5neml215NonlinearSystem8JacobianEv
FN:198,_ZN5neml215NonlinearSystem21residual_and_JacobianERKNS_6TensorE
FN:206,_ZN5neml215NonlinearSystem21residual_and_JacobianEv
FN:215,_ZNK5neml215NonlinearSystem13residual_normEv
FNDA:30,_ZN5neml215NonlinearSystem24enable_automatic_scalingERNS_9OptionSetE
FNDA:18,_ZN5neml215NonlinearSystem21residual_and_JacobianERKNS_6TensorE
FNDA:18,_ZN5neml215NonlinearSystem21residual_and_JacobianEv
FNDA:1249,_ZN5neml215NonlinearSystem12set_solutionERKNS_6TensorE
FNDA:1,_ZN5neml215NonlinearSystem8JacobianERKNS_6TensorE
FNDA:1150,_ZN5neml215NonlinearSystem8JacobianEv
FNDA:30,_ZNK5neml215NonlinearSystem14scale_JacobianERKNS_6TensorE
FNDA:1268,_ZNK5neml215NonlinearSystem13residual_normEv
FNDA:1318,_ZNK5neml215NonlinearSystem15scale_directionERKNS_6TensorE
FNDA:604,_ZN5neml215NonlinearSystemC2ERKNS_9OptionSetE
FNDA:35,_ZNK5neml215NonlinearSystem14scale_residualERKNS_6TensorE
FNDA:1401,_ZN5neml215NonlinearSystem8residualEv
FNDA:774,_ZN5neml215NonlinearSystem25disable_automatic_scalingERNS_9OptionSetE
FNDA:0,_ZN5neml215NonlinearSystem8residualERKNS_6TensorE
FNDA:146,_ZN5neml215NonlinearSystem12init_scalingEb
FNDA:787,_ZN5neml215NonlinearSystem16expected_optionsEv
FNF:16
FNH:15
DA:31,787
DA:33,787
DA:35,787
DA:36,1574
DA:38,787
DA:40,787
DA:41,1574
DA:42,787
DA:44,787
DA:45,1574
DA:48,787
DA:50,787
DA:51,0
DA:54,774
DA:56,774
DA:57,774
DA:58,774
DA:59,774
DA:62,30
DA:64,30
DA:65,30
DA:66,30
DA:67,30
DA:69,604
DA:70,604
DA:71,604
DA:72,604
DA:73,604
DA:74,1208
DA:76,604
DA:79,146
DA:81,146
DA:82,142
DA:84,4
DA:85,0
DA:88,4
DA:90,4
DA:91,4
DA:92,4
DA:94,4
DA:95,0
DA:96,0
DA:98,8
DA:101,8
DA:102,8
DA:103,8
DA:104,0
DA:105,0
DA:106,8
DA:107,4
DA:110,20
DA:112,48
DA:113,80
DA:114,32
DA:115,32
DA:116,32
DA:117,48
DA:118,16
DA:121,4
DA:123,4
DA:124,0
DA:125,0
DA:126,4
DA:129,35
DA:131,35
DA:132,35
DA:133,35
DA:135,35
DA:139,30
DA:141,30
DA:142,30
DA:143,30
DA:145,60
DA:146,90
DA:150,1318
DA:152,1318
DA:153,1318
DA:154,1318
DA:156,2636
DA:160,1249
DA:162,1249
DA:163,1249
DA:166,0
DA:168,0
DA:169,0
DA:170,0
DA:174,1401
DA:176,1401
DA:178,1401
DA:179,1401
DA:182,1
DA:184,1
DA:185,1
DA:186,1
DA:190,1150
DA:192,1150
DA:194,1150
DA:195,1150
DA:198,18
DA:200,18
DA:201,18
DA:202,18
DA:206,18
DA:208,18
DA:210,18
DA:211,18
DA:212,18
DA:215,1268
DA:217,1268
LF:109
LH:97
end_of_record
TN:
SF:/home/runner/work/neml2/neml2/src/neml2/solvers/Solver.cxx
FN:30,_ZN5neml26Solver16expected_optionsEv
FN:41,_ZN5neml26SolverC2ERKNS_9OptionSetE
FNDA:30,_ZN5neml26Solver16expected_optionsEv
FNDA:24,_ZN5neml26SolverC2ERKNS_9OptionSetE
FNF:2
FNH:2
DA:30,30
DA:32,30
DA:33,30
DA:35,30
DA:36,30
DA:38,30
DA:39,0
DA:41,24
DA:43,24
DA:45,24
LF:10
LH:9
end_of_record
TN:
SF:/home/runner/work/neml2/neml2/src/neml2/solvers/TrustRegionSubProblem.cxx
FN:30,_ZN5neml221TrustRegionSubProblemC2ERKNS_9OptionSetE
FN:36,_ZN5neml221TrustRegionSubProblem6reinitERKNS_15NonlinearSystemERKNS_6ScalarE
FN:54,_ZN5neml221TrustRegionSubProblem8assembleEbb
FN:68,_ZNK5neml221TrustRegionSubProblem20preconditioned_solveERKNS_6ScalarERKNS_6TensorE
FN:74,_ZNK5neml221TrustRegionSubProblem24preconditioned_directionERKNS_6ScalarE
FNDA:244,_ZNK5neml221TrustRegionSubProblem20preconditioned_solveERKNS_6ScalarERKNS_6TensorE
FNDA:21,_ZN5neml221TrustRegionSubProblem6reinitERKNS_15NonlinearSystemERKNS_6ScalarE
FNDA:149,_ZN5neml221TrustRegionSubProblem8assembleEbb
FNDA:170,_ZNK5neml221TrustRegionSubProblem24preconditioned_directionERKNS_6ScalarE
FNDA:3,_ZN5neml221TrustRegionSubProblemC2ERKNS_9OptionSetE
FNF:5
FNH:5
DA:30,3
DA:31,3
DA:33,3
DA:36,21
DA:38,21
DA:39,21
DA:41,21
DA:42,21
DA:43,21
DA:45,21
DA:46,21
DA:47,21
DA:49,21
DA:50,21
DA:51,21
DA:54,149
DA:56,149
DA:57,149
DA:58,149
DA:60,149
DA:61,75
DA:63,149
DA:64,74
DA:65,149
DA:68,244
DA:70,488
DA:74,170
DA:76,170
LF:28
LH:28
end_of_record
TN:
SF:/home/runner/work/neml2/neml2/src/neml2/tensors/LabeledAxis.cxx
FN:29,_ZN5neml211LabeledAxisC2Ev
FN:40,_ZN5neml211LabeledAxisC2ERKS0_
FN:55,_ZN5neml211LabeledAxis3addERKNS_19LabeledAxisAccessorEl
FN:63,_ZNK5neml211LabeledAxis3addERS0_lRKPKSsS5_
FN:81,_ZN5neml211LabeledAxis5clearEv
FN:90,_ZN5neml211LabeledAxis12setup_layoutEv
FN:122,_ZNK5neml211LabeledAxis9nvariableEb
FN:128,_ZNK5neml211LabeledAxis8nsubaxisEb
FN:134,_ZNK5neml211LabeledAxis12has_variableERKNS_19LabeledAxisAccessorE
FN:150,_ZNK5neml211LabeledAxis11has_subaxisERKNS_19LabeledAxisAccessorE
FN:166,_ZNK5neml211LabeledAxis12storage_sizeERKNS_19LabeledAxisAccessorE
FN:186,_ZNK5neml211LabeledAxis7indicesERKNS_19LabeledAxisAccessorE
FN:195,_ZNK5neml211LabeledAxis7indicesElRKPKSsS4_
FN:208,_ZNK5neml211LabeledAxis14common_indicesERKS0_b
FN:238,_ZNK5neml211LabeledAxis14common_indicesERKS0_bRSt6vectorIlSaIlEES6_ll
FN:268,_ZNK5neml211LabeledAxis22sort_by_assembly_orderERKSt3setINS_19LabeledAxisAccessorESt4lessIS2_ESaIS2_EE
FN:284,_ZNK5neml211LabeledAxis14variable_namesEb
FN:302,_ZNK5neml211LabeledAxis13subaxis_namesEb
FN:320,_ZNK5neml211LabeledAxis7subaxisERKNS_19LabeledAxisAccessorE
FN:327,_ZN5neml211LabeledAxis7subaxisERKNS_19LabeledAxisAccessorE
FN:341,_ZNK5neml211LabeledAxis6equalsERKS0_
FN:367,_ZN5neml2lsERSoRKNS_11LabeledAxisE
FN:393,_ZN5neml2eqERKNS_11LabeledAxisES2_
FN:399,_ZN5neml2neERKNS_11LabeledAxisES2_
FNDA:3300,_ZN5neml211LabeledAxisC2Ev
FNDA:0,_ZNK5neml211LabeledAxis22sort_by_assembly_orderERKSt3setINS_19LabeledAxisAccessorESt4lessIS2_ESaIS2_EE
FNDA:13,_ZNK5neml211LabeledAxis13subaxis_namesEb
FNDA:18709,_ZNK5neml211LabeledAxis11has_subaxisERKNS_19LabeledAxisAccessorE
FNDA:74628,_ZNK5neml211LabeledAxis14variable_namesEb
FNDA:12,_ZNK5neml211LabeledAxis9nvariableEb
FNDA:3299,_ZN5neml211LabeledAxis12setup_layoutEv
FNDA:2328,_ZN5neml211LabeledAxis3addERKNS_19LabeledAxisAccessorEl
FNDA:1,_ZN5neml211LabeledAxisC2ERKS0_
FNDA:0,_ZN5neml2lsERSoRKNS_11LabeledAxisE
FNDA:207525,_ZNK5neml211LabeledAxis7indicesERKNS_19LabeledAxisAccessorE
FNDA:22090,_ZNK5neml211LabeledAxis14common_indicesERKS0_bRSt6vectorIlSaIlEES6_ll
FNDA:437295,_ZNK5neml211LabeledAxis7indicesElRKPKSsS4_
FNDA:36695,_ZN5neml2neERKNS_11LabeledAxisES2_
FNDA:246765,_ZNK5neml211LabeledAxis7subaxisERKNS_19LabeledAxisAccessorE
FNDA:14715,_ZN5neml2eqERKNS_11LabeledAxisES2_
FNDA:13,_ZNK5neml211LabeledAxis8nsubaxisEb
FNDA:51410,_ZNK5neml211LabeledAxis6equalsERKS0_
FNDA:278079,_ZNK5neml211LabeledAxis12storage_sizeERKNS_19LabeledAxisAccessorE
FNDA:32480,_ZNK5neml211LabeledAxis12has_variableERKNS_19LabeledAxisAccessorE
FNDA:10293,_ZNK5neml211LabeledAxis14common_indicesERKS0_b
FNDA:1,_ZN5neml211LabeledAxis5clearEv
FNDA:252928,_ZN5neml211LabeledAxis7subaxisERKNS_19LabeledAxisAccessorE
FNDA:5204,_ZNK5neml211LabeledAxis3addERS0_lRKPKSsS5_
FNF:24
FNH:22
DA:29,3300
DA:30,3300
DA:31,3300
DA:32,3300
DA:33,3300
DA:34,3300
DA:35,3300
DA:36,3300
DA:38,3300
DA:40,1
DA:41,1
DA:42,1
DA:43,1
DA:44,1
DA:45,1
DA:46,1
DA:47,1
DA:48,1
DA:49,1
DA:50,1
DA:52,1
DA:55,2328
DA:57,2328
DA:58,2328
DA:59,2328
DA:63,5204
DA:68,5204
DA:70,2328
DA:71,2328
DA:75,2876
DA:76,2876
DA:78,5204
DA:81,1
DA:83,1
DA:84,1
DA:85,1
DA:86,1
DA:87,1
DA:90,3299
DA:92,3299
DA:93,3299
DA:96,5625
DA:98,2326
DA:99,2326
DA:100,2326
DA:104,5377
DA:107,2078
DA:108,2078
DA:109,2078
DA:110,2078
DA:113,3299
DA:114,3299
DA:115,3299
DA:116,3299
DA:117,3299
DA:118,3299
DA:119,3299
DA:122,12
DA:124,12
DA:128,13
DA:130,13
DA:134,32480
DA:136,32480
DA:137,0
DA:139,32480
DA:141,2905
DA:142,2056
DA:143,849
DA:146,29575
DA:150,18709
DA:152,18709
DA:153,0
DA:155,18709
DA:157,0
DA:158,0
DA:159,0
DA:162,18709
DA:166,278079
DA:168,278079
DA:169,274952
DA:171,3127
DA:173,1424
DA:174,1402
DA:176,22
DA:177,22
DA:179,0
DA:182,1703
DA:186,207525
DA:188,207525
DA:189,0
DA:191,415050
DA:195,437295
DA:199,437295
DA:200,437295
DA:201,437295
DA:202,415050
DA:204,459540
DA:208,10293
DA:210,10293
DA:211,10293
DA:212,10293
DA:213,10293
DA:215,10293
DA:216,0
DA:219,10293
DA:220,10293
DA:221,12892
DA:223,2599
DA:224,2563
DA:227,36
DA:228,36
DA:229,36
DA:232,10293
DA:234,10293
DA:235,10293
DA:238,22090
DA:245,47673
DA:246,25583
DA:248,12892
DA:249,12892
DA:250,12892
DA:251,12892
DA:252,12892
DA:253,12892
DA:256,22090
DA:257,34633
DA:258,12543
DA:259,23594
DA:263,11797
DA:264,11797
DA:265,22090
DA:268,0
DA:270,0
DA:272,0
DA:273,0
DA:274,0
DA:276,0
DA:277,0
DA:278,0
DA:280,0
DA:281,0
DA:284,74628
DA:286,74628
DA:289,159202
DA:290,84574
DA:293,74628
DA:294,128320
DA:295,150574
DA:296,150574
DA:298,74628
DA:299,0
DA:302,13
DA:304,13
DA:306,22
DA:309,9
DA:311,9
DA:312,0
DA:313,0
DA:316,13
DA:317,0
DA:320,246765
DA:323,246765
DA:327,252928
DA:329,252928
DA:330,252928
DA:334,252928
DA:335,0
DA:337,252928
DA:341,51410
DA:344,51410
DA:345,2
DA:350,51408
DA:351,0
DA:354,87895
DA:356,36487
DA:357,0
DA:359,36487
DA:360,0
DA:363,51408
DA:367,0
DA:370,0
DA:371,0
DA:372,0
DA:374,0
DA:375,0
DA:376,0
DA:377,0
DA:378,0
DA:381,0
DA:384,0
DA:385,0
DA:386,0
DA:389,0
DA:390,0
DA:393,14715
DA:395,14715
DA:399,36695
DA:401,36695
LF:198
LH:157
end_of_record
TN:
SF:/home/runner/work/neml2/neml2/src/neml2/tensors/LabeledAxisAccessor.cxx
FN:31,_ZNK5neml219LabeledAxisAccessorcvSt6vectorISsSaISsEEEv
FN:38,_ZNK5neml219LabeledAxisAccessor5emptyEv
FN:44,_ZNK5neml219LabeledAxisAccessor4sizeEv
FN:50,_ZNK5neml219LabeledAxisAccessor11with_suffixERKSs
FN:58,_ZNK5neml219LabeledAxisAccessor6appendERKS0_
FN:64,_ZNK5neml219LabeledAxisAccessor7prependERKS0_
FN:72,_ZNK5neml219LabeledAxisAccessor5sliceEm
FN:80,_ZNK5neml219LabeledAxisAccessor5sliceEmm
FN:89,_ZNK5neml219LabeledAxisAccessor7remountERKS0_m
FN:95,_ZNK5neml219LabeledAxisAccessor10start_withERKS0_
FN:101,_ZNK5neml219LabeledAxisAccessor3oldEv
FN:114,_ZNK5neml219LabeledAxisAccessor18validate_item_nameERKSs
FN:125,_ZN5neml2neERKNS_19LabeledAxisAccessorES2_
FN:131,_ZN5neml2eqERKNS_19LabeledAxisAccessorES2_
FN:137,_ZN5neml2ltERKNS_19LabeledAxisAccessorES2_
FN:143,_ZN5neml2lsERSoRKNS_19LabeledAxisAccessorE
FNDA:6017,_ZNK5neml219LabeledAxisAccessor5sliceEm
FNDA:176,_ZNK5neml219LabeledAxisAccessor7remountERKS0_m
FNDA:16353,_ZNK5neml219LabeledAxisAccessor5sliceEmm
FNDA:308248,_ZNK5neml219LabeledAxisAccessor4sizeEv
FNDA:1617194,_ZN5neml2ltERKNS_19LabeledAxisAccessorES2_
FNDA:13471,_ZN5neml2eqERKNS_19LabeledAxisAccessorES2_
FNDA:148,_ZNK5neml219LabeledAxisAccessor11with_suffixERKSs
FNDA:128,_ZNK5neml219LabeledAxisAccessor3oldEv
FNDA:97393,_ZNK5neml219LabeledAxisAccessor7prependERKS0_
FNDA:628,_ZN5neml2lsERSoRKNS_19LabeledAxisAccessorE
FNDA:741121,_ZNK5neml219LabeledAxisAccessor18validate_item_nameERKSs
FNDA:9803,_ZN5neml2neERKNS_19LabeledAxisAccessorES2_
FNDA:797118,_ZNK5neml219LabeledAxisAccessor5emptyEv
FNDA:1,_ZNK5neml219LabeledAxisAccessorcvSt6vectorISsSaISsEEEv
FNDA:1,_ZNK5neml219LabeledAxisAccessor6appendERKS0_
FNDA:13470,_ZNK5neml219LabeledAxisAccessor10start_withERKS0_
FNF:16
FNH:16
DA:31,1
DA:33,1
DA:34,1
DA:38,797118
DA:40,797118
DA:44,308248
DA:46,308248
DA:50,148
DA:52,148
DA:53,148
DA:54,296
DA:55,148
DA:58,1
DA:60,1
DA:64,97393
DA:66,97393
DA:67,97393
DA:68,194786
DA:69,97393
DA:72,6017
DA:74,6017
DA:75,6017
DA:76,12034
DA:77,6017
DA:80,16353
DA:82,16353
DA:83,16353
DA:84,16353
DA:85,32706
DA:86,16353
DA:89,176
DA:91,352
DA:95,13470
DA:97,13470
DA:101,128
DA:104,128
DA:105,128
DA:106,58
DA:107,70
DA:108,70
DA:109,0
DA:110,0
DA:114,741121
DA:116,741121
DA:117,741121
DA:118,741121
DA:122,741120
DA:125,9803
DA:127,9803
DA:131,13471
DA:133,13471
DA:137,1617194
DA:139,1617194
DA:143,628
DA:145,1602
DA:147,974
DA:148,561
DA:149,974
DA:151,628
LF:59
LH:57
end_of_record
TN:
SF:/home/runner/work/neml2/neml2/src/neml2/tensors/LabeledMatrix.cxx
FN:32,_ZN5neml213LabeledMatrix8identityEN3c108ArrayRefIlEERKNS_11LabeledAxisERKNS1_13TensorOptionsE
FN:40,_ZNK5neml213LabeledMatrix5chainERKS0_
FNDA:8675,_ZNK5neml213LabeledMatrix5chainERKS0_
FNDA:1829,_ZN5neml213LabeledMatrix8identityEN3c108ArrayRefIlEERKNS_11LabeledAxisERKNS1_13TensorOptionsE
FNF:2
FNH:2
DA:32,1829
DA:36,3658
DA:40,8675
DA:46,8675
DA:48,8675
DA:51,17350
LF:6
LH:6
end_of_record
TN:
SF:/home/runner/work/neml2/neml2/src/neml2/tensors/LabeledTensor.cxx
FN:34,_ZN5neml213LabeledTensorINS_13LabeledMatrixELl2EEC2ERKN2at6TensorERKSt5arrayIPKNS_11LabeledAxisELm2EE
FN:34,_ZN5neml213LabeledTensorINS_13LabeledVectorELl1EEC2ERKN2at6TensorERKSt5arrayIPKNS_11LabeledAxisELm1EE
FN:34,_ZN5neml213LabeledTensorINS_15LabeledTensor3DELl3EEC2ERKN2at6TensorERKSt5arrayIPKNS_11LabeledAxisELm3EE
FN:51,_ZN5neml213LabeledTensorINS_13LabeledMatrixELl2EEC2ERKNS_6TensorERKSt5arrayIPKNS_11LabeledAxisELm2EE
FN:51,_ZN5neml213LabeledTensorINS_13LabeledVectorELl1EEC2ERKNS_6TensorERKSt5arrayIPKNS_11LabeledAxisELm1EE
FN:51,_ZN5neml213LabeledTensorINS_15LabeledTensor3DELl3EEC2ERKNS_6TensorERKSt5arrayIPKNS_11LabeledAxisELm3EE
FN:68,_ZN5neml213LabeledTensorINS_13LabeledVectorELl1EEC2ERKS1_
FN:68,_ZN5neml213LabeledTensorINS_15LabeledTensor3DELl3EEC2ERKS1_
FN:68,_ZN5neml213LabeledTensorINS_13LabeledMatrixELl2EEC2ERKS1_
FN:76,_ZN5neml213LabeledTensorINS_15LabeledTensor3DELl3EEaSERKS1_
FN:76,_ZN5neml213LabeledTensorINS_13LabeledMatrixELl2EEaSERKS1_
FN:76,_ZN5neml213LabeledTensorINS_13LabeledVectorELl1EEaSERKS1_
FN:84,_ZNK5neml213LabeledTensorINS_13LabeledVectorELl1EEcvNS_6TensorEEv
FN:84,_ZNK5neml213LabeledTensorINS_15LabeledTensor3DELl3EEcvNS_6TensorEEv
FN:84,_ZNK5neml213LabeledTensorINS_13LabeledMatrixELl2EEcvNS_6TensorEEv
FN:90,_ZNK5neml213LabeledTensorINS_13LabeledMatrixELl2EEcvN2at6TensorEEv
FN:90,_ZNK5neml213LabeledTensorINS_13LabeledVectorELl1EEcvN2at6TensorEEv
FN:90,_ZNK5neml213LabeledTensorINS_15LabeledTensor3DELl3EEcvN2at6TensorEEv
FN:97,_ZN5neml213LabeledTensorINS_13LabeledMatrixELl2EE5emptyEN3c108ArrayRefIlEERKSt5arrayIPKNS_11LabeledAxisELm2EERKNS3_13TensorOptionsE
FN:97,_ZN5neml213LabeledTensorINS_15LabeledTensor3DELl3EE5emptyEN3c108ArrayRefIlEERKSt5arrayIPKNS_11LabeledAxisELm3EERKNS3_13TensorOptionsE
FN:97,_ZN5neml213LabeledTensorINS_13LabeledVectorELl1EE5emptyEN3c108ArrayRefIlEERKSt5arrayIPKNS_11LabeledAxisELm1EERKNS3_13TensorOptionsE
FN:106,_ZZN5neml213LabeledTensorINS_13LabeledMatrixELl2EE5emptyEN3c108ArrayRefIlEERKSt5arrayIPKNS_11LabeledAxisELm2EERKNS3_13TensorOptionsEENKUlS9_E_clES9_
FN:106,_ZZN5neml213LabeledTensorINS_15LabeledTensor3DELl3EE5emptyEN3c108ArrayRefIlEERKSt5arrayIPKNS_11LabeledAxisELm3EERKNS3_13TensorOptionsEENKUlS9_E_clES9_
FN:106,_ZZN5neml213LabeledTensorINS_13LabeledVectorELl1EE5emptyEN3c108ArrayRefIlEERKSt5arrayIPKNS_11LabeledAxisELm1EERKNS3_13TensorOptionsEENKUlS9_E_clES9_
FN:112,_ZN5neml213LabeledTensorINS_13LabeledVectorELl1EE5zerosEN3c108ArrayRefIlEERKSt5arrayIPKNS_11LabeledAxisELm1EERKNS3_13TensorOptionsE
FN:112,_ZN5neml213LabeledTensorINS_13LabeledMatrixELl2EE5zerosEN3c108ArrayRefIlEERKSt5arrayIPKNS_11LabeledAxisELm2EERKNS3_13TensorOptionsE
FN:112,_ZN5neml213LabeledTensorINS_15LabeledTensor3DELl3EE5zerosEN3c108ArrayRefIlEERKSt5arrayIPKNS_11LabeledAxisELm3EERKNS3_13TensorOptionsE
FN:121,_ZZN5neml213LabeledTensorINS_13LabeledVectorELl1EE5zerosEN3c108ArrayRefIlEERKSt5arrayIPKNS_11LabeledAxisELm1EERKNS3_13TensorOptionsEENKUlS9_E_clES9_
FN:121,_ZZN5neml213LabeledTensorINS_15LabeledTensor3DELl3EE5zerosEN3c108ArrayRefIlEERKSt5arrayIPKNS_11LabeledAxisELm3EERKNS3_13TensorOptionsEENKUlS9_E_clES9_
FN:121,_ZZN5neml213LabeledTensorINS_13LabeledMatrixELl2EE5zerosEN3c108ArrayRefIlEERKSt5arrayIPKNS_11LabeledAxisELm2EERKNS3_13TensorOptionsEENKUlS9_E_clES9_
FN:127,_ZNK5neml213LabeledTensorINS_15LabeledTensor3DELl3EE5cloneEN3c1012MemoryFormatE
FN:127,_ZNK5neml213LabeledTensorINS_13LabeledVectorELl1EE5cloneEN3c1012MemoryFormatE
FN:127,_ZNK5neml213LabeledTensorINS_13LabeledMatrixELl2EE5cloneEN3c1012MemoryFormatE
FN:134,_ZNK5neml213LabeledTensorINS_13LabeledMatrixELl2EE6detachEv
FN:134,_ZNK5neml213LabeledTensorINS_15LabeledTensor3DELl3EE6detachEv
FN:134,_ZNK5neml213LabeledTensorINS_13LabeledVectorELl1EE6detachEv
FN:141,_ZN5neml213LabeledTensorINS_15LabeledTensor3DELl3EE7detach_Ev
FN:141,_ZN5neml213LabeledTensorINS_13LabeledVectorELl1EE7detach_Ev
FN:141,_ZN5neml213LabeledTensorINS_13LabeledMatrixELl2EE7detach_Ev
FN:148,_ZNK5neml213LabeledTensorINS_13LabeledVectorELl1EE2toERKN3c1013TensorOptionsE
FN:148,_ZNK5neml213LabeledTensorINS_13LabeledMatrixELl2EE2toERKN3c1013TensorOptionsE
FN:148,_ZNK5neml213LabeledTensorINS_15LabeledTensor3DELl3EE2toERKN3c1013TensorOptionsE
FN:155,_ZN5neml213LabeledTensorINS_13LabeledVectorELl1EE5copy_ERKN2at6TensorE
FN:155,_ZN5neml213LabeledTensorINS_15LabeledTensor3DELl3EE5copy_ERKN2at6TensorE
FN:155,_ZN5neml213LabeledTensorINS_13LabeledMatrixELl2EE5copy_ERKN2at6TensorE
FN:162,_ZN5neml213LabeledTensorINS_15LabeledTensor3DELl3EE5zero_Ev
FN:162,_ZN5neml213LabeledTensorINS_13LabeledMatrixELl2EE5zero_Ev
FN:162,_ZN5neml213LabeledTensorINS_13LabeledVectorELl1EE5zero_Ev
FN:169,_ZNK5neml213LabeledTensorINS_15LabeledTensor3DELl3EE13requires_gradEv
FN:169,_ZNK5neml213LabeledTensorINS_13LabeledVectorELl1EE13requires_gradEv
FN:169,_ZNK5neml213LabeledTensorINS_13LabeledMatrixELl2EE13requires_gradEv
FN:176,_ZN5neml213LabeledTensorINS_13LabeledMatrixELl2EE14requires_grad_Eb
FN:176,_ZN5neml213LabeledTensorINS_13LabeledVectorELl1EE14requires_grad_Eb
FN:176,_ZN5neml213LabeledTensorINS_15LabeledTensor3DELl3EE14requires_grad_Eb
FN:183,_ZNK5neml213LabeledTensorINS_13LabeledVectorELl1EEngEv
FN:183,_ZNK5neml213LabeledTensorINS_13LabeledMatrixELl2EEngEv
FN:183,_ZNK5neml213LabeledTensorINS_15LabeledTensor3DELl3EEngEv
FN:190,_ZNK5neml213LabeledTensorINS_13LabeledVectorELl1EE7optionsEv
FN:190,_ZNK5neml213LabeledTensorINS_13LabeledMatrixELl2EE7optionsEv
FN:190,_ZNK5neml213LabeledTensorINS_15LabeledTensor3DELl3EE7optionsEv
FN:197,_ZNK5neml213LabeledTensorINS_13LabeledMatrixELl2EE11scalar_typeEv
FN:197,_ZNK5neml213LabeledTensorINS_15LabeledTensor3DELl3EE11scalar_typeEv
FN:197,_ZNK5neml213LabeledTensorINS_13LabeledVectorELl1EE11scalar_typeEv
FN:204,_ZNK5neml213LabeledTensorINS_15LabeledTensor3DELl3EE6deviceEv
FN:204,_ZNK5neml213LabeledTensorINS_13LabeledVectorELl1EE6deviceEv
FN:204,_ZNK5neml213LabeledTensorINS_13LabeledMatrixELl2EE6deviceEv
FN:211,_ZNK5neml213LabeledTensorINS_15LabeledTensor3DELl3EE3dimEv
FN:211,_ZNK5neml213LabeledTensorINS_13LabeledVectorELl1EE3dimEv
FN:211,_ZNK5neml213LabeledTensorINS_13LabeledMatrixELl2EE3dimEv
FN:218,_ZNK5neml213LabeledTensorINS_13LabeledVectorELl1EE5sizesEv
FN:218,_ZNK5neml213LabeledTensorINS_13LabeledMatrixELl2EE5sizesEv
FN:218,_ZNK5neml213LabeledTensorINS_15LabeledTensor3DELl3EE5sizesEv
FN:225,_ZNK5neml213LabeledTensorINS_13LabeledVectorELl1EE4sizeEl
FN:225,_ZNK5neml213LabeledTensorINS_13LabeledMatrixELl2EE4sizeEl
FN:225,_ZNK5neml213LabeledTensorINS_15LabeledTensor3DELl3EE4sizeEl
FN:232,_ZNK5neml213LabeledTensorINS_13LabeledMatrixELl2EE7batchedEv
FN:232,_ZNK5neml213LabeledTensorINS_13LabeledVectorELl1EE7batchedEv
FN:232,_ZNK5neml213LabeledTensorINS_15LabeledTensor3DELl3EE7batchedEv
FN:239,_ZNK5neml213LabeledTensorINS_15LabeledTensor3DELl3EE9batch_dimEv
FN:239,_ZNK5neml213LabeledTensorINS_13LabeledVectorELl1EE9batch_dimEv
FN:239,_ZNK5neml213LabeledTensorINS_13LabeledMatrixELl2EE9batch_dimEv
FN:246,_ZNK5neml213LabeledTensorINS_13LabeledMatrixELl2EE11batch_sizesEv
FN:246,_ZNK5neml213LabeledTensorINS_13LabeledVectorELl1EE11batch_sizesEv
FN:246,_ZNK5neml213LabeledTensorINS_15LabeledTensor3DELl3EE11batch_sizesEv
FN:253,_ZNK5neml213LabeledTensorINS_15LabeledTensor3DELl3EE10batch_sizeEl
FN:253,_ZNK5neml213LabeledTensorINS_13LabeledMatrixELl2EE10batch_sizeEl
FN:253,_ZNK5neml213LabeledTensorINS_13LabeledVectorELl1EE10batch_sizeEl
FN:260,_ZNK5neml213LabeledTensorINS_15LabeledTensor3DELl3EE10base_sizesEv
FN:260,_ZNK5neml213LabeledTensorINS_13LabeledMatrixELl2EE10base_sizesEv
FN:260,_ZNK5neml213LabeledTensorINS_13LabeledVectorELl1EE10base_sizesEv
FN:267,_ZNK5neml213LabeledTensorINS_15LabeledTensor3DELl3EE9base_sizeEl
FN:267,_ZNK5neml213LabeledTensorINS_13LabeledVectorELl1EE9base_sizeEl
FN:267,_ZNK5neml213LabeledTensorINS_13LabeledMatrixELl2EE9base_sizeEl
FN:274,_ZNK5neml213LabeledTensorINS_15LabeledTensor3DELl3EE12base_storageEv
FN:274,_ZNK5neml213LabeledTensorINS_13LabeledMatrixELl2EE12base_storageEv
FN:274,_ZNK5neml213LabeledTensorINS_13LabeledVectorELl1EE12base_storageEv
FN:281,_ZNK5neml213LabeledTensorINS_13LabeledVectorELl1EE11batch_indexEN3c108ArrayRefIN2at8indexing11TensorIndexEEE
FN:281,_ZNK5neml213LabeledTensorINS_15LabeledTensor3DELl3EE11batch_indexEN3c108ArrayRefIN2at8indexing11TensorIndexEEE
FN:281,_ZNK5neml213LabeledTensorINS_13LabeledMatrixELl2EE11batch_indexEN3c108ArrayRefIN2at8indexing11TensorIndexEEE
FN:288,_ZNK5neml213LabeledTensorINS_13LabeledMatrixELl2EE10base_indexEN3c108ArrayRefINS_19LabeledAxisAccessorEEE
FN:288,_ZNK5neml213LabeledTensorINS_15LabeledTensor3DELl3EE10base_indexEN3c108ArrayRefINS_19LabeledAxisAccessorEEE
FN:288,_ZNK5neml213LabeledTensorINS_13LabeledVectorELl1EE10base_indexEN3c108ArrayRefINS_19LabeledAxisAccessorEEE
FN:295,_ZN5neml213LabeledTensorINS_13LabeledMatrixELl2EE16batch_index_put_EN3c108ArrayRefIN2at8indexing11TensorIndexEEERKNS5_6TensorE
FN:295,_ZN5neml213LabeledTensorINS_15LabeledTensor3DELl3EE16batch_index_put_EN3c108ArrayRefIN2at8indexing11TensorIndexEEERKNS5_6TensorE
FN:295,_ZN5neml213LabeledTensorINS_13LabeledVectorELl1EE16batch_index_put_EN3c108ArrayRefIN2at8indexing11TensorIndexEEERKNS5_6TensorE
FN:303,_ZN5neml213LabeledTensorINS_13LabeledVectorELl1EE15base_index_put_EN3c108ArrayRefINS_19LabeledAxisAccessorEEERKNS_6TensorE
FN:303,_ZN5neml213LabeledTensorINS_15LabeledTensor3DELl3EE15base_index_put_EN3c108ArrayRefINS_19LabeledAxisAccessorEEERKNS_6TensorE
FN:303,_ZN5neml213LabeledTensorINS_13LabeledMatrixELl2EE15base_index_put_EN3c108ArrayRefINS_19LabeledAxisAccessorEEERKNS_6TensorE
FN:312,_ZNK5neml213LabeledTensorINS_13LabeledMatrixELl2EE13storage_shapeEN3c108ArrayRefINS_19LabeledAxisAccessorEEE
FN:312,_ZNK5neml213LabeledTensorINS_15LabeledTensor3DELl3EE13storage_shapeEN3c108ArrayRefINS_19LabeledAxisAccessorEEE
FN:312,_ZNK5neml213LabeledTensorINS_13LabeledVectorELl1EE13storage_shapeEN3c108ArrayRefINS_19LabeledAxisAccessorEEE
FN:322,_ZNK5neml213LabeledTensorINS_13LabeledVectorELl1EE17labels_to_indicesEN3c108ArrayRefINS_19LabeledAxisAccessorEEE
FN:322,_ZNK5neml213LabeledTensorINS_15LabeledTensor3DELl3EE17labels_to_indicesEN3c108ArrayRefINS_19LabeledAxisAccessorEEE
FN:322,_ZNK5neml213LabeledTensorINS_13LabeledMatrixELl2EE17labels_to_indicesEN3c108ArrayRefINS_19LabeledAxisAccessorEEE
FN:333,_ZN5neml213LabeledTensorINS_15LabeledTensor3DELl3EE4fillERKS1_lb
FN:333,_ZN5neml213LabeledTensorINS_13LabeledVectorELl1EE4fillERKS1_lb
FN:333,_ZN5neml213LabeledTensorINS_13LabeledMatrixELl2EE4fillERKS1_lb
FNDA:0,_ZN5neml213LabeledTensorINS_13LabeledVectorELl1EE14requires_grad_Eb
FNDA:11234,_ZN5neml213LabeledTensorINS_13LabeledVectorELl1EE5zerosEN3c108ArrayRefIlEERKSt5arrayIPKNS_11LabeledAxisELm1EERKNS3_13TensorOptionsE
FNDA:0,_ZNK5neml213LabeledTensorINS_15LabeledTensor3DELl3EE6deviceEv
FNDA:0,_ZNK5neml213LabeledTensorINS_13LabeledVectorELl1EEngEv
FNDA:74409,_ZNK5neml213LabeledTensorINS_13LabeledMatrixELl2EE10base_indexEN3c108ArrayRefINS_19LabeledAxisAccessorEEE
FNDA:0,_ZNK5neml213LabeledTensorINS_13LabeledMatrixELl2EE2toERKN3c1013TensorOptionsE
FNDA:4,_ZN5neml213LabeledTensorINS_13LabeledMatrixELl2EE15base_index_put_EN3c108ArrayRefINS_19LabeledAxisAccessorEEERKNS_6TensorE
FNDA:623,_ZN5neml213LabeledTensorINS_15LabeledTensor3DELl3EEC2ERKN2at6TensorERKSt5arrayIPKNS_11LabeledAxisELm3EE
FNDA:3845,_ZN5neml213LabeledTensorINS_13LabeledVectorELl1EE5copy_ERKN2at6TensorE
FNDA:0,_ZN5neml213LabeledTensorINS_15LabeledTensor3DELl3EE5emptyEN3c108ArrayRefIlEERKSt5arrayIPKNS_11LabeledAxisELm3EERKNS3_13TensorOptionsE
FNDA:2,_ZN5neml213LabeledTensorINS_13LabeledVectorELl1EEC2ERKN2at6TensorERKSt5arrayIPKNS_11LabeledAxisELm1EE
FNDA:0,_ZN5neml213LabeledTensorINS_13LabeledMatrixELl2EEaSERKS1_
FNDA:206,_ZNK5neml213LabeledTensorINS_13LabeledVectorELl1EE7optionsEv
FNDA:28212,_ZNK5neml213LabeledTensorINS_15LabeledTensor3DELl3EE9base_sizeEl
FNDA:0,_ZN5neml213LabeledTensorINS_13LabeledMatrixELl2EE14requires_grad_Eb
FNDA:0,_ZNK5neml213LabeledTensorINS_15LabeledTensor3DELl3EE9batch_dimEv
FNDA:0,_ZN5neml213LabeledTensorINS_15LabeledTensor3DELl3EE7detach_Ev
FNDA:0,_ZN5neml213LabeledTensorINS_15LabeledTensor3DELl3EE16batch_index_put_EN3c108ArrayRefIN2at8indexing11TensorIndexEEERKNS5_6TensorE
FNDA:0,_ZN5neml213LabeledTensorINS_15LabeledTensor3DELl3EE15base_index_put_EN3c108ArrayRefINS_19LabeledAxisAccessorEEERKNS_6TensorE
FNDA:9747,_ZZN5neml213LabeledTensorINS_15LabeledTensor3DELl3EE5zerosEN3c108ArrayRefIlEERKSt5arrayIPKNS_11LabeledAxisELm3EERKNS3_13TensorOptionsEENKUlS9_E_clES9_
FNDA:0,_ZNK5neml213LabeledTensorINS_15LabeledTensor3DELl3EE10base_sizesEv
FNDA:230,_ZNK5neml213LabeledTensorINS_13LabeledVectorELl1EE2toERKN3c1013TensorOptionsE
FNDA:0,_ZNK5neml213LabeledTensorINS_13LabeledMatrixELl2EE6detachEv
FNDA:1,_ZNK5neml213LabeledTensorINS_13LabeledMatrixELl2EE11batch_indexEN3c108ArrayRefIN2at8indexing11TensorIndexEEE
FNDA:0,_ZNK5neml213LabeledTensorINS_15LabeledTensor3DELl3EE12base_storageEv
FNDA:6313,_ZN5neml213LabeledTensorINS_13LabeledVectorELl1EE4fillERKS1_lb
FNDA:0,_ZN5neml213LabeledTensorINS_13LabeledVectorELl1EE5zero_Ev
FNDA:4,_ZNK5neml213LabeledTensorINS_13LabeledMatrixELl2EE13storage_shapeEN3c108ArrayRefINS_19LabeledAxisAccessorEEE
FNDA:207,_ZNK5neml213LabeledTensorINS_15LabeledTensor3DELl3EE5cloneEN3c1012MemoryFormatE
FNDA:1,_ZNK5neml213LabeledTensorINS_13LabeledMatrixELl2EE7batchedEv
FNDA:1,_ZNK5neml213LabeledTensorINS_13LabeledVectorELl1EE5sizesEv
FNDA:0,_ZNK5neml213LabeledTensorINS_15LabeledTensor3DELl3EE11batch_indexEN3c108ArrayRefIN2at8indexing11TensorIndexEEE
FNDA:0,_ZN5neml213LabeledTensorINS_13LabeledMatrixELl2EE16batch_index_put_EN3c108ArrayRefIN2at8indexing11TensorIndexEEERKNS5_6TensorE
FNDA:3323,_ZNK5neml213LabeledTensorINS_13LabeledVectorELl1EEcvNS_6TensorEEv
FNDA:11234,_ZZN5neml213LabeledTensorINS_13LabeledVectorELl1EE5zerosEN3c108ArrayRefIlEERKSt5arrayIPKNS_11LabeledAxisELm1EERKNS3_13TensorOptionsEENKUlS9_E_clES9_
FNDA:534,_ZN5neml213LabeledTensorINS_13LabeledVectorELl1EE15base_index_put_EN3c108ArrayRefINS_19LabeledAxisAccessorEEERKNS_6TensorE
FNDA:1,_ZNK5neml213LabeledTensorINS_13LabeledMatrixELl2EE11scalar_typeEv
FNDA:0,_ZNK5neml213LabeledTensorINS_15LabeledTensor3DELl3EE13requires_gradEv
FNDA:24200,_ZNK5neml213LabeledTensorINS_13LabeledVectorELl1EE17labels_to_indicesEN3c108ArrayRefINS_19LabeledAxisAccessorEEE
FNDA:0,_ZN5neml213LabeledTensorINS_15LabeledTensor3DELl3EE4fillERKS1_lb
FNDA:0,_ZN5neml213LabeledTensorINS_13LabeledMatrixELl2EEC2ERKN2at6TensorERKSt5arrayIPKNS_11LabeledAxisELm2EE
FNDA:18457,_ZN5neml213LabeledTensorINS_13LabeledMatrixELl2EE5zero_Ev
FNDA:19786,_ZN5neml213LabeledTensorINS_13LabeledVectorELl1EEC2ERKNS_6TensorERKSt5arrayIPKNS_11LabeledAxisELm1EE
FNDA:0,_ZN5neml213LabeledTensorINS_13LabeledVectorELl1EEC2ERKS1_
FNDA:36751,_ZN5neml213LabeledTensorINS_13LabeledMatrixELl2EEC2ERKNS_6TensorERKSt5arrayIPKNS_11LabeledAxisELm2EE
FNDA:0,_ZN5neml213LabeledTensorINS_15LabeledTensor3DELl3EEaSERKS1_
FNDA:1,_ZNK5neml213LabeledTensorINS_13LabeledVectorELl1EE11batch_indexEN3c108ArrayRefIN2at8indexing11TensorIndexEEE
FNDA:0,_ZN5neml213LabeledTensorINS_13LabeledMatrixELl2EE5emptyEN3c108ArrayRefIlEERKSt5arrayIPKNS_11LabeledAxisELm2EERKNS3_13TensorOptionsE
FNDA:11442,_ZNK5neml213LabeledTensorINS_13LabeledMatrixELl2EEcvN2at6TensorEEv
FNDA:0,_ZNK5neml213LabeledTensorINS_13LabeledVectorELl1EE4sizeEl
FNDA:2643,_ZN5neml213LabeledTensorINS_15LabeledTensor3DELl3EE5zero_Ev
FNDA:0,_ZNK5neml213LabeledTensorINS_15LabeledTensor3DELl3EE3dimEv
FNDA:0,_ZZN5neml213LabeledTensorINS_13LabeledMatrixELl2EE5emptyEN3c108ArrayRefIlEERKSt5arrayIPKNS_11LabeledAxisELm2EERKNS3_13TensorOptionsEENKUlS9_E_clES9_
FNDA:0,_ZNK5neml213LabeledTensorINS_13LabeledMatrixELl2EEngEv
FNDA:74413,_ZNK5neml213LabeledTensorINS_13LabeledMatrixELl2EE17labels_to_indicesEN3c108ArrayRefINS_19LabeledAxisAccessorEEE
FNDA:0,_ZNK5neml213LabeledTensorINS_13LabeledVectorELl1EE6detachEv
FNDA:7414,_ZNK5neml213LabeledTensorINS_13LabeledVectorELl1EE11batch_sizesEv
FNDA:140,_ZN5neml213LabeledTensorINS_13LabeledVectorELl1EE16batch_index_put_EN3c108ArrayRefIN2at8indexing11TensorIndexEEERKNS5_6TensorE
FNDA:0,_ZNK5neml213LabeledTensorINS_13LabeledVectorELl1EE10batch_sizeEl
FNDA:2,_ZN5neml213LabeledTensorINS_13LabeledVectorELl1EE5emptyEN3c108ArrayRefIlEERKSt5arrayIPKNS_11LabeledAxisELm1EERKNS3_13TensorOptionsE
FNDA:2492,_ZNK5neml213LabeledTensorINS_15LabeledTensor3DELl3EE11batch_sizesEv
FNDA:0,_ZNK5neml213LabeledTensorINS_15LabeledTensor3DELl3EEngEv
FNDA:2214,_ZNK5neml213LabeledTensorINS_15LabeledTensor3DELl3EEcvN2at6TensorEEv
FNDA:0,_ZNK5neml213LabeledTensorINS_15LabeledTensor3DELl3EE7optionsEv
FNDA:4079,_ZN5neml213LabeledTensorINS_15LabeledTensor3DELl3EEC2ERKNS_6TensorERKSt5arrayIPKNS_11LabeledAxisELm3EE
FNDA:1,_ZNK5neml213LabeledTensorINS_13LabeledMatrixELl2EE3dimEv
FNDA:0,_ZNK5neml213LabeledTensorINS_13LabeledVectorELl1EE11scalar_typeEv
FNDA:991,_ZNK5neml213LabeledTensorINS_13LabeledMatrixELl2EE5cloneEN3c1012MemoryFormatE
FNDA:0,_ZN5neml213LabeledTensorINS_13LabeledMatrixELl2EEC2ERKS1_
FNDA:23666,_ZNK5neml213LabeledTensorINS_13LabeledVectorELl1EE10base_indexEN3c108ArrayRefINS_19LabeledAxisAccessorEEE
FNDA:1,_ZNK5neml213LabeledTensorINS_13LabeledMatrixELl2EE9batch_dimEv
FNDA:147006,_ZNK5neml213LabeledTensorINS_13LabeledMatrixELl2EE9base_sizeEl
FNDA:17666,_ZNK5neml213LabeledTensorINS_13LabeledMatrixELl2EEcvNS_6TensorEEv
FNDA:1,_ZNK5neml213LabeledTensorINS_13LabeledMatrixELl2EE10batch_sizeEl
FNDA:0,_ZN5neml213LabeledTensorINS_15LabeledTensor3DELl3EE14requires_grad_Eb
FNDA:0,_ZNK5neml213LabeledTensorINS_15LabeledTensor3DELl3EE4sizeEl
FNDA:25,_ZNK5neml213LabeledTensorINS_13LabeledMatrixELl2EE10base_sizesEv
FNDA:10191,_ZNK5neml213LabeledTensorINS_15LabeledTensor3DELl3EE10base_indexEN3c108ArrayRefINS_19LabeledAxisAccessorEEE
FNDA:3753,_ZN5neml213LabeledTensorINS_13LabeledMatrixELl2EE4fillERKS1_lb
FNDA:0,_ZNK5neml213LabeledTensorINS_15LabeledTensor3DELl3EE11scalar_typeEv
FNDA:0,_ZNK5neml213LabeledTensorINS_13LabeledVectorELl1EE3dimEv
FNDA:10191,_ZNK5neml213LabeledTensorINS_15LabeledTensor3DELl3EE17labels_to_indicesEN3c108ArrayRefINS_19LabeledAxisAccessorEEE
FNDA:0,_ZNK5neml213LabeledTensorINS_15LabeledTensor3DELl3EE10batch_sizeEl
FNDA:552,_ZNK5neml213LabeledTensorINS_13LabeledVectorELl1EE10base_sizesEv
FNDA:8675,_ZN5neml213LabeledTensorINS_13LabeledMatrixELl2EE5copy_ERKN2at6TensorE
FNDA:39576,_ZNK5neml213LabeledTensorINS_13LabeledVectorELl1EE9base_sizeEl
FNDA:0,_ZZN5neml213LabeledTensorINS_15LabeledTensor3DELl3EE5emptyEN3c108ArrayRefIlEERKSt5arrayIPKNS_11LabeledAxisELm3EERKNS3_13TensorOptionsEENKUlS9_E_clES9_
FNDA:0,_ZNK5neml213LabeledTensorINS_15LabeledTensor3DELl3EE5sizesEv
FNDA:0,_ZN5neml213LabeledTensorINS_13LabeledMatrixELl2EE7detach_Ev
FNDA:0,_ZNK5neml213LabeledTensorINS_13LabeledVectorELl1EE9batch_dimEv
FNDA:623,_ZN5neml213LabeledTensorINS_15LabeledTensor3DELl3EE5copy_ERKN2at6TensorE
FNDA:0,_ZNK5neml213LabeledTensorINS_13LabeledMatrixELl2EE13requires_gradEv
FNDA:0,_ZNK5neml213LabeledTensorINS_15LabeledTensor3DELl3EE6detachEv
FNDA:0,_ZNK5neml213LabeledTensorINS_15LabeledTensor3DELl3EE2toERKN3c1013TensorOptionsE
FNDA:1,_ZNK5neml213LabeledTensorINS_13LabeledMatrixELl2EE6deviceEv
FNDA:534,_ZNK5neml213LabeledTensorINS_13LabeledVectorELl1EE13storage_shapeEN3c108ArrayRefINS_19LabeledAxisAccessorEEE
FNDA:3,_ZNK5neml213LabeledTensorINS_13LabeledMatrixELl2EE4sizeEl
FNDA:3249,_ZN5neml213LabeledTensorINS_15LabeledTensor3DELl3EE5zerosEN3c108ArrayRefIlEERKSt5arrayIPKNS_11LabeledAxisELm3EERKNS3_13TensorOptionsE
FNDA:0,_ZN5neml213LabeledTensorINS_15LabeledTensor3DELl3EEC2ERKS1_
FNDA:2,_ZZN5neml213LabeledTensorINS_13LabeledVectorELl1EE5emptyEN3c108ArrayRefIlEERKSt5arrayIPKNS_11LabeledAxisELm1EERKNS3_13TensorOptionsEENKUlS9_E_clES9_
FNDA:14824,_ZNK5neml213LabeledTensorINS_13LabeledVectorELl1EE12base_storageEv
FNDA:18597,_ZNK5neml213LabeledTensorINS_13LabeledMatrixELl2EE11batch_sizesEv
FNDA:0,_ZNK5neml213LabeledTensorINS_15LabeledTensor3DELl3EE13storage_shapeEN3c108ArrayRefINS_19LabeledAxisAccessorEEE
FNDA:33160,_ZZN5neml213LabeledTensorINS_13LabeledMatrixELl2EE5zerosEN3c108ArrayRefIlEERKSt5arrayIPKNS_11LabeledAxisELm2EERKNS3_13TensorOptionsEENKUlS9_E_clES9_
FNDA:0,_ZN5neml213LabeledTensorINS_13LabeledVectorELl1EEaSERKS1_
FNDA:0,_ZNK5neml213LabeledTensorINS_13LabeledVectorELl1EE6deviceEv
FNDA:967,_ZNK5neml213LabeledTensorINS_13LabeledVectorELl1EEcvN2at6TensorEEv
FNDA:0,_ZNK5neml213LabeledTensorINS_13LabeledMatrixELl2EE7optionsEv
FNDA:2,_ZNK5neml213LabeledTensorINS_13LabeledMatrixELl2EE5sizesEv
FNDA:0,_ZNK5neml213LabeledTensorINS_15LabeledTensor3DELl3EEcvNS_6TensorEEv
FNDA:3299,_ZNK5neml213LabeledTensorINS_13LabeledVectorELl1EE5cloneEN3c1012MemoryFormatE
FNDA:0,_ZNK5neml213LabeledTensorINS_13LabeledVectorELl1EE13requires_gradEv
FNDA:0,_ZNK5neml213LabeledTensorINS_13LabeledVectorELl1EE7batchedEv
FNDA:0,_ZN5neml213LabeledTensorINS_13LabeledVectorELl1EE7detach_Ev
FNDA:1,_ZNK5neml213LabeledTensorINS_13LabeledMatrixELl2EE12base_storageEv
FNDA:0,_ZNK5neml213LabeledTensorINS_15LabeledTensor3DELl3EE7batchedEv
FNDA:16580,_ZN5neml213LabeledTensorINS_13LabeledMatrixELl2EE5zerosEN3c108ArrayRefIlEERKSt5arrayIPKNS_11LabeledAxisELm2EERKNS3_13TensorOptionsE
FNF:117
FNH:62
DA:34,625
DA:36,625
DA:37,625
DA:40,2496
DA:41,1871
DA:45,3742
DA:47,3742
DA:48,625
DA:51,60616
DA:53,60616
DA:54,60616
DA:57,166141
DA:58,105525
DA:62,211050
DA:64,211050
DA:65,60616
DA:68,0
DA:69,0
DA:70,0
DA:72,0
DA:76,0
DA:78,0
DA:79,0
DA:80,0
DA:84,20989
DA:86,20989
DA:90,14623
DA:92,14623
DA:97,2
DA:101,2
DA:102,2
DA:103,2
DA:106,2
DA:107,4
DA:108,2
DA:112,31063
DA:116,31063
DA:117,31063
DA:118,31063
DA:121,54141
DA:122,62126
DA:123,31063
DA:127,4497
DA:129,4497
DA:134,0
DA:136,0
DA:141,0
DA:143,0
DA:144,0
DA:148,230
DA:150,230
DA:155,13143
DA:157,13143
DA:158,13143
DA:162,21100
DA:164,21100
DA:165,21100
DA:169,0
DA:171,0
DA:176,0
DA:178,0
DA:179,0
DA:183,0
DA:185,0
DA:190,206
DA:192,206
DA:197,1
DA:199,1
DA:204,1
DA:206,1
DA:211,1
DA:213,1
DA:218,3
DA:220,3
DA:225,3
DA:227,3
DA:232,1
DA:234,1
DA:239,1
DA:241,1
DA:246,28503
DA:248,28503
DA:253,1
DA:255,1
DA:260,577
DA:262,577
DA:267,214794
DA:269,214794
DA:274,14825
DA:276,14825
DA:281,2
DA:283,2
DA:288,108266
DA:290,108266
DA:295,140
DA:298,140
DA:299,140
DA:303,538
DA:305,1076
DA:307,1076
DA:308,538
DA:312,538
DA:314,538
DA:315,1080
DA:316,542
DA:317,538
DA:318,0
DA:322,108804
DA:324,108804
DA:325,108804
DA:326,312403
DA:327,203599
DA:328,108804
DA:329,0
DA:333,10066
DA:335,10066
DA:336,10066
DA:337,0
DA:339,10066
DA:340,20168
DA:342,20204
DA:343,20204
DA:344,10102
DA:345,10102
DA:346,10102
DA:348,10066
LF:126
LH:103
end_of_record
TN:
SF:/home/runner/work/neml2/neml2/src/neml2/tensors/LabeledTensor3D.cxx
FN:31,_ZN5neml215LabeledTensor3D4fillERKS0_b
FN:41,_ZNK5neml215LabeledTensor3D5chainERKS0_RKNS_13LabeledMatrixES5_
FNDA:227,_ZN5neml215LabeledTensor3D4fillERKS0_b
FNDA:623,_ZNK5neml215LabeledTensor3D5chainERKS0_RKNS_13LabeledMatrixES5_
FNF:2
FNH:2
DA:31,227
DA:33,227
DA:34,227
DA:35,227
DA:36,454
DA:37,681
DA:38,227
DA:41,623
DA:51,623
DA:52,623
DA:53,623
DA:54,623
DA:55,623
DA:56,623
DA:59,3115
DA:60,2492
DA:61,1869
LF:17
LH:17
end_of_record
TN:
SF:/home/runner/work/neml2/neml2/src/neml2/tensors/LabeledVector.cxx
FN:31,_ZNK5neml213LabeledVector5sliceERKSs
FN:39,_ZN5neml25utils8allcloseERKNS_13LabeledVectorES3_dd
FNDA:206,_ZN5neml25utils8allcloseERKNS_13LabeledVectorES3_dd
FNDA:1430,_ZNK5neml213LabeledVector5sliceERKSs
FNF:2
FNH:2
DA:31,1430
DA:33,4290
DA:39,206
DA:41,206
DA:42,0
DA:44,422
DA:45,216
DA:46,422
DA:48,206
LF:9
LH:8
end_of_record
TN:
SF:/home/runner/work/neml2/neml2/src/neml2/tensors/Quaternion.cxx
FN:38,_ZN5neml210QuaternionC2ERKNS_3RotE
FN:47,_ZN5neml210Quaternion4fillERKdS2_S2_S2_RKN3c1013TensorOptionsE
FN:58,_ZN5neml210Quaternion4fillERKNS_6ScalarES3_S3_S3_
FN:64,_ZNK5neml210QuaternionclEl
FN:70,_ZNK5neml210Quaternion5to_R2Ev
FN:90,_ZNK5neml210Quaternion3dotERKS0_
FN:96,_ZNK5neml210Quaternion4distERKS0_
FNDA:0,_ZNK5neml210Quaternion3dotERKS0_
FNDA:99,_ZNK5neml210Quaternion5to_R2Ev
FNDA:2,_ZN5neml210Quaternion4fillERKNS_6ScalarES3_S3_S3_
FNDA:2970,_ZNK5neml210QuaternionclEl
FNDA:0,_ZN5neml210QuaternionC2ERKNS_3RotE
FNDA:2,_ZN5neml210Quaternion4fillERKdS2_S2_S2_RKN3c1013TensorOptionsE
FNDA:0,_ZNK5neml210Quaternion4distERKS0_
FNF:7
FNH:4
DA:38,0
DA:40,0
DA:41,0
DA:42,0
DA:44,0
DA:47,2
DA:54,4
DA:58,2
DA:60,12
DA:64,2970
DA:66,8910
DA:70,99
DA:72,99
DA:74,198
DA:75,198
DA:76,198
DA:78,198
DA:79,198
DA:80,198
DA:81,198
DA:82,198
DA:83,198
DA:84,198
DA:85,198
DA:86,396
DA:87,99
DA:90,0
DA:92,0
DA:96,0
DA:98,0
DA:100,0
DA:101,0
LF:32
LH:21
end_of_record
TN:
SF:/home/runner/work/neml2/neml2/src/neml2/tensors/R2.cxx
FN:38,_ZN5neml22R2C2ERKNS_3SR2E
FN:43,_ZN5neml22R2C2ERKNS_3WR2E
FN:48,_ZN5neml22R2C2ERKNS_3RotE
FN:54,_ZN5neml22R212identity_mapERKN3c1013TensorOptionsE
FNDA:2170,_ZN5neml22R2C2ERKNS_3SR2E
FNDA:7,_ZN5neml22R2C2ERKNS_3RotE
FNDA:464,_ZN5neml22R2C2ERKNS_3WR2E
FNDA:0,_ZN5neml22R212identity_mapERKN3c1013TensorOptionsE
FNF:4
FNH:3
DA:38,2170
DA:39,2170
DA:41,2170
DA:43,464
DA:44,464
DA:46,464
DA:48,7
DA:49,7
DA:51,7
DA:54,0
DA:56,0
LF:11
LH:9
end_of_record
TN:
SF:/home/runner/work/neml2/neml2/src/neml2/tensors/R2Base.cxx
FN:40,_ZN5neml26R2BaseINS_2R2EE4fillERKdRKN3c1013TensorOptionsE
FN:47,_ZN5neml26R2BaseINS_2R2EE4fillERKNS_6ScalarE
FN:59,_ZN5neml26R2BaseINS_2R2EE4fillERKdS4_S4_RKN3c1013TensorOptionsE
FN:69,_ZN5neml26R2BaseINS_2R2EE4fillERKNS_6ScalarES5_S5_
FN:81,_ZN5neml26R2BaseINS_2R2EE4fillERKdS4_S4_S4_S4_S4_RKN3c1013TensorOptionsE
FN:99,_ZN5neml26R2BaseINS_2R2EE4fillERKNS_6ScalarES5_S5_S5_S5_S5_
FN:115,_ZN5neml26R2BaseINS_2R2EE4fillERKdS4_S4_S4_S4_S4_S4_S4_S4_RKN3c1013TensorOptionsE
FN:139,_ZN5neml26R2BaseINS_2R2EE4fillERKNS_6ScalarES5_S5_S5_S5_S5_S5_S5_S5_
FN:158,_ZN5neml26R2BaseINS_2R2EE4skewERKNS_3VecE
FN:170,_ZN5neml26R2BaseINS_2R2EE8identityERKN3c1013TensorOptionsE
FN:177,_ZNK5neml26R2BaseINS_2R2EE6rotateERKNS_3RotE
FN:184,_ZNK5neml26R2BaseINS_2R2EE6rotateERKS1_
FN:191,_ZNK5neml26R2BaseINS_2R2EE7drotateERKNS_3RotE
FN:203,_ZNK5neml26R2BaseINS_2R2EE7drotateERKS1_
FN:212,_ZNK5neml26R2BaseINS_2R2EEclEll
FN:219,_ZNK5neml26R2BaseINS_2R2EE7inverseEv
FN:226,_ZNK5neml26R2BaseINS_2R2EE9transposeEv
FN:233,_ZN5neml2mlINS_2R2ENS_3VecEvvEES2_RKT_RKT0_
FN:241,_ZN5neml2mlINS_2R2ES1_vvEES1_RKT_RKT0_
FNDA:139,_ZN5neml26R2BaseINS_2R2EE4fillERKNS_6ScalarES5_S5_S5_S5_S5_S5_S5_S5_
FNDA:5,_ZN5neml26R2BaseINS_2R2EE4fillERKNS_6ScalarES5_S5_
FNDA:37,_ZN5neml26R2BaseINS_2R2EE4fillERKdS4_S4_S4_S4_S4_S4_S4_S4_RKN3c1013TensorOptionsE
FNDA:2553,_ZNK5neml26R2BaseINS_2R2EE9transposeEv
FNDA:86,_ZNK5neml26R2BaseINS_2R2EE7inverseEv
FNDA:11,_ZNK5neml26R2BaseINS_2R2EE7drotateERKNS_3RotE
FNDA:18,_ZNK5neml26R2BaseINS_2R2EE6rotateERKNS_3RotE
FNDA:1297,_ZN5neml26R2BaseINS_2R2EE4skewERKNS_3VecE
FNDA:134,_ZNK5neml26R2BaseINS_2R2EE7drotateERKS1_
FNDA:5652,_ZN5neml2mlINS_2R2ES1_vvEES1_RKT_RKT0_
FNDA:2,_ZN5neml26R2BaseINS_2R2EE4fillERKdS4_S4_RKN3c1013TensorOptionsE
FNDA:790,_ZNK5neml26R2BaseINS_2R2EE6rotateERKS1_
FNDA:26,_ZN5neml26R2BaseINS_2R2EE4fillERKdRKN3c1013TensorOptionsE
FNDA:27,_ZNK5neml26R2BaseINS_2R2EEclEll
FNDA:58,_ZN5neml26R2BaseINS_2R2EE4fillERKNS_6ScalarE
FNDA:5,_ZN5neml26R2BaseINS_2R2EE4fillERKNS_6ScalarES5_S5_S5_S5_S5_
FNDA:604,_ZN5neml2mlINS_2R2ENS_3VecEvvEES2_RKT_RKT0_
FNDA:2,_ZN5neml26R2BaseINS_2R2EE4fillERKdS4_S4_S4_S4_S4_RKN3c1013TensorOptionsE
FNDA:1946,_ZN5neml26R2BaseINS_2R2EE8identityERKN3c1013TensorOptionsE
FNF:19
FNH:19
DA:40,26
DA:42,52
DA:47,58
DA:49,58
DA:50,348
DA:51,174
DA:52,174
DA:54,812
DA:55,58
DA:59,2
DA:64,4
DA:69,5
DA:71,5
DA:72,30
DA:73,15
DA:74,15
DA:76,70
DA:77,5
DA:81,2
DA:89,4
DA:90,4
DA:91,4
DA:92,4
DA:93,4
DA:94,6
DA:99,5
DA:106,30
DA:107,15
DA:108,15
DA:110,65
DA:115,37
DA:126,74
DA:127,74
DA:128,74
DA:129,74
DA:130,74
DA:131,74
DA:132,74
DA:133,74
DA:134,111
DA:139,139
DA:149,834
DA:150,417
DA:151,417
DA:153,1807
DA:158,1297
DA:160,1297
DA:161,7782
DA:162,3891
DA:163,3891
DA:165,18158
DA:166,1297
DA:170,1946
DA:172,1946
DA:177,18
DA:179,18
DA:184,790
DA:186,790
DA:191,11
DA:193,11
DA:194,11
DA:196,55
DA:197,44
DA:198,121
DA:199,11
DA:203,134
DA:205,134
DA:206,536
DA:207,1072
DA:208,134
DA:212,27
DA:214,81
DA:219,86
DA:221,86
DA:226,2553
DA:228,2553
DA:233,604
DA:235,604
DA:236,1812
DA:241,5652
DA:243,5652
DA:244,16956
LF:82
LH:82
end_of_record
TN:
SF:/home/runner/work/neml2/neml2/src/neml2/tensors/R3.cxx
FN:33,_ZN5neml22R311levi_civitaERKN3c1013TensorOptionsE
FN:43,_ZNK5neml22R3clElll
FN:49,_ZNK5neml22R310contract_kERKNS_3VecE
FNDA:4,_ZNK5neml22R310contract_kERKNS_3VecE
FNDA:54,_ZNK5neml22R3clElll
FNDA:1198,_ZN5neml22R311levi_civitaERKN3c1013TensorOptionsE
FNF:3
FNH:3
DA:33,1198
DA:35,49118
DA:39,2396
DA:43,54
DA:45,270
DA:49,4
DA:51,4
DA:52,16
LF:8
LH:8
end_of_record
TN:
SF:/home/runner/work/neml2/neml2/src/neml2/tensors/R4.cxx
FN:38,_ZN5neml22R4C2ERKNS_4SSR4E
FN:43,_ZN5neml22R4C2ERKNS_4WWR4E
FN:49,_ZNK5neml22R46rotateERKNS_3RotE
FN:59,_ZNK5neml22R47drotateERKNS_3RotE
FN:75,_ZNK5neml22R412drotate_selfERKNS_3RotE
FN:88,_ZNK5neml22R4clEllll
FN:94,_ZNK5neml22R49transposeEll
FN:100,_ZNK5neml22R415transpose_minorEv
FN:106,_ZNK5neml22R415transpose_majorEv
FNDA:1,_ZNK5neml22R415transpose_majorEv
FNDA:4,_ZNK5neml22R412drotate_selfERKNS_3RotE
FNDA:0,_ZN5neml22R4C2ERKNS_4WWR4E
FNDA:28,_ZNK5neml22R47drotateERKNS_3RotE
FNDA:1255,_ZNK5neml22R49transposeEll
FNDA:486,_ZNK5neml22R4clEllll
FNDA:509,_ZN5neml22R4C2ERKNS_4SSR4E
FNDA:573,_ZNK5neml22R46rotateERKNS_3RotE
FNDA:560,_ZNK5neml22R415transpose_minorEv
FNF:9
FNH:8
DA:38,509
DA:39,509
DA:41,509
DA:43,0
DA:44,0
DA:46,0
DA:49,573
DA:51,573
DA:52,573
DA:54,3438
DA:55,1146
DA:56,573
DA:59,28
DA:61,28
DA:62,28
DA:63,28
DA:65,168
DA:66,168
DA:67,168
DA:68,168
DA:69,56
DA:71,56
DA:72,28
DA:75,4
DA:77,4
DA:78,4
DA:80,24
DA:82,4
DA:83,2
DA:84,2
DA:85,4
DA:88,486
DA:90,2916
DA:94,1255
DA:96,2510
DA:100,560
DA:102,1120
DA:106,1
DA:108,2
LF:39
LH:36
end_of_record
TN:
SF:/home/runner/work/neml2/neml2/src/neml2/tensors/Rot.cxx
FN:39,_ZN5neml23RotC2ERKNS_3VecE
FN:45,_ZN5neml23Rot8identityERKN3c1013TensorOptionsE
FN:51,_ZN5neml23Rot17fill_euler_anglesERKN2at6TensorESsSs
FN:104,_ZN5neml23Rot11fill_matrixERKNS_2R2E
FN:122,_ZN5neml23Rot14fill_rodriguesERKNS_6ScalarES3_S3_
FN:134,_ZN5neml23Rot11fill_randomEjl
FN:153,_ZNK5neml23Rot7inverseEv
FN:159,_ZNK5neml23Rot15euler_rodriguesEv
FN:170,_ZNK5neml23Rot16deuler_rodriguesEv
FN:185,_ZNK5neml23Rot6rotateERKS0_
FN:191,_ZNK5neml23Rot7drotateERKS0_
FN:207,_ZNK5neml23Rot12drotate_selfERKS0_
FN:223,_ZNK5neml23Rot6shadowEv
FN:229,_ZNK5neml23Rot7dshadowEv
FN:237,_ZNK5neml23Rot4distERKS0_
FN:246,_ZNK5neml23Rot5gdistERKS0_
FN:253,_ZNK5neml23Rot2dVEv
FN:259,_ZN5neml2mlERKNS_3RotES2_
FNDA:474,_ZN5neml2mlERKNS_3RotES2_
FNDA:0,_ZNK5neml23Rot5gdistERKS0_
FNDA:9,_ZNK5neml23Rot12drotate_selfERKS0_
FNDA:0,_ZN5neml23Rot11fill_randomEjl
FNDA:0,_ZNK5neml23Rot4distERKS0_
FNDA:89,_ZNK5neml23Rot7drotateERKS0_
FNDA:0,_ZN5neml23RotC2ERKNS_3VecE
FNDA:6,_ZN5neml23Rot11fill_matrixERKNS_2R2E
FNDA:470,_ZNK5neml23Rot6rotateERKS0_
FNDA:25,_ZNK5neml23Rot6shadowEv
FNDA:6,_ZN5neml23Rot17fill_euler_anglesERKN2at6TensorESsSs
FNDA:120,_ZNK5neml23Rot16deuler_rodriguesEv
FNDA:0,_ZNK5neml23Rot2dVEv
FNDA:2,_ZNK5neml23Rot7inverseEv
FNDA:5,_ZNK5neml23Rot7dshadowEv
FNDA:1077,_ZNK5neml23Rot15euler_rodriguesEv
FNDA:6,_ZN5neml23Rot14fill_rodriguesERKNS_6ScalarES3_S3_
FNDA:3,_ZN5neml23Rot8identityERKN3c1013TensorOptionsE
FNF:18
FNH:13
DA:39,0
DA:40,0
DA:42,0
DA:45,3
DA:47,3
DA:51,6
DA:55,6
DA:57,6
DA:59,6
DA:60,3
DA:62,3
DA:64,6
DA:66,6
DA:67,8
DA:68,10
DA:69,6
DA:70,8
DA:72,4
DA:74,10
DA:77,2
DA:80,6
DA:81,18
DA:82,18
DA:83,18
DA:85,24
DA:86,12
DA:87,24
DA:88,12
DA:89,24
DA:90,24
DA:91,12
DA:92,24
DA:93,12
DA:94,24
DA:95,24
DA:96,24
DA:97,24
DA:100,18
DA:101,6
DA:104,6
DA:107,60
DA:108,36
DA:109,12
DA:112,12
DA:113,12
DA:114,54
DA:115,54
DA:116,54
DA:118,12
DA:119,6
DA:122,6
DA:125,12
DA:126,12
DA:127,18
DA:130,36
DA:131,6
DA:134,0
DA:136,0
DA:137,0
DA:138,0
DA:139,0
DA:140,0
DA:142,0
DA:143,0
DA:144,0
DA:145,0
DA:147,0
DA:149,0
DA:150,0
DA:153,2
DA:155,2
DA:159,1077
DA:161,1077
DA:162,1077
DA:163,1077
DA:165,2154
DA:166,4308
DA:167,1077
DA:170,120
DA:172,120
DA:173,120
DA:174,120
DA:175,120
DA:177,480
DA:178,720
DA:179,360
DA:180,240
DA:181,960
DA:182,120
DA:185,470
DA:187,470
DA:191,89
DA:193,89
DA:194,89
DA:196,89
DA:197,89
DA:198,178
DA:199,89
DA:200,89
DA:202,178
DA:203,356
DA:204,89
DA:207,9
DA:209,9
DA:210,9
DA:212,9
DA:213,9
DA:214,18
DA:215,9
DA:216,9
DA:218,18
DA:219,36
DA:220,9
DA:223,25
DA:225,50
DA:229,5
DA:231,5
DA:233,15
DA:234,5
DA:237,0
DA:239,0
DA:240,0
DA:242,0
DA:243,0
DA:246,0
DA:248,0
DA:249,0
DA:253,0
DA:255,0
DA:259,474
DA:261,474
DA:262,474
DA:264,948
DA:265,1896
DA:266,474
LF:135
LH:109
end_of_record
TN:
SF:/home/runner/work/neml2/neml2/src/neml2/tensors/SR2.cxx
FN:40,_ZN5neml23SR2C2ERKNS_2R2E
FN:46,_ZN5neml23SR24fillERKdRKN3c1013TensorOptionsE
FN:52,_ZN5neml23SR24fillERKNS_6ScalarE
FN:59,_ZN5neml23SR24fillERKdS2_S2_RKN3c1013TensorOptionsE
FN:68,_ZN5neml23SR24fillERKNS_6ScalarES3_S3_
FN:75,_ZN5neml23SR24fillERKdS2_S2_S2_S2_S2_RKN3c1013TensorOptionsE
FN:92,_ZN5neml23SR24fillERKNS_6ScalarES3_S3_S3_S3_S3_
FN:110,_ZN5neml23SR28identityERKN3c1013TensorOptionsE
FN:116,_ZN5neml23SR212identity_mapERKN3c1013TensorOptionsE
FN:122,_ZNK5neml23SR26rotateERKNS_3RotE
FN:128,_ZNK5neml23SR26rotateERKNS_2R2E
FN:134,_ZNK5neml23SR27drotateERKNS_3RotE
FN:141,_ZNK5neml23SR27drotateERKNS_2R2E
FN:148,_ZNK5neml23SR2clEll
FN:155,_ZNK5neml23SR22trEv
FN:161,_ZNK5neml23SR23volEv
FN:167,_ZNK5neml23SR23devEv
FN:173,_ZNK5neml23SR23detEv
FN:186,_ZNK5neml23SR25innerERKS0_
FN:193,_ZNK5neml23SR27norm_sqEv
FN:199,_ZNK5neml23SR24normEd
FN:205,_ZNK5neml23SR25outerERKS0_
FN:212,_ZNK5neml23SR27inverseEv
FN:218,_ZNK5neml23SR29transposeEv
FNDA:4,_ZNK5neml23SR27drotateERKNS_3RotE
FNDA:101,_ZN5neml23SR24fillERKNS_6ScalarES3_S3_S3_S3_S3_
FNDA:391,_ZNK5neml23SR25outerERKS0_
FNDA:2,_ZNK5neml23SR29transposeEv
FNDA:4,_ZN5neml23SR24fillERKdS2_S2_RKN3c1013TensorOptionsE
FNDA:2210,_ZNK5neml23SR27norm_sqEv
FNDA:2876,_ZN5neml23SR24fillERKNS_6ScalarE
FNDA:8,_ZNK5neml23SR26rotateERKNS_3RotE
FNDA:933,_ZN5neml23SR28identityERKN3c1013TensorOptionsE
FNDA:26,_ZN5neml23SR24fillERKdS2_S2_S2_S2_S2_RKN3c1013TensorOptionsE
FNDA:2,_ZNK5neml23SR27inverseEv
FNDA:33,_ZN5neml23SR24fillERKNS_6ScalarES3_S3_
FNDA:21,_ZNK5neml23SR2clEll
FNDA:2633,_ZNK5neml23SR25innerERKS0_
FNDA:772,_ZNK5neml23SR26rotateERKNS_2R2E
FNDA:6465,_ZNK5neml23SR22trEv
FNDA:1217,_ZN5neml23SR2C2ERKNS_2R2E
FNDA:2,_ZNK5neml23SR23detEv
FNDA:2850,_ZNK5neml23SR23volEv
FNDA:2208,_ZNK5neml23SR24normEd
FNDA:1999,_ZNK5neml23SR23devEv
FNDA:3,_ZN5neml23SR24fillERKdRKN3c1013TensorOptionsE
FNDA:3500,_ZN5neml23SR212identity_mapERKN3c1013TensorOptionsE
FNDA:134,_ZNK5neml23SR27drotateERKNS_2R2E
FNF:24
FNH:24
DA:40,1217
DA:41,1217
DA:43,1217
DA:46,3
DA:48,6
DA:52,2876
DA:54,2876
DA:55,25884
DA:56,2876
DA:59,4
DA:64,8
DA:68,33
DA:70,33
DA:71,297
DA:72,33
DA:75,26
DA:83,52
DA:84,52
DA:85,52
DA:86,52
DA:87,52
DA:88,78
DA:92,101
DA:99,1111
DA:102,202
DA:103,202
DA:104,202
DA:106,303
DA:110,933
DA:112,7464
DA:116,3500
DA:118,3500
DA:122,8
DA:124,16
DA:128,772
DA:130,1544
DA:134,4
DA:136,4
DA:137,12
DA:138,4
DA:141,134
DA:143,134
DA:144,402
DA:145,134
DA:148,21
DA:150,21
DA:151,63
DA:155,6465
DA:157,19395
DA:161,2850
DA:163,5700
DA:167,1999
DA:169,3998
DA:173,2
DA:175,2
DA:176,2
DA:177,2
DA:178,2
DA:179,2
DA:180,2
DA:181,4
DA:182,8
DA:183,2
DA:186,2633
DA:188,2633
DA:189,5266
DA:193,2210
DA:195,2210
DA:199,2208
DA:201,4416
DA:205,391
DA:207,391
DA:208,1564
DA:212,2
DA:214,4
DA:218,2
DA:220,2
LF:77
LH:77
end_of_record
TN:
SF:/home/runner/work/neml2/neml2/src/neml2/tensors/SSR4.cxx
FN:38,_ZN5neml24SSR4C2ERKNS_2R4E
FN:47,_ZN5neml24SSR48identityERKN3c1013TensorOptionsE
FN:60,_ZN5neml24SSR411identity_C1ERKN3c1013TensorOptionsE
FN:73,_ZN5neml24SSR411identity_C2ERKN3c1013TensorOptionsE
FN:86,_ZN5neml24SSR411identity_C3ERKN3c1013TensorOptionsE
FN:99,_ZN5neml24SSR412identity_symERKN3c1013TensorOptionsE
FN:105,_ZN5neml24SSR412identity_volERKN3c1013TensorOptionsE
FN:111,_ZN5neml24SSR412identity_devERKN3c1013TensorOptionsE
FN:117,_ZN5neml24SSR414isotropic_E_nuERKNS_6ScalarES3_
FN:131,_ZN5neml24SSR414isotropic_E_nuERKdS2_RKN3c1013TensorOptionsE
FN:137,_ZN5neml24SSR413fill_C1_C2_C3ERKNS_6ScalarES3_S3_
FN:146,_ZN5neml24SSR413fill_C1_C2_C3ERKdS2_S2_RKN3c1013TensorOptionsE
FN:155,_ZN5neml24SSR412identity_mapERKN3c1013TensorOptionsE
FN:162,_ZNK5neml24SSR46rotateERKNS_3RotE
FN:168,_ZNK5neml24SSR47drotateERKNS_3RotE
FN:175,_ZNK5neml24SSR412drotate_selfERKNS_3RotE
FN:189,_ZNK5neml24SSR4clEllll
FN:197,_ZNK5neml24SSR47inverseEv
FN:203,_ZNK5neml24SSR48dinverseEv
FN:210,_ZNK5neml24SSR415transpose_minorEv
FN:216,_ZNK5neml24SSR415transpose_majorEv
FN:222,_ZN5neml2mlERKNS_4SSR4ERKNS_3SR2E
FN:229,_ZN5neml2mlERKNS_3SR2ERKNS_4SSR4E
FN:236,_ZN5neml2mlERKNS_4SSR4ES2_
FNDA:324,_ZNK5neml24SSR4clEllll
FNDA:553,_ZN5neml24SSR4C2ERKNS_2R4E
FNDA:714,_ZN5neml24SSR48identityERKN3c1013TensorOptionsE
FNDA:35,_ZN5neml24SSR411identity_C3ERKN3c1013TensorOptionsE
FNDA:263,_ZN5neml24SSR412identity_volERKN3c1013TensorOptionsE
FNDA:35,_ZN5neml24SSR411identity_C1ERKN3c1013TensorOptionsE
FNDA:12,_ZNK5neml24SSR412drotate_selfERKNS_3RotE
FNDA:9,_ZN5neml24SSR412identity_mapERKN3c1013TensorOptionsE
FNDA:4255,_ZN5neml24SSR412identity_symERKN3c1013TensorOptionsE
FNDA:0,_ZNK5neml24SSR415transpose_majorEv
FNDA:444,_ZN5neml24SSR412identity_devERKN3c1013TensorOptionsE
FNDA:35,_ZN5neml24SSR411identity_C2ERKN3c1013TensorOptionsE
FNDA:3,_ZN5neml24SSR414isotropic_E_nuERKdS2_RKN3c1013TensorOptionsE
FNDA:0,_ZNK5neml24SSR415transpose_minorEv
FNDA:0,_ZN5neml24SSR413fill_C1_C2_C3ERKdS2_S2_RKN3c1013TensorOptionsE
FNDA:483,_ZNK5neml24SSR46rotateERKNS_3RotE
FNDA:227,_ZNK5neml24SSR47inverseEv
FNDA:1400,_ZN5neml2mlERKNS_4SSR4ERKNS_3SR2E
FNDA:212,_ZN5neml2mlERKNS_4SSR4ES2_
FNDA:4,_ZN5neml2mlERKNS_3SR2ERKNS_4SSR4E
FNDA:5,_ZN5neml24SSR414isotropic_E_nuERKNS_6ScalarES3_
FNDA:14,_ZNK5neml24SSR48dinverseEv
FNDA:24,_ZNK5neml24SSR47drotateERKNS_3RotE
FNDA:5,_ZN5neml24SSR413fill_C1_C2_C3ERKNS_6ScalarES3_S3_
FNF:24
FNH:21
DA:38,553
DA:39,1106
DA:40,1106
DA:41,1106
DA:42,553
DA:44,553
DA:47,714
DA:49,31416
DA:56,1428
DA:60,35
DA:62,1540
DA:69,70
DA:73,35
DA:75,1540
DA:82,70
DA:86,35
DA:88,1540
DA:95,70
DA:99,4255
DA:101,8510
DA:105,263
DA:107,526
DA:111,444
DA:113,888
DA:117,5
DA:119,5
DA:121,5
DA:122,10
DA:123,5
DA:124,5
DA:125,10
DA:127,10
DA:128,5
DA:131,3
DA:133,6
DA:137,5
DA:139,5
DA:141,10
DA:142,15
DA:146,0
DA:151,0
DA:155,9
DA:157,9
DA:158,45
DA:159,9
DA:162,483
DA:164,966
DA:168,24
DA:170,24
DA:171,72
DA:172,24
DA:175,12
DA:177,12
DA:178,84
DA:179,108
DA:180,108
DA:181,96
DA:182,24
DA:183,24
DA:184,24
DA:185,24
DA:186,12
DA:189,324
DA:191,324
DA:192,324
DA:193,1296
DA:197,227
DA:199,454
DA:203,14
DA:205,14
DA:206,70
DA:207,14
DA:210,0
DA:212,0
DA:216,0
DA:218,0
DA:222,1400
DA:224,1400
DA:225,2800
DA:229,4
DA:231,4
DA:232,8
DA:236,212
DA:238,212
DA:239,424
LF:85
LH:79
end_of_record
TN:
SF:/home/runner/work/neml2/neml2/src/neml2/tensors/SWR4.cxx
FN:32,_ZN5neml24SWR4C2ERKNS_2R4E
FNDA:5,_ZN5neml24SWR4C2ERKNS_2R4E
FNF:1
FNH:1
DA:32,5
DA:33,5
DA:35,5
LF:3
LH:3
end_of_record
TN:
SF:/home/runner/work/neml2/neml2/src/neml2/tensors/Scalar.cxx
FN:29,_ZN5neml26ScalarC2EdRKN3c1013TensorOptionsE
FN:35,_ZN5neml26Scalar12identity_mapERKN3c1013TensorOptionsE
FN:43,_ZN5neml24math7minimumERKNS_6ScalarES3_
FN:53,_ZN5neml2mlERKNS_6ScalarES2_
FN:60,_ZN5neml23absERKNS_6ScalarE
FNDA:494,_ZN5neml23absERKNS_6ScalarE
FNDA:2976,_ZN5neml26Scalar12identity_mapERKN3c1013TensorOptionsE
FNDA:28477,_ZN5neml2mlERKNS_6ScalarES2_
FNDA:0,_ZN5neml24math7minimumERKNS_6ScalarES3_
FNDA:2176,_ZN5neml26ScalarC2EdRKN3c1013TensorOptionsE
FNF:5
FNH:4
DA:29,2176
DA:30,2176
DA:32,2176
DA:35,2976
DA:37,2976
DA:43,0
DA:45,0
DA:46,0
DA:47,0
DA:48,0
DA:49,0
DA:53,28477
DA:55,28477
DA:56,56954
DA:60,494
DA:62,988
LF:16
LH:10
end_of_record
TN:
SF:/home/runner/work/neml2/neml2/src/neml2/tensors/Tensor.cxx
FN:30,_ZN5neml26Tensor5emptyERKN3c108ArrayRefIlEERKNS1_13TensorOptionsE
FN:36,_ZN5neml26Tensor5emptyERKN3c108ArrayRefIlEES5_RKNS1_13TensorOptionsE
FN:45,_ZN5neml26Tensor5zerosERKN3c108ArrayRefIlEERKNS1_13TensorOptionsE
FN:51,_ZN5neml26Tensor5zerosERKN3c108ArrayRefIlEES5_RKNS1_13TensorOptionsE
FN:60,_ZN5neml26Tensor4onesERKN3c108ArrayRefIlEERKNS1_13TensorOptionsE
FN:66,_ZN5neml26Tensor4onesERKN3c108ArrayRefIlEES5_RKNS1_13TensorOptionsE
FN:75,_ZN5neml26Tensor4fullERKN3c108ArrayRefIlEEdRKNS1_13TensorOptionsE
FN:81,_ZN5neml26Tensor4fullERKN3c108ArrayRefIlEES5_dRKNS1_13TensorOptionsE
FN:91,_ZN5neml26Tensor8identityElRKN3c1013TensorOptionsE
FN:97,_ZN5neml26Tensor8identityERKN3c108ArrayRefIlEElRKNS1_13TensorOptionsE
FN:105,_ZN5neml24math3bmmERKNS_6TensorES3_
FN:120,_ZN5neml24math3bmvERKNS_6TensorES3_
FN:135,_ZN5neml24math3bvvERKNS_6TensorES3_
FN:151,_ZN5neml2mlERKNS_6TensorES2_
FNDA:422,_ZN5neml26Tensor5emptyERKN3c108ArrayRefIlEES5_RKNS1_13TensorOptionsE
FNDA:11,_ZN5neml26Tensor4fullERKN3c108ArrayRefIlEEdRKNS1_13TensorOptionsE
FNDA:31163,_ZN5neml26Tensor5zerosERKN3c108ArrayRefIlEES5_RKNS1_13TensorOptionsE
FNDA:39,_ZN5neml24math3bmvERKNS_6TensorES3_
FNDA:8757,_ZN5neml24math3bmmERKNS_6TensorES3_
FNDA:6,_ZN5neml26Tensor4onesERKN3c108ArrayRefIlEERKNS1_13TensorOptionsE
FNDA:1,_ZN5neml26Tensor5emptyERKN3c108ArrayRefIlEERKNS1_13TensorOptionsE
FNDA:812,_ZN5neml2mlERKNS_6TensorES2_
FNDA:1832,_ZN5neml26Tensor8identityERKN3c108ArrayRefIlEElRKNS1_13TensorOptionsE
FNDA:52,_ZN5neml26Tensor4fullERKN3c108ArrayRefIlEES5_dRKNS1_13TensorOptionsE
FNDA:1,_ZN5neml26Tensor5zerosERKN3c108ArrayRefIlEERKNS1_13TensorOptionsE
FNDA:675,_ZN5neml24math3bvvERKNS_6TensorES3_
FNDA:12,_ZN5neml26Tensor4onesERKN3c108ArrayRefIlEES5_RKNS1_13TensorOptionsE
FNDA:2077,_ZN5neml26Tensor8identityElRKN3c1013TensorOptionsE
FNF:14
FNH:14
DA:30,1
DA:32,2
DA:36,422
DA:40,844
DA:41,1266
DA:45,1
DA:47,2
DA:51,31163
DA:55,62326
DA:56,93489
DA:60,6
DA:62,12
DA:66,12
DA:70,24
DA:71,36
DA:75,11
DA:77,22
DA:81,52
DA:86,104
DA:87,156
DA:91,2077
DA:93,4154
DA:97,1832
DA:99,3664
DA:105,8757
DA:107,8757
DA:108,8757
DA:110,8757
DA:112,8757
DA:114,8757
DA:116,17514
DA:120,39
DA:122,39
DA:123,39
DA:125,39
DA:127,39
DA:129,39
DA:131,78
DA:135,675
DA:137,675
DA:138,675
DA:140,675
DA:142,675
DA:144,675
DA:146,1350
DA:151,812
DA:153,812
DA:154,1624
LF:48
LH:48
end_of_record
TN:
SF:/home/runner/work/neml2/neml2/src/neml2/tensors/TensorBase.cxx
FN:31,_ZN5neml210TensorBaseINS_3RotEEC2ERKN2at6TensorEl
FN:31,_ZN5neml210TensorBaseINS_3WR2EEC2ERKN2at6TensorEl
FN:31,_ZN5neml210TensorBaseINS_10QuaternionEEC2ERKN2at6TensorEl
FN:31,_ZN5neml210TensorBaseINS_6TensorEEC2ERKN2at6TensorEl
FN:31,_ZN5neml210TensorBaseINS_4SWR4EEC2ERKN2at6TensorEl
FN:31,_ZN5neml210TensorBaseINS_4SSR4EEC2ERKN2at6TensorEl
FN:31,_ZN5neml210TensorBaseINS_6ScalarEEC2ERKN2at6TensorEl
FN:31,_ZN5neml210TensorBaseINS_3SR2EEC2ERKN2at6TensorEl
FN:31,_ZN5neml210TensorBaseINS_5SFFR4EEC2ERKN2at6TensorEl
FN:31,_ZN5neml210TensorBaseINS_4SFR3EEC2ERKN2at6TensorEl
FN:31,_ZN5neml210TensorBaseINS_3VecEEC2ERKN2at6TensorEl
FN:31,_ZN5neml210TensorBaseINS_2R3EEC2ERKN2at6TensorEl
FN:31,_ZN5neml210TensorBaseINS_5SSFR5EEC2ERKN2at6TensorEl
FN:31,_ZN5neml210TensorBaseINS_11MillerIndexEEC2ERKN2at6TensorEl
FN:31,_ZN5neml210TensorBaseINS_4WSR4EEC2ERKN2at6TensorEl
FN:31,_ZN5neml210TensorBaseINS_2R2EEC2ERKN2at6TensorEl
FN:31,_ZN5neml210TensorBaseINS_2R4EEC2ERKN2at6TensorEl
FN:31,_ZN5neml210TensorBaseINS_6SSSSR8EEC2ERKN2at6TensorEl
FN:31,_ZN5neml210TensorBaseINS_2R5EEC2ERKN2at6TensorEl
FN:31,_ZN5neml210TensorBaseINS_2R8EEC2ERKN2at6TensorEl
FN:31,_ZN5neml210TensorBaseINS_4WWR4EEC2ERKN2at6TensorEl
FN:43,_ZN5neml210TensorBaseINS_6TensorEEC2ERKS1_
FN:43,_ZN5neml210TensorBaseINS_5SFFR4EEC2ERKS1_
FN:43,_ZN5neml210TensorBaseINS_4WSR4EEC2ERKS1_
FN:43,_ZN5neml210TensorBaseINS_4WWR4EEC2ERKS1_
FN:43,_ZN5neml210TensorBaseINS_3WR2EEC2ERKS1_
FN:43,_ZN5neml210TensorBaseINS_6ScalarEEC2ERKS1_
FN:43,_ZN5neml210TensorBaseINS_2R5EEC2ERKS1_
FN:43,_ZN5neml210TensorBaseINS_3RotEEC2ERKS1_
FN:43,_ZN5neml210TensorBaseINS_4SFR3EEC2ERKS1_
FN:43,_ZN5neml210TensorBaseINS_2R2EEC2ERKS1_
FN:43,_ZN5neml210TensorBaseINS_4SWR4EEC2ERKS1_
FN:43,_ZN5neml210TensorBaseINS_3SR2EEC2ERKS1_
FN:43,_ZN5neml210TensorBaseINS_4SSR4EEC2ERKS1_
FN:43,_ZN5neml210TensorBaseINS_2R8EEC2ERKS1_
FN:43,_ZN5neml210TensorBaseINS_3VecEEC2ERKS1_
FN:43,_ZN5neml210TensorBaseINS_5SSFR5EEC2ERKS1_
FN:43,_ZN5neml210TensorBaseINS_11MillerIndexEEC2ERKS1_
FN:43,_ZN5neml210TensorBaseINS_6SSSSR8EEC2ERKS1_
FN:43,_ZN5neml210TensorBaseINS_10QuaternionEEC2ERKS1_
FN:43,_ZN5neml210TensorBaseINS_2R4EEC2ERKS1_
FN:43,_ZN5neml210TensorBaseINS_2R3EEC2ERKS1_
FN:51,_ZN5neml210TensorBaseINS_2R8EE10empty_likeERKS1_
FN:51,_ZN5neml210TensorBaseINS_2R5EE10empty_likeERKS1_
FN:51,_ZN5neml210TensorBaseINS_3SR2EE10empty_likeERKS1_
FN:51,_ZN5neml210TensorBaseINS_11MillerIndexEE10empty_likeERKS1_
FN:51,_ZN5neml210TensorBaseINS_3WR2EE10empty_likeERKS1_
FN:51,_ZN5neml210TensorBaseINS_4WWR4EE10empty_likeERKS1_
FN:51,_ZN5neml210TensorBaseINS_2R4EE10empty_likeERKS1_
FN:51,_ZN5neml210TensorBaseINS_4SFR3EE10empty_likeERKS1_
FN:51,_ZN5neml210TensorBaseINS_6TensorEE10empty_likeERKS1_
FN:51,_ZN5neml210TensorBaseINS_5SSFR5EE10empty_likeERKS1_
FN:51,_ZN5neml210TensorBaseINS_3RotEE10empty_likeERKS1_
FN:51,_ZN5neml210TensorBaseINS_4WSR4EE10empty_likeERKS1_
FN:51,_ZN5neml210TensorBaseINS_4SSR4EE10empty_likeERKS1_
FN:51,_ZN5neml210TensorBaseINS_6SSSSR8EE10empty_likeERKS1_
FN:51,_ZN5neml210TensorBaseINS_6ScalarEE10empty_likeERKS1_
FN:51,_ZN5neml210TensorBaseINS_10QuaternionEE10empty_likeERKS1_
FN:51,_ZN5neml210TensorBaseINS_3VecEE10empty_likeERKS1_
FN:51,_ZN5neml210TensorBaseINS_2R2EE10empty_likeERKS1_
FN:51,_ZN5neml210TensorBaseINS_4SWR4EE10empty_likeERKS1_
FN:51,_ZN5neml210TensorBaseINS_2R3EE10empty_likeERKS1_
FN:51,_ZN5neml210TensorBaseINS_5SFFR4EE10empty_likeERKS1_
FN:58,_ZN5neml210TensorBaseINS_3WR2EE10zeros_likeERKS1_
FN:58,_ZN5neml210TensorBaseINS_2R5EE10zeros_likeERKS1_
FN:58,_ZN5neml210TensorBaseINS_11MillerIndexEE10zeros_likeERKS1_
FN:58,_ZN5neml210TensorBaseINS_4WSR4EE10zeros_likeERKS1_
FN:58,_ZN5neml210TensorBaseINS_3VecEE10zeros_likeERKS1_
FN:58,_ZN5neml210TensorBaseINS_4SFR3EE10zeros_likeERKS1_
FN:58,_ZN5neml210TensorBaseINS_3SR2EE10zeros_likeERKS1_
FN:58,_ZN5neml210TensorBaseINS_4WWR4EE10zeros_likeERKS1_
FN:58,_ZN5neml210TensorBaseINS_6ScalarEE10zeros_likeERKS1_
FN:58,_ZN5neml210TensorBaseINS_10QuaternionEE10zeros_likeERKS1_
FN:58,_ZN5neml210TensorBaseINS_3RotEE10zeros_likeERKS1_
FN:58,_ZN5neml210TensorBaseINS_6SSSSR8EE10zeros_likeERKS1_
FN:58,_ZN5neml210TensorBaseINS_6TensorEE10zeros_likeERKS1_
FN:58,_ZN5neml210TensorBaseINS_2R2EE10zeros_likeERKS1_
FN:58,_ZN5neml210TensorBaseINS_4SSR4EE10zeros_likeERKS1_
FN:58,_ZN5neml210TensorBaseINS_2R8EE10zeros_likeERKS1_
FN:58,_ZN5neml210TensorBaseINS_5SSFR5EE10zeros_likeERKS1_
FN:58,_ZN5neml210TensorBaseINS_5SFFR4EE10zeros_likeERKS1_
FN:58,_ZN5neml210TensorBaseINS_2R3EE10zeros_likeERKS1_
FN:58,_ZN5neml210TensorBaseINS_4SWR4EE10zeros_likeERKS1_
FN:58,_ZN5neml210TensorBaseINS_2R4EE10zeros_likeERKS1_
FN:65,_ZN5neml210TensorBaseINS_2R5EE9ones_likeERKS1_
FN:65,_ZN5neml210TensorBaseINS_6TensorEE9ones_likeERKS1_
FN:65,_ZN5neml210TensorBaseINS_3WR2EE9ones_likeERKS1_
FN:65,_ZN5neml210TensorBaseINS_11MillerIndexEE9ones_likeERKS1_
FN:65,_ZN5neml210TensorBaseINS_3SR2EE9ones_likeERKS1_
FN:65,_ZN5neml210TensorBaseINS_4SSR4EE9ones_likeERKS1_
FN:65,_ZN5neml210TensorBaseINS_5SSFR5EE9ones_likeERKS1_
FN:65,_ZN5neml210TensorBaseINS_2R8EE9ones_likeERKS1_
FN:65,_ZN5neml210TensorBaseINS_2R2EE9ones_likeERKS1_
FN:65,_ZN5neml210TensorBaseINS_2R3EE9ones_likeERKS1_
FN:65,_ZN5neml210TensorBaseINS_3RotEE9ones_likeERKS1_
FN:65,_ZN5neml210TensorBaseINS_4SWR4EE9ones_likeERKS1_
FN:65,_ZN5neml210TensorBaseINS_6SSSSR8EE9ones_likeERKS1_
FN:65,_ZN5neml210TensorBaseINS_3VecEE9ones_likeERKS1_
FN:65,_ZN5neml210TensorBaseINS_4WSR4EE9ones_likeERKS1_
FN:65,_ZN5neml210TensorBaseINS_5SFFR4EE9ones_likeERKS1_
FN:65,_ZN5neml210TensorBaseINS_10QuaternionEE9ones_likeERKS1_
FN:65,_ZN5neml210TensorBaseINS_6ScalarEE9ones_likeERKS1_
FN:65,_ZN5neml210TensorBaseINS_4SFR3EE9ones_likeERKS1_
FN:65,_ZN5neml210TensorBaseINS_2R4EE9ones_likeERKS1_
FN:65,_ZN5neml210TensorBaseINS_4WWR4EE9ones_likeERKS1_
FN:72,_ZN5neml210TensorBaseINS_4SWR4EE9full_likeERKS1_d
FN:72,_ZN5neml210TensorBaseINS_5SSFR5EE9full_likeERKS1_d
FN:72,_ZN5neml210TensorBaseINS_2R3EE9full_likeERKS1_d
FN:72,_ZN5neml210TensorBaseINS_3SR2EE9full_likeERKS1_d
FN:72,_ZN5neml210TensorBaseINS_4WSR4EE9full_likeERKS1_d
FN:72,_ZN5neml210TensorBaseINS_2R5EE9full_likeERKS1_d
FN:72,_ZN5neml210TensorBaseINS_6TensorEE9full_likeERKS1_d
FN:72,_ZN5neml210TensorBaseINS_5SFFR4EE9full_likeERKS1_d
FN:72,_ZN5neml210TensorBaseINS_3WR2EE9full_likeERKS1_d
FN:72,_ZN5neml210TensorBaseINS_3RotEE9full_likeERKS1_d
FN:72,_ZN5neml210TensorBaseINS_11MillerIndexEE9full_likeERKS1_d
FN:72,_ZN5neml210TensorBaseINS_6ScalarEE9full_likeERKS1_d
FN:72,_ZN5neml210TensorBaseINS_10QuaternionEE9full_likeERKS1_d
FN:72,_ZN5neml210TensorBaseINS_4WWR4EE9full_likeERKS1_d
FN:72,_ZN5neml210TensorBaseINS_2R4EE9full_likeERKS1_d
FN:72,_ZN5neml210TensorBaseINS_4SFR3EE9full_likeERKS1_d
FN:72,_ZN5neml210TensorBaseINS_2R2EE9full_likeERKS1_d
FN:72,_ZN5neml210TensorBaseINS_4SSR4EE9full_likeERKS1_d
FN:72,_ZN5neml210TensorBaseINS_6SSSSR8EE9full_likeERKS1_d
FN:72,_ZN5neml210TensorBaseINS_3VecEE9full_likeERKS1_d
FN:72,_ZN5neml210TensorBaseINS_2R8EE9full_likeERKS1_d
FN:79,_ZN5neml210TensorBaseINS_4SWR4EE8linspaceERKS1_S4_lll
FN:79,_ZN5neml210TensorBaseINS_6SSSSR8EE8linspaceERKS1_S4_lll
FN:79,_ZN5neml210TensorBaseINS_2R2EE8linspaceERKS1_S4_lll
FN:79,_ZN5neml210TensorBaseINS_5SFFR4EE8linspaceERKS1_S4_lll
FN:79,_ZN5neml210TensorBaseINS_5SSFR5EE8linspaceERKS1_S4_lll
FN:79,_ZN5neml210TensorBaseINS_4WSR4EE8linspaceERKS1_S4_lll
FN:79,_ZN5neml210TensorBaseINS_10QuaternionEE8linspaceERKS1_S4_lll
FN:79,_ZN5neml210TensorBaseINS_4WWR4EE8linspaceERKS1_S4_lll
FN:79,_ZN5neml210TensorBaseINS_4SSR4EE8linspaceERKS1_S4_lll
FN:79,_ZN5neml210TensorBaseINS_2R8EE8linspaceERKS1_S4_lll
FN:79,_ZN5neml210TensorBaseINS_2R4EE8linspaceERKS1_S4_lll
FN:79,_ZN5neml210TensorBaseINS_2R3EE8linspaceERKS1_S4_lll
FN:79,_ZN5neml210TensorBaseINS_2R5EE8linspaceERKS1_S4_lll
FN:79,_ZN5neml210TensorBaseINS_4SFR3EE8linspaceERKS1_S4_lll
FN:79,_ZN5neml210TensorBaseINS_11MillerIndexEE8linspaceERKS1_S4_lll
FN:79,_ZN5neml210TensorBaseINS_6ScalarEE8linspaceERKS1_S4_lll
FN:79,_ZN5neml210TensorBaseINS_3SR2EE8linspaceERKS1_S4_lll
FN:79,_ZN5neml210TensorBaseINS_3WR2EE8linspaceERKS1_S4_lll
FN:79,_ZN5neml210TensorBaseINS_6TensorEE8linspaceERKS1_S4_lll
FN:79,_ZN5neml210TensorBaseINS_3VecEE8linspaceERKS1_S4_lll
FN:79,_ZN5neml210TensorBaseINS_3RotEE8linspaceERKS1_S4_lll
FN:105,_ZN5neml210TensorBaseINS_3SR2EE8logspaceERKS1_S4_llld
FN:105,_ZN5neml210TensorBaseINS_2R8EE8logspaceERKS1_S4_llld
FN:105,_ZN5neml210TensorBaseINS_6SSSSR8EE8logspaceERKS1_S4_llld
FN:105,_ZN5neml210TensorBaseINS_3WR2EE8logspaceERKS1_S4_llld
FN:105,_ZN5neml210TensorBaseINS_4SFR3EE8logspaceERKS1_S4_llld
FN:105,_ZN5neml210TensorBaseINS_6ScalarEE8logspaceERKS1_S4_llld
FN:105,_ZN5neml210TensorBaseINS_5SFFR4EE8logspaceERKS1_S4_llld
FN:105,_ZN5neml210TensorBaseINS_4SSR4EE8logspaceERKS1_S4_llld
FN:105,_ZN5neml210TensorBaseINS_3VecEE8logspaceERKS1_S4_llld
FN:105,_ZN5neml210TensorBaseINS_10QuaternionEE8logspaceERKS1_S4_llld
FN:105,_ZN5neml210TensorBaseINS_4SWR4EE8logspaceERKS1_S4_llld
FN:105,_ZN5neml210TensorBaseINS_2R5EE8logspaceERKS1_S4_llld
FN:105,_ZN5neml210TensorBaseINS_11MillerIndexEE8logspaceERKS1_S4_llld
FN:105,_ZN5neml210TensorBaseINS_3RotEE8logspaceERKS1_S4_llld
FN:105,_ZN5neml210TensorBaseINS_4WSR4EE8logspaceERKS1_S4_llld
FN:105,_ZN5neml210TensorBaseINS_2R4EE8logspaceERKS1_S4_llld
FN:105,_ZN5neml210TensorBaseINS_2R3EE8logspaceERKS1_S4_llld
FN:105,_ZN5neml210TensorBaseINS_6TensorEE8logspaceERKS1_S4_llld
FN:105,_ZN5neml210TensorBaseINS_5SSFR5EE8logspaceERKS1_S4_llld
FN:105,_ZN5neml210TensorBaseINS_4WWR4EE8logspaceERKS1_S4_llld
FN:105,_ZN5neml210TensorBaseINS_2R2EE8logspaceERKS1_S4_llld
FN:114,_ZNK5neml210TensorBaseINS_6TensorEE5cloneEN3c1012MemoryFormatE
FN:114,_ZNK5neml210TensorBaseINS_3SR2EE5cloneEN3c1012MemoryFormatE
FN:114,_ZNK5neml210TensorBaseINS_11MillerIndexEE5cloneEN3c1012MemoryFormatE
FN:114,_ZNK5neml210TensorBaseINS_2R2EE5cloneEN3c1012MemoryFormatE
FN:114,_ZNK5neml210TensorBaseINS_2R8EE5cloneEN3c1012MemoryFormatE
FN:114,_ZNK5neml210TensorBaseINS_5SSFR5EE5cloneEN3c1012MemoryFormatE
FN:114,_ZNK5neml210TensorBaseINS_2R3EE5cloneEN3c1012MemoryFormatE
FN:114,_ZNK5neml210TensorBaseINS_3RotEE5cloneEN3c1012MemoryFormatE
FN:114,_ZNK5neml210TensorBaseINS_4SSR4EE5cloneEN3c1012MemoryFormatE
FN:114,_ZNK5neml210TensorBaseINS_4SFR3EE5cloneEN3c1012MemoryFormatE
FN:114,_ZNK5neml210TensorBaseINS_10QuaternionEE5cloneEN3c1012MemoryFormatE
FN:114,_ZNK5neml210TensorBaseINS_6SSSSR8EE5cloneEN3c1012MemoryFormatE
FN:114,_ZNK5neml210TensorBaseINS_3WR2EE5cloneEN3c1012MemoryFormatE
FN:114,_ZNK5neml210TensorBaseINS_4SWR4EE5cloneEN3c1012MemoryFormatE
FN:114,_ZNK5neml210TensorBaseINS_3VecEE5cloneEN3c1012MemoryFormatE
FN:114,_ZNK5neml210TensorBaseINS_2R4EE5cloneEN3c1012MemoryFormatE
FN:114,_ZNK5neml210TensorBaseINS_2R5EE5cloneEN3c1012MemoryFormatE
FN:114,_ZNK5neml210TensorBaseINS_5SFFR4EE5cloneEN3c1012MemoryFormatE
FN:114,_ZNK5neml210TensorBaseINS_6ScalarEE5cloneEN3c1012MemoryFormatE
FN:114,_ZNK5neml210TensorBaseINS_4WSR4EE5cloneEN3c1012MemoryFormatE
FN:114,_ZNK5neml210TensorBaseINS_4WWR4EE5cloneEN3c1012MemoryFormatE
FN:121,_ZNK5neml210TensorBaseINS_3RotEE6detachEv
FN:121,_ZNK5neml210TensorBaseINS_3WR2EE6detachEv
FN:121,_ZNK5neml210TensorBaseINS_2R5EE6detachEv
FN:121,_ZNK5neml210TensorBaseINS_4WSR4EE6detachEv
FN:121,_ZNK5neml210TensorBaseINS_2R8EE6detachEv
FN:121,_ZNK5neml210TensorBaseINS_6SSSSR8EE6detachEv
FN:121,_ZNK5neml210TensorBaseINS_5SFFR4EE6detachEv
FN:121,_ZNK5neml210TensorBaseINS_5SSFR5EE6detachEv
FN:121,_ZNK5neml210TensorBaseINS_10QuaternionEE6detachEv
FN:121,_ZNK5neml210TensorBaseINS_2R4EE6detachEv
FN:121,_ZNK5neml210TensorBaseINS_4SFR3EE6detachEv
FN:121,_ZNK5neml210TensorBaseINS_6ScalarEE6detachEv
FN:121,_ZNK5neml210TensorBaseINS_2R2EE6detachEv
FN:121,_ZNK5neml210TensorBaseINS_2R3EE6detachEv
FN:121,_ZNK5neml210TensorBaseINS_4SSR4EE6detachEv
FN:121,_ZNK5neml210TensorBaseINS_4WWR4EE6detachEv
FN:121,_ZNK5neml210TensorBaseINS_6TensorEE6detachEv
FN:121,_ZNK5neml210TensorBaseINS_4SWR4EE6detachEv
FN:121,_ZNK5neml210TensorBaseINS_11MillerIndexEE6detachEv
FN:121,_ZNK5neml210TensorBaseINS_3SR2EE6detachEv
FN:121,_ZNK5neml210TensorBaseINS_3VecEE6detachEv
FN:128,_ZNK5neml210TensorBaseINS_2R5EE2toERKN3c1013TensorOptionsE
FN:128,_ZNK5neml210TensorBaseINS_4WWR4EE2toERKN3c1013TensorOptionsE
FN:128,_ZNK5neml210TensorBaseINS_4SFR3EE2toERKN3c1013TensorOptionsE
FN:128,_ZNK5neml210TensorBaseINS_2R8EE2toERKN3c1013TensorOptionsE
FN:128,_ZNK5neml210TensorBaseINS_10QuaternionEE2toERKN3c1013TensorOptionsE
FN:128,_ZNK5neml210TensorBaseINS_4WSR4EE2toERKN3c1013TensorOptionsE
FN:128,_ZNK5neml210TensorBaseINS_2R3EE2toERKN3c1013TensorOptionsE
FN:128,_ZNK5neml210TensorBaseINS_5SSFR5EE2toERKN3c1013TensorOptionsE
FN:128,_ZNK5neml210TensorBaseINS_6ScalarEE2toERKN3c1013TensorOptionsE
FN:128,_ZNK5neml210TensorBaseINS_4SWR4EE2toERKN3c1013TensorOptionsE
FN:128,_ZNK5neml210TensorBaseINS_6SSSSR8EE2toERKN3c1013TensorOptionsE
FN:128,_ZNK5neml210TensorBaseINS_3WR2EE2toERKN3c1013TensorOptionsE
FN:128,_ZNK5neml210TensorBaseINS_5SFFR4EE2toERKN3c1013TensorOptionsE
FN:128,_ZNK5neml210TensorBaseINS_2R2EE2toERKN3c1013TensorOptionsE
FN:128,_ZNK5neml210TensorBaseINS_2R4EE2toERKN3c1013TensorOptionsE
FN:128,_ZNK5neml210TensorBaseINS_4SSR4EE2toERKN3c1013TensorOptionsE
FN:128,_ZNK5neml210TensorBaseINS_3SR2EE2toERKN3c1013TensorOptionsE
FN:128,_ZNK5neml210TensorBaseINS_6TensorEE2toERKN3c1013TensorOptionsE
FN:128,_ZNK5neml210TensorBaseINS_3RotEE2toERKN3c1013TensorOptionsE
FN:128,_ZNK5neml210TensorBaseINS_3VecEE2toERKN3c1013TensorOptionsE
FN:128,_ZNK5neml210TensorBaseINS_11MillerIndexEE2toERKN3c1013TensorOptionsE
FN:135,_ZNK5neml210TensorBaseINS_4SFR3EE7batchedEv
FN:135,_ZNK5neml210TensorBaseINS_2R8EE7batchedEv
FN:135,_ZNK5neml210TensorBaseINS_10QuaternionEE7batchedEv
FN:135,_ZNK5neml210TensorBaseINS_3SR2EE7batchedEv
FN:135,_ZNK5neml210TensorBaseINS_4SWR4EE7batchedEv
FN:135,_ZNK5neml210TensorBaseINS_2R4EE7batchedEv
FN:135,_ZNK5neml210TensorBaseINS_3RotEE7batchedEv
FN:135,_ZNK5neml210TensorBaseINS_5SFFR4EE7batchedEv
FN:135,_ZNK5neml210TensorBaseINS_4SSR4EE7batchedEv
FN:135,_ZNK5neml210TensorBaseINS_4WSR4EE7batchedEv
FN:135,_ZNK5neml210TensorBaseINS_6ScalarEE7batchedEv
FN:135,_ZNK5neml210TensorBaseINS_6SSSSR8EE7batchedEv
FN:135,_ZNK5neml210TensorBaseINS_3VecEE7batchedEv
FN:135,_ZNK5neml210TensorBaseINS_2R3EE7batchedEv
FN:135,_ZNK5neml210TensorBaseINS_2R5EE7batchedEv
FN:135,_ZNK5neml210TensorBaseINS_4WWR4EE7batchedEv
FN:135,_ZNK5neml210TensorBaseINS_5SSFR5EE7batchedEv
FN:135,_ZNK5neml210TensorBaseINS_2R2EE7batchedEv
FN:135,_ZNK5neml210TensorBaseINS_6TensorEE7batchedEv
FN:135,_ZNK5neml210TensorBaseINS_3WR2EE7batchedEv
FN:135,_ZNK5neml210TensorBaseINS_11MillerIndexEE7batchedEv
FN:142,_ZNK5neml210TensorBaseINS_2R2EE9batch_dimEv
FN:142,_ZNK5neml210TensorBaseINS_5SSFR5EE9batch_dimEv
FN:142,_ZNK5neml210TensorBaseINS_2R3EE9batch_dimEv
FN:142,_ZNK5neml210TensorBaseINS_4SFR3EE9batch_dimEv
FN:142,_ZNK5neml210TensorBaseINS_6TensorEE9batch_dimEv
FN:142,_ZNK5neml210TensorBaseINS_3VecEE9batch_dimEv
FN:142,_ZNK5neml210TensorBaseINS_4WWR4EE9batch_dimEv
FN:142,_ZNK5neml210TensorBaseINS_2R8EE9batch_dimEv
FN:142,_ZNK5neml210TensorBaseINS_11MillerIndexEE9batch_dimEv
FN:142,_ZNK5neml210TensorBaseINS_3RotEE9batch_dimEv
FN:142,_ZNK5neml210TensorBaseINS_10QuaternionEE9batch_dimEv
FN:142,_ZNK5neml210TensorBaseINS_2R5EE9batch_dimEv
FN:142,_ZNK5neml210TensorBaseINS_6ScalarEE9batch_dimEv
FN:142,_ZNK5neml210TensorBaseINS_3WR2EE9batch_dimEv
FN:142,_ZNK5neml210TensorBaseINS_4SWR4EE9batch_dimEv
FN:142,_ZNK5neml210TensorBaseINS_4SSR4EE9batch_dimEv
FN:142,_ZNK5neml210TensorBaseINS_2R4EE9batch_dimEv
FN:142,_ZNK5neml210TensorBaseINS_6SSSSR8EE9batch_dimEv
FN:142,_ZNK5neml210TensorBaseINS_5SFFR4EE9batch_dimEv
FN:142,_ZNK5neml210TensorBaseINS_4WSR4EE9batch_dimEv
FN:142,_ZNK5neml210TensorBaseINS_3SR2EE9batch_dimEv
FN:149,_ZNK5neml210TensorBaseINS_3SR2EE8base_dimEv
FN:149,_ZNK5neml210TensorBaseINS_11MillerIndexEE8base_dimEv
FN:149,_ZNK5neml210TensorBaseINS_3RotEE8base_dimEv
FN:149,_ZNK5neml210TensorBaseINS_4WWR4EE8base_dimEv
FN:149,_ZNK5neml210TensorBaseINS_2R4EE8base_dimEv
FN:149,_ZNK5neml210TensorBaseINS_3WR2EE8base_dimEv
FN:149,_ZNK5neml210TensorBaseINS_6TensorEE8base_dimEv
FN:149,_ZNK5neml210TensorBaseINS_2R5EE8base_dimEv
FN:149,_ZNK5neml210TensorBaseINS_6ScalarEE8base_dimEv
FN:149,_ZNK5neml210TensorBaseINS_5SSFR5EE8base_dimEv
FN:149,_ZNK5neml210TensorBaseINS_4SSR4EE8base_dimEv
FN:149,_ZNK5neml210TensorBaseINS_4WSR4EE8base_dimEv
FN:149,_ZNK5neml210TensorBaseINS_10QuaternionEE8base_dimEv
FN:149,_ZNK5neml210TensorBaseINS_5SFFR4EE8base_dimEv
FN:149,_ZNK5neml210TensorBaseINS_6SSSSR8EE8base_dimEv
FN:149,_ZNK5neml210TensorBaseINS_2R8EE8base_dimEv
FN:149,_ZNK5neml210TensorBaseINS_2R3EE8base_dimEv
FN:149,_ZNK5neml210TensorBaseINS_4SFR3EE8base_dimEv
FN:149,_ZNK5neml210TensorBaseINS_4SWR4EE8base_dimEv
FN:149,_ZNK5neml210TensorBaseINS_2R2EE8base_dimEv
FN:149,_ZNK5neml210TensorBaseINS_3VecEE8base_dimEv
FN:156,_ZNK5neml210TensorBaseINS_2R5EE11batch_sizesEv
FN:156,_ZNK5neml210TensorBaseINS_4WWR4EE11batch_sizesEv
FN:156,_ZNK5neml210TensorBaseINS_10QuaternionEE11batch_sizesEv
FN:156,_ZNK5neml210TensorBaseINS_6SSSSR8EE11batch_sizesEv
FN:156,_ZNK5neml210TensorBaseINS_3SR2EE11batch_sizesEv
FN:156,_ZNK5neml210TensorBaseINS_3RotEE11batch_sizesEv
FN:156,_ZNK5neml210TensorBaseINS_6TensorEE11batch_sizesEv
FN:156,_ZNK5neml210TensorBaseINS_3WR2EE11batch_sizesEv
FN:156,_ZNK5neml210TensorBaseINS_2R2EE11batch_sizesEv
FN:156,_ZNK5neml210TensorBaseINS_5SSFR5EE11batch_sizesEv
FN:156,_ZNK5neml210TensorBaseINS_4SWR4EE11batch_sizesEv
FN:156,_ZNK5neml210TensorBaseINS_11MillerIndexEE11batch_sizesEv
FN:156,_ZNK5neml210TensorBaseINS_6ScalarEE11batch_sizesEv
FN:156,_ZNK5neml210TensorBaseINS_2R3EE11batch_sizesEv
FN:156,_ZNK5neml210TensorBaseINS_4WSR4EE11batch_sizesEv
FN:156,_ZNK5neml210TensorBaseINS_2R4EE11batch_sizesEv
FN:156,_ZNK5neml210TensorBaseINS_2R8EE11batch_sizesEv
FN:156,_ZNK5neml210TensorBaseINS_4SFR3EE11batch_sizesEv
FN:156,_ZNK5neml210TensorBaseINS_4SSR4EE11batch_sizesEv
FN:156,_ZNK5neml210TensorBaseINS_5SFFR4EE11batch_sizesEv
FN:156,_ZNK5neml210TensorBaseINS_3VecEE11batch_sizesEv
FN:163,_ZNK5neml210TensorBaseINS_2R2EE10batch_sizeEl
FN:163,_ZNK5neml210TensorBaseINS_3VecEE10batch_sizeEl
FN:163,_ZNK5neml210TensorBaseINS_2R8EE10batch_sizeEl
FN:163,_ZNK5neml210TensorBaseINS_6TensorEE10batch_sizeEl
FN:163,_ZNK5neml210TensorBaseINS_6ScalarEE10batch_sizeEl
FN:163,_ZNK5neml210TensorBaseINS_4SSR4EE10batch_sizeEl
FN:163,_ZNK5neml210TensorBaseINS_5SFFR4EE10batch_sizeEl
FN:163,_ZNK5neml210TensorBaseINS_2R4EE10batch_sizeEl
FN:163,_ZNK5neml210TensorBaseINS_6SSSSR8EE10batch_sizeEl
FN:163,_ZNK5neml210TensorBaseINS_3SR2EE10batch_sizeEl
FN:163,_ZNK5neml210TensorBaseINS_4WSR4EE10batch_sizeEl
FN:163,_ZNK5neml210TensorBaseINS_2R5EE10batch_sizeEl
FN:163,_ZNK5neml210TensorBaseINS_11MillerIndexEE10batch_sizeEl
FN:163,_ZNK5neml210TensorBaseINS_4SWR4EE10batch_sizeEl
FN:163,_ZNK5neml210TensorBaseINS_2R3EE10batch_sizeEl
FN:163,_ZNK5neml210TensorBaseINS_3WR2EE10batch_sizeEl
FN:163,_ZNK5neml210TensorBaseINS_10QuaternionEE10batch_sizeEl
FN:163,_ZNK5neml210TensorBaseINS_4WWR4EE10batch_sizeEl
FN:163,_ZNK5neml210TensorBaseINS_5SSFR5EE10batch_sizeEl
FN:163,_ZNK5neml210TensorBaseINS_3RotEE10batch_sizeEl
FN:163,_ZNK5neml210TensorBaseINS_4SFR3EE10batch_sizeEl
FN:170,_ZNK5neml210TensorBaseINS_2R3EE10base_sizesEv
FN:170,_ZNK5neml210TensorBaseINS_6TensorEE10base_sizesEv
FN:170,_ZNK5neml210TensorBaseINS_5SSFR5EE10base_sizesEv
FN:170,_ZNK5neml210TensorBaseINS_4WSR4EE10base_sizesEv
FN:170,_ZNK5neml210TensorBaseINS_4SWR4EE10base_sizesEv
FN:170,_ZNK5neml210TensorBaseINS_11MillerIndexEE10base_sizesEv
FN:170,_ZNK5neml210TensorBaseINS_2R5EE10base_sizesEv
FN:170,_ZNK5neml210TensorBaseINS_4SSR4EE10base_sizesEv
FN:170,_ZNK5neml210TensorBaseINS_3SR2EE10base_sizesEv
FN:170,_ZNK5neml210TensorBaseINS_2R8EE10base_sizesEv
FN:170,_ZNK5neml210TensorBaseINS_5SFFR4EE10base_sizesEv
FN:170,_ZNK5neml210TensorBaseINS_6SSSSR8EE10base_sizesEv
FN:170,_ZNK5neml210TensorBaseINS_2R4EE10base_sizesEv
FN:170,_ZNK5neml210TensorBaseINS_3WR2EE10base_sizesEv
FN:170,_ZNK5neml210TensorBaseINS_4SFR3EE10base_sizesEv
FN:170,_ZNK5neml210TensorBaseINS_10QuaternionEE10base_sizesEv
FN:170,_ZNK5neml210TensorBaseINS_3VecEE10base_sizesEv
FN:170,_ZNK5neml210TensorBaseINS_6ScalarEE10base_sizesEv
FN:170,_ZNK5neml210TensorBaseINS_2R2EE10base_sizesEv
FN:170,_ZNK5neml210TensorBaseINS_3RotEE10base_sizesEv
FN:170,_ZNK5neml210TensorBaseINS_4WWR4EE10base_sizesEv
FN:177,_ZNK5neml210TensorBaseINS_11MillerIndexEE9base_sizeEl
FN:177,_ZNK5neml210TensorBaseINS_10QuaternionEE9base_sizeEl
FN:177,_ZNK5neml210TensorBaseINS_2R4EE9base_sizeEl
FN:177,_ZNK5neml210TensorBaseINS_6TensorEE9base_sizeEl
FN:177,_ZNK5neml210TensorBaseINS_5SFFR4EE9base_sizeEl
FN:177,_ZNK5neml210TensorBaseINS_2R3EE9base_sizeEl
FN:177,_ZNK5neml210TensorBaseINS_3SR2EE9base_sizeEl
FN:177,_ZNK5neml210TensorBaseINS_2R5EE9base_sizeEl
FN:177,_ZNK5neml210TensorBaseINS_2R2EE9base_sizeEl
FN:177,_ZNK5neml210TensorBaseINS_3WR2EE9base_sizeEl
FN:177,_ZNK5neml210TensorBaseINS_4WSR4EE9base_sizeEl
FN:177,_ZNK5neml210TensorBaseINS_4WWR4EE9base_sizeEl
FN:177,_ZNK5neml210TensorBaseINS_4SSR4EE9base_sizeEl
FN:177,_ZNK5neml210TensorBaseINS_4SFR3EE9base_sizeEl
FN:177,_ZNK5neml210TensorBaseINS_5SSFR5EE9base_sizeEl
FN:177,_ZNK5neml210TensorBaseINS_4SWR4EE9base_sizeEl
FN:177,_ZNK5neml210TensorBaseINS_6ScalarEE9base_sizeEl
FN:177,_ZNK5neml210TensorBaseINS_3RotEE9base_sizeEl
FN:177,_ZNK5neml210TensorBaseINS_3VecEE9base_sizeEl
FN:177,_ZNK5neml210TensorBaseINS_6SSSSR8EE9base_sizeEl
FN:177,_ZNK5neml210TensorBaseINS_2R8EE9base_sizeEl
FN:184,_ZNK5neml210TensorBaseINS_6SSSSR8EE12base_storageEv
FN:184,_ZNK5neml210TensorBaseINS_2R3EE12base_storageEv
FN:184,_ZNK5neml210TensorBaseINS_2R4EE12base_storageEv
FN:184,_ZNK5neml210TensorBaseINS_4SWR4EE12base_storageEv
FN:184,_ZNK5neml210TensorBaseINS_2R5EE12base_storageEv
FN:184,_ZNK5neml210TensorBaseINS_6TensorEE12base_storageEv
FN:184,_ZNK5neml210TensorBaseINS_6ScalarEE12base_storageEv
FN:184,_ZNK5neml210TensorBaseINS_5SFFR4EE12base_storageEv
FN:184,_ZNK5neml210TensorBaseINS_5SSFR5EE12base_storageEv
FN:184,_ZNK5neml210TensorBaseINS_3VecEE12base_storageEv
FN:184,_ZNK5neml210TensorBaseINS_3WR2EE12base_storageEv
FN:184,_ZNK5neml210TensorBaseINS_11MillerIndexEE12base_storageEv
FN:184,_ZNK5neml210TensorBaseINS_2R8EE12base_storageEv
FN:184,_ZNK5neml210TensorBaseINS_4WSR4EE12base_storageEv
FN:184,_ZNK5neml210TensorBaseINS_4SFR3EE12base_storageEv
FN:184,_ZNK5neml210TensorBaseINS_3RotEE12base_storageEv
FN:184,_ZNK5neml210TensorBaseINS_3SR2EE12base_storageEv
FN:184,_ZNK5neml210TensorBaseINS_10QuaternionEE12base_storageEv
FN:184,_ZNK5neml210TensorBaseINS_2R2EE12base_storageEv
FN:184,_ZNK5neml210TensorBaseINS_4SSR4EE12base_storageEv
FN:184,_ZNK5neml210TensorBaseINS_4WWR4EE12base_storageEv
FN:191,_ZNK5neml210TensorBaseINS_4WSR4EE11batch_indexEN3c108ArrayRefIN2at8indexing11TensorIndexEEE
FN:191,_ZNK5neml210TensorBaseINS_6ScalarEE11batch_indexEN3c108ArrayRefIN2at8indexing11TensorIndexEEE
FN:191,_ZNK5neml210TensorBaseINS_4WWR4EE11batch_indexEN3c108ArrayRefIN2at8indexing11TensorIndexEEE
FN:191,_ZNK5neml210TensorBaseINS_3RotEE11batch_indexEN3c108ArrayRefIN2at8indexing11TensorIndexEEE
FN:191,_ZNK5neml210TensorBaseINS_4SSR4EE11batch_indexEN3c108ArrayRefIN2at8indexing11TensorIndexEEE
FN:191,_ZNK5neml210TensorBaseINS_6SSSSR8EE11batch_indexEN3c108ArrayRefIN2at8indexing11TensorIndexEEE
FN:191,_ZNK5neml210TensorBaseINS_3VecEE11batch_indexEN3c108ArrayRefIN2at8indexing11TensorIndexEEE
FN:191,_ZNK5neml210TensorBaseINS_2R5EE11batch_indexEN3c108ArrayRefIN2at8indexing11TensorIndexEEE
FN:191,_ZNK5neml210TensorBaseINS_4SFR3EE11batch_indexEN3c108ArrayRefIN2at8indexing11TensorIndexEEE
FN:191,_ZNK5neml210TensorBaseINS_10QuaternionEE11batch_indexEN3c108ArrayRefIN2at8indexing11TensorIndexEEE
FN:191,_ZNK5neml210TensorBaseINS_2R2EE11batch_indexEN3c108ArrayRefIN2at8indexing11TensorIndexEEE
FN:191,_ZNK5neml210TensorBaseINS_2R3EE11batch_indexEN3c108ArrayRefIN2at8indexing11TensorIndexEEE
FN:191,_ZNK5neml210TensorBaseINS_3SR2EE11batch_indexEN3c108ArrayRefIN2at8indexing11TensorIndexEEE
FN:191,_ZNK5neml210TensorBaseINS_5SSFR5EE11batch_indexEN3c108ArrayRefIN2at8indexing11TensorIndexEEE
FN:191,_ZNK5neml210TensorBaseINS_2R8EE11batch_indexEN3c108ArrayRefIN2at8indexing11TensorIndexEEE
FN:191,_ZNK5neml210TensorBaseINS_3WR2EE11batch_indexEN3c108ArrayRefIN2at8indexing11TensorIndexEEE
FN:191,_ZNK5neml210TensorBaseINS_11MillerIndexEE11batch_indexEN3c108ArrayRefIN2at8indexing11TensorIndexEEE
FN:191,_ZNK5neml210TensorBaseINS_2R4EE11batch_indexEN3c108ArrayRefIN2at8indexing11TensorIndexEEE
FN:191,_ZNK5neml210TensorBaseINS_6TensorEE11batch_indexEN3c108ArrayRefIN2at8indexing11TensorIndexEEE
FN:191,_ZNK5neml210TensorBaseINS_5SFFR4EE11batch_indexEN3c108ArrayRefIN2at8indexing11TensorIndexEEE
FN:191,_ZNK5neml210TensorBaseINS_4SWR4EE11batch_indexEN3c108ArrayRefIN2at8indexing11TensorIndexEEE
FN:201,_ZNK5neml210TensorBaseINS_10QuaternionEE10base_indexEN3c108ArrayRefIN2at8indexing11TensorIndexEEE
FN:201,_ZNK5neml210TensorBaseINS_3WR2EE10base_indexEN3c108ArrayRefIN2at8indexing11TensorIndexEEE
FN:201,_ZNK5neml210TensorBaseINS_2R8EE10base_indexEN3c108ArrayRefIN2at8indexing11TensorIndexEEE
FN:201,_ZNK5neml210TensorBaseINS_4WSR4EE10base_indexEN3c108ArrayRefIN2at8indexing11TensorIndexEEE
FN:201,_ZNK5neml210TensorBaseINS_3SR2EE10base_indexEN3c108ArrayRefIN2at8indexing11TensorIndexEEE
FN:201,_ZNK5neml210TensorBaseINS_5SFFR4EE10base_indexEN3c108ArrayRefIN2at8indexing11TensorIndexEEE
FN:201,_ZNK5neml210TensorBaseINS_4SWR4EE10base_indexEN3c108ArrayRefIN2at8indexing11TensorIndexEEE
FN:201,_ZNK5neml210TensorBaseINS_4WWR4EE10base_indexEN3c108ArrayRefIN2at8indexing11TensorIndexEEE
FN:201,_ZNK5neml210TensorBaseINS_2R5EE10base_indexEN3c108ArrayRefIN2at8indexing11TensorIndexEEE
FN:201,_ZNK5neml210TensorBaseINS_4SSR4EE10base_indexEN3c108ArrayRefIN2at8indexing11TensorIndexEEE
FN:201,_ZNK5neml210TensorBaseINS_4SFR3EE10base_indexEN3c108ArrayRefIN2at8indexing11TensorIndexEEE
FN:201,_ZNK5neml210TensorBaseINS_5SSFR5EE10base_indexEN3c108ArrayRefIN2at8indexing11TensorIndexEEE
FN:201,_ZNK5neml210TensorBaseINS_6SSSSR8EE10base_indexEN3c108ArrayRefIN2at8indexing11TensorIndexEEE
FN:201,_ZNK5neml210TensorBaseINS_6ScalarEE10base_indexEN3c108ArrayRefIN2at8indexing11TensorIndexEEE
FN:201,_ZNK5neml210TensorBaseINS_2R3EE10base_indexEN3c108ArrayRefIN2at8indexing11TensorIndexEEE
FN:201,_ZNK5neml210TensorBaseINS_3RotEE10base_indexEN3c108ArrayRefIN2at8indexing11TensorIndexEEE
FN:201,_ZNK5neml210TensorBaseINS_11MillerIndexEE10base_indexEN3c108ArrayRefIN2at8indexing11TensorIndexEEE
FN:201,_ZNK5neml210TensorBaseINS_2R4EE10base_indexEN3c108ArrayRefIN2at8indexing11TensorIndexEEE
FN:201,_ZNK5neml210TensorBaseINS_6TensorEE10base_indexEN3c108ArrayRefIN2at8indexing11TensorIndexEEE
FN:201,_ZNK5neml210TensorBaseINS_3VecEE10base_indexEN3c108ArrayRefIN2at8indexing11TensorIndexEEE
FN:201,_ZNK5neml210TensorBaseINS_2R2EE10base_indexEN3c108ArrayRefIN2at8indexing11TensorIndexEEE
FN:210,_ZN5neml210TensorBaseINS_4SSR4EE16batch_index_put_EN3c108ArrayRefIN2at8indexing11TensorIndexEEERKNS5_6TensorE
FN:210,_ZN5neml210TensorBaseINS_6TensorEE16batch_index_put_EN3c108ArrayRefIN2at8indexing11TensorIndexEEERKNS5_6TensorE
FN:210,_ZN5neml210TensorBaseINS_5SSFR5EE16batch_index_put_EN3c108ArrayRefIN2at8indexing11TensorIndexEEERKNS5_6TensorE
FN:210,_ZN5neml210TensorBaseINS_11MillerIndexEE16batch_index_put_EN3c108ArrayRefIN2at8indexing11TensorIndexEEERKNS5_6TensorE
FN:210,_ZN5neml210TensorBaseINS_2R8EE16batch_index_put_EN3c108ArrayRefIN2at8indexing11TensorIndexEEERKNS5_6TensorE
FN:210,_ZN5neml210TensorBaseINS_4SWR4EE16batch_index_put_EN3c108ArrayRefIN2at8indexing11TensorIndexEEERKNS5_6TensorE
FN:210,_ZN5neml210TensorBaseINS_5SFFR4EE16batch_index_put_EN3c108ArrayRefIN2at8indexing11TensorIndexEEERKNS5_6TensorE
FN:210,_ZN5neml210TensorBaseINS_4WSR4EE16batch_index_put_EN3c108ArrayRefIN2at8indexing11TensorIndexEEERKNS5_6TensorE
FN:210,_ZN5neml210TensorBaseINS_3RotEE16batch_index_put_EN3c108ArrayRefIN2at8indexing11TensorIndexEEERKNS5_6TensorE
FN:210,_ZN5neml210TensorBaseINS_3SR2EE16batch_index_put_EN3c108ArrayRefIN2at8indexing11TensorIndexEEERKNS5_6TensorE
FN:210,_ZN5neml210TensorBaseINS_4WWR4EE16batch_index_put_EN3c108ArrayRefIN2at8indexing11TensorIndexEEERKNS5_6TensorE
FN:210,_ZN5neml210TensorBaseINS_4SFR3EE16batch_index_put_EN3c108ArrayRefIN2at8indexing11TensorIndexEEERKNS5_6TensorE
FN:210,_ZN5neml210TensorBaseINS_2R5EE16batch_index_put_EN3c108ArrayRefIN2at8indexing11TensorIndexEEERKNS5_6TensorE
FN:210,_ZN5neml210TensorBaseINS_6SSSSR8EE16batch_index_put_EN3c108ArrayRefIN2at8indexing11TensorIndexEEERKNS5_6TensorE
FN:210,_ZN5neml210TensorBaseINS_10QuaternionEE16batch_index_put_EN3c108ArrayRefIN2at8indexing11TensorIndexEEERKNS5_6TensorE
FN:210,_ZN5neml210TensorBaseINS_2R2EE16batch_index_put_EN3c108ArrayRefIN2at8indexing11TensorIndexEEERKNS5_6TensorE
FN:210,_ZN5neml210TensorBaseINS_6ScalarEE16batch_index_put_EN3c108ArrayRefIN2at8indexing11TensorIndexEEERKNS5_6TensorE
FN:210,_ZN5neml210TensorBaseINS_3WR2EE16batch_index_put_EN3c108ArrayRefIN2at8indexing11TensorIndexEEERKNS5_6TensorE
FN:210,_ZN5neml210TensorBaseINS_3VecEE16batch_index_put_EN3c108ArrayRefIN2at8indexing11TensorIndexEEERKNS5_6TensorE
FN:210,_ZN5neml210TensorBaseINS_2R3EE16batch_index_put_EN3c108ArrayRefIN2at8indexing11TensorIndexEEERKNS5_6TensorE
FN:210,_ZN5neml210TensorBaseINS_2R4EE16batch_index_put_EN3c108ArrayRefIN2at8indexing11TensorIndexEEERKNS5_6TensorE
FN:220,_ZN5neml210TensorBaseINS_2R4EE15base_index_put_EN3c108ArrayRefIN2at8indexing11TensorIndexEEERKNS5_6TensorE
FN:220,_ZN5neml210TensorBaseINS_2R2EE15base_index_put_EN3c108ArrayRefIN2at8indexing11TensorIndexEEERKNS5_6TensorE
FN:220,_ZN5neml210TensorBaseINS_4SWR4EE15base_index_put_EN3c108ArrayRefIN2at8indexing11TensorIndexEEERKNS5_6TensorE
FN:220,_ZN5neml210TensorBaseINS_6ScalarEE15base_index_put_EN3c108ArrayRefIN2at8indexing11TensorIndexEEERKNS5_6TensorE
FN:220,_ZN5neml210TensorBaseINS_3RotEE15base_index_put_EN3c108ArrayRefIN2at8indexing11TensorIndexEEERKNS5_6TensorE
FN:220,_ZN5neml210TensorBaseINS_4WSR4EE15base_index_put_EN3c108ArrayRefIN2at8indexing11TensorIndexEEERKNS5_6TensorE
FN:220,_ZN5neml210TensorBaseINS_3VecEE15base_index_put_EN3c108ArrayRefIN2at8indexing11TensorIndexEEERKNS5_6TensorE
FN:220,_ZN5neml210TensorBaseINS_4SFR3EE15base_index_put_EN3c108ArrayRefIN2at8indexing11TensorIndexEEERKNS5_6TensorE
FN:220,_ZN5neml210TensorBaseINS_6TensorEE15base_index_put_EN3c108ArrayRefIN2at8indexing11TensorIndexEEERKNS5_6TensorE
FN:220,_ZN5neml210TensorBaseINS_4WWR4EE15base_index_put_EN3c108ArrayRefIN2at8indexing11TensorIndexEEERKNS5_6TensorE
FN:220,_ZN5neml210TensorBaseINS_5SFFR4EE15base_index_put_EN3c108ArrayRefIN2at8indexing11TensorIndexEEERKNS5_6TensorE
FN:220,_ZN5neml210TensorBaseINS_2R3EE15base_index_put_EN3c108ArrayRefIN2at8indexing11TensorIndexEEERKNS5_6TensorE
FN:220,_ZN5neml210TensorBaseINS_6SSSSR8EE15base_index_put_EN3c108ArrayRefIN2at8indexing11TensorIndexEEERKNS5_6TensorE
FN:220,_ZN5neml210TensorBaseINS_10QuaternionEE15base_index_put_EN3c108ArrayRefIN2at8indexing11TensorIndexEEERKNS5_6TensorE
FN:220,_ZN5neml210TensorBaseINS_2R8EE15base_index_put_EN3c108ArrayRefIN2at8indexing11TensorIndexEEERKNS5_6TensorE
FN:220,_ZN5neml210TensorBaseINS_3WR2EE15base_index_put_EN3c108ArrayRefIN2at8indexing11TensorIndexEEERKNS5_6TensorE
FN:220,_ZN5neml210TensorBaseINS_2R5EE15base_index_put_EN3c108ArrayRefIN2at8indexing11TensorIndexEEERKNS5_6TensorE
FN:220,_ZN5neml210TensorBaseINS_11MillerIndexEE15base_index_put_EN3c108ArrayRefIN2at8indexing11TensorIndexEEERKNS5_6TensorE
FN:220,_ZN5neml210TensorBaseINS_5SSFR5EE15base_index_put_EN3c108ArrayRefIN2at8indexing11TensorIndexEEERKNS5_6TensorE
FN:220,_ZN5neml210TensorBaseINS_4SSR4EE15base_index_put_EN3c108ArrayRefIN2at8indexing11TensorIndexEEERKNS5_6TensorE
FN:220,_ZN5neml210TensorBaseINS_3SR2EE15base_index_put_EN3c108ArrayRefIN2at8indexing11TensorIndexEEERKNS5_6TensorE
FN:230,_ZNK5neml210TensorBaseINS_2R2EE12batch_expandEN3c108ArrayRefIlEE
FN:230,_ZNK5neml210TensorBaseINS_6SSSSR8EE12batch_expandEN3c108ArrayRefIlEE
FN:230,_ZNK5neml210TensorBaseINS_2R4EE12batch_expandEN3c108ArrayRefIlEE
FN:230,_ZNK5neml210TensorBaseINS_2R8EE12batch_expandEN3c108ArrayRefIlEE
FN:230,_ZNK5neml210TensorBaseINS_6TensorEE12batch_expandEN3c108ArrayRefIlEE
FN:230,_ZNK5neml210TensorBaseINS_3RotEE12batch_expandEN3c108ArrayRefIlEE
FN:230,_ZNK5neml210TensorBaseINS_4SFR3EE12batch_expandEN3c108ArrayRefIlEE
FN:230,_ZNK5neml210TensorBaseINS_4SSR4EE12batch_expandEN3c108ArrayRefIlEE
FN:230,_ZNK5neml210TensorBaseINS_6ScalarEE12batch_expandEN3c108ArrayRefIlEE
FN:230,_ZNK5neml210TensorBaseINS_5SFFR4EE12batch_expandEN3c108ArrayRefIlEE
FN:230,_ZNK5neml210TensorBaseINS_4WSR4EE12batch_expandEN3c108ArrayRefIlEE
FN:230,_ZNK5neml210TensorBaseINS_2R3EE12batch_expandEN3c108ArrayRefIlEE
FN:230,_ZNK5neml210TensorBaseINS_11MillerIndexEE12batch_expandEN3c108ArrayRefIlEE
FN:230,_ZNK5neml210TensorBaseINS_3SR2EE12batch_expandEN3c108ArrayRefIlEE
FN:230,_ZNK5neml210TensorBaseINS_2R5EE12batch_expandEN3c108ArrayRefIlEE
FN:230,_ZNK5neml210TensorBaseINS_5SSFR5EE12batch_expandEN3c108ArrayRefIlEE
FN:230,_ZNK5neml210TensorBaseINS_3WR2EE12batch_expandEN3c108ArrayRefIlEE
FN:230,_ZNK5neml210TensorBaseINS_10QuaternionEE12batch_expandEN3c108ArrayRefIlEE
FN:230,_ZNK5neml210TensorBaseINS_3VecEE12batch_expandEN3c108ArrayRefIlEE
FN:230,_ZNK5neml210TensorBaseINS_4SWR4EE12batch_expandEN3c108ArrayRefIlEE
FN:230,_ZNK5neml210TensorBaseINS_4WWR4EE12batch_expandEN3c108ArrayRefIlEE
FN:240,_ZNK5neml210TensorBaseINS_4SSR4EE11base_expandEN3c108ArrayRefIlEE
FN:240,_ZNK5neml210TensorBaseINS_11MillerIndexEE11base_expandEN3c108ArrayRefIlEE
FN:240,_ZNK5neml210TensorBaseINS_3SR2EE11base_expandEN3c108ArrayRefIlEE
FN:240,_ZNK5neml210TensorBaseINS_6ScalarEE11base_expandEN3c108ArrayRefIlEE
FN:240,_ZNK5neml210TensorBaseINS_4WWR4EE11base_expandEN3c108ArrayRefIlEE
FN:240,_ZNK5neml210TensorBaseINS_3WR2EE11base_expandEN3c108ArrayRefIlEE
FN:240,_ZNK5neml210TensorBaseINS_4SWR4EE11base_expandEN3c108ArrayRefIlEE
FN:240,_ZNK5neml210TensorBaseINS_6TensorEE11base_expandEN3c108ArrayRefIlEE
FN:240,_ZNK5neml210TensorBaseINS_2R5EE11base_expandEN3c108ArrayRefIlEE
FN:240,_ZNK5neml210TensorBaseINS_3RotEE11base_expandEN3c108ArrayRefIlEE
FN:240,_ZNK5neml210TensorBaseINS_3VecEE11base_expandEN3c108ArrayRefIlEE
FN:240,_ZNK5neml210TensorBaseINS_5SSFR5EE11base_expandEN3c108ArrayRefIlEE
FN:240,_ZNK5neml210TensorBaseINS_2R8EE11base_expandEN3c108ArrayRefIlEE
FN:240,_ZNK5neml210TensorBaseINS_6SSSSR8EE11base_expandEN3c108ArrayRefIlEE
FN:240,_ZNK5neml210TensorBaseINS_2R3EE11base_expandEN3c108ArrayRefIlEE
FN:240,_ZNK5neml210TensorBaseINS_2R2EE11base_expandEN3c108ArrayRefIlEE
FN:240,_ZNK5neml210TensorBaseINS_4SFR3EE11base_expandEN3c108ArrayRefIlEE
FN:240,_ZNK5neml210TensorBaseINS_5SFFR4EE11base_expandEN3c108ArrayRefIlEE
FN:240,_ZNK5neml210TensorBaseINS_2R4EE11base_expandEN3c108ArrayRefIlEE
FN:240,_ZNK5neml210TensorBaseINS_10QuaternionEE11base_expandEN3c108ArrayRefIlEE
FN:240,_ZNK5neml210TensorBaseINS_4WSR4EE11base_expandEN3c108ArrayRefIlEE
FN:250,_ZNK5neml210TensorBaseINS_3SR2EE17batch_expand_copyEN3c108ArrayRefIlEE
FN:250,_ZNK5neml210TensorBaseINS_6TensorEE17batch_expand_copyEN3c108ArrayRefIlEE
FN:250,_ZNK5neml210TensorBaseINS_5SSFR5EE17batch_expand_copyEN3c108ArrayRefIlEE
FN:250,_ZNK5neml210TensorBaseINS_2R4EE17batch_expand_copyEN3c108ArrayRefIlEE
FN:250,_ZNK5neml210TensorBaseINS_4SFR3EE17batch_expand_copyEN3c108ArrayRefIlEE
FN:250,_ZNK5neml210TensorBaseINS_4WSR4EE17batch_expand_copyEN3c108ArrayRefIlEE
FN:250,_ZNK5neml210TensorBaseINS_3VecEE17batch_expand_copyEN3c108ArrayRefIlEE
FN:250,_ZNK5neml210TensorBaseINS_2R8EE17batch_expand_copyEN3c108ArrayRefIlEE
FN:250,_ZNK5neml210TensorBaseINS_4SWR4EE17batch_expand_copyEN3c108ArrayRefIlEE
FN:250,_ZNK5neml210TensorBaseINS_2R5EE17batch_expand_copyEN3c108ArrayRefIlEE
FN:250,_ZNK5neml210TensorBaseINS_11MillerIndexEE17batch_expand_copyEN3c108ArrayRefIlEE
FN:250,_ZNK5neml210TensorBaseINS_3WR2EE17batch_expand_copyEN3c108ArrayRefIlEE
FN:250,_ZNK5neml210TensorBaseINS_5SFFR4EE17batch_expand_copyEN3c108ArrayRefIlEE
FN:250,_ZNK5neml210TensorBaseINS_10QuaternionEE17batch_expand_copyEN3c108ArrayRefIlEE
FN:250,_ZNK5neml210TensorBaseINS_4SSR4EE17batch_expand_copyEN3c108ArrayRefIlEE
FN:250,_ZNK5neml210TensorBaseINS_6ScalarEE17batch_expand_copyEN3c108ArrayRefIlEE
FN:250,_ZNK5neml210TensorBaseINS_2R2EE17batch_expand_copyEN3c108ArrayRefIlEE
FN:250,_ZNK5neml210TensorBaseINS_6SSSSR8EE17batch_expand_copyEN3c108ArrayRefIlEE
FN:250,_ZNK5neml210TensorBaseINS_2R3EE17batch_expand_copyEN3c108ArrayRefIlEE
FN:250,_ZNK5neml210TensorBaseINS_4WWR4EE17batch_expand_copyEN3c108ArrayRefIlEE
FN:250,_ZNK5neml210TensorBaseINS_3RotEE17batch_expand_copyEN3c108ArrayRefIlEE
FN:257,_ZNK5neml210TensorBaseINS_2R4EE16base_expand_copyEN3c108ArrayRefIlEE
FN:257,_ZNK5neml210TensorBaseINS_2R8EE16base_expand_copyEN3c108ArrayRefIlEE
FN:257,_ZNK5neml210TensorBaseINS_2R5EE16base_expand_copyEN3c108ArrayRefIlEE
FN:257,_ZNK5neml210TensorBaseINS_4WSR4EE16base_expand_copyEN3c108ArrayRefIlEE
FN:257,_ZNK5neml210TensorBaseINS_3SR2EE16base_expand_copyEN3c108ArrayRefIlEE
FN:257,_ZNK5neml210TensorBaseINS_6SSSSR8EE16base_expand_copyEN3c108ArrayRefIlEE
FN:257,_ZNK5neml210TensorBaseINS_3RotEE16base_expand_copyEN3c108ArrayRefIlEE
FN:257,_ZNK5neml210TensorBaseINS_6TensorEE16base_expand_copyEN3c108ArrayRefIlEE
FN:257,_ZNK5neml210TensorBaseINS_3VecEE16base_expand_copyEN3c108ArrayRefIlEE
FN:257,_ZNK5neml210TensorBaseINS_2R3EE16base_expand_copyEN3c108ArrayRefIlEE
FN:257,_ZNK5neml210TensorBaseINS_4WWR4EE16base_expand_copyEN3c108ArrayRefIlEE
FN:257,_ZNK5neml210TensorBaseINS_4SSR4EE16base_expand_copyEN3c108ArrayRefIlEE
FN:257,_ZNK5neml210TensorBaseINS_2R2EE16base_expand_copyEN3c108ArrayRefIlEE
FN:257,_ZNK5neml210TensorBaseINS_4SFR3EE16base_expand_copyEN3c108ArrayRefIlEE
FN:257,_ZNK5neml210TensorBaseINS_10QuaternionEE16base_expand_copyEN3c108ArrayRefIlEE
FN:257,_ZNK5neml210TensorBaseINS_5SSFR5EE16base_expand_copyEN3c108ArrayRefIlEE
FN:257,_ZNK5neml210TensorBaseINS_5SFFR4EE16base_expand_copyEN3c108ArrayRefIlEE
FN:257,_ZNK5neml210TensorBaseINS_6ScalarEE16base_expand_copyEN3c108ArrayRefIlEE
FN:257,_ZNK5neml210TensorBaseINS_11MillerIndexEE16base_expand_copyEN3c108ArrayRefIlEE
FN:257,_ZNK5neml210TensorBaseINS_3WR2EE16base_expand_copyEN3c108ArrayRefIlEE
FN:257,_ZNK5neml210TensorBaseINS_4SWR4EE16base_expand_copyEN3c108ArrayRefIlEE
FN:264,_ZNK5neml210TensorBaseINS_2R5EE13batch_reshapeEN3c108ArrayRefIlEE
FN:264,_ZNK5neml210TensorBaseINS_10QuaternionEE13batch_reshapeEN3c108ArrayRefIlEE
FN:264,_ZNK5neml210TensorBaseINS_2R4EE13batch_reshapeEN3c108ArrayRefIlEE
FN:264,_ZNK5neml210TensorBaseINS_11MillerIndexEE13batch_reshapeEN3c108ArrayRefIlEE
FN:264,_ZNK5neml210TensorBaseINS_6ScalarEE13batch_reshapeEN3c108ArrayRefIlEE
FN:264,_ZNK5neml210TensorBaseINS_5SFFR4EE13batch_reshapeEN3c108ArrayRefIlEE
FN:264,_ZNK5neml210TensorBaseINS_4SFR3EE13batch_reshapeEN3c108ArrayRefIlEE
FN:264,_ZNK5neml210TensorBaseINS_3VecEE13batch_reshapeEN3c108ArrayRefIlEE
FN:264,_ZNK5neml210TensorBaseINS_6TensorEE13batch_reshapeEN3c108ArrayRefIlEE
FN:264,_ZNK5neml210TensorBaseINS_3SR2EE13batch_reshapeEN3c108ArrayRefIlEE
FN:264,_ZNK5neml210TensorBaseINS_3RotEE13batch_reshapeEN3c108ArrayRefIlEE
FN:264,_ZNK5neml210TensorBaseINS_4WSR4EE13batch_reshapeEN3c108ArrayRefIlEE
FN:264,_ZNK5neml210TensorBaseINS_2R3EE13batch_reshapeEN3c108ArrayRefIlEE
FN:264,_ZNK5neml210TensorBaseINS_4SSR4EE13batch_reshapeEN3c108ArrayRefIlEE
FN:264,_ZNK5neml210TensorBaseINS_4WWR4EE13batch_reshapeEN3c108ArrayRefIlEE
FN:264,_ZNK5neml210TensorBaseINS_4SWR4EE13batch_reshapeEN3c108ArrayRefIlEE
FN:264,_ZNK5neml210TensorBaseINS_6SSSSR8EE13batch_reshapeEN3c108ArrayRefIlEE
FN:264,_ZNK5neml210TensorBaseINS_3WR2EE13batch_reshapeEN3c108ArrayRefIlEE
FN:264,_ZNK5neml210TensorBaseINS_2R8EE13batch_reshapeEN3c108ArrayRefIlEE
FN:264,_ZNK5neml210TensorBaseINS_5SSFR5EE13batch_reshapeEN3c108ArrayRefIlEE
FN:264,_ZNK5neml210TensorBaseINS_2R2EE13batch_reshapeEN3c108ArrayRefIlEE
FN:271,_ZNK5neml210TensorBaseINS_5SFFR4EE12base_reshapeEN3c108ArrayRefIlEE
FN:271,_ZNK5neml210TensorBaseINS_6TensorEE12base_reshapeEN3c108ArrayRefIlEE
FN:271,_ZNK5neml210TensorBaseINS_5SSFR5EE12base_reshapeEN3c108ArrayRefIlEE
FN:271,_ZNK5neml210TensorBaseINS_3RotEE12base_reshapeEN3c108ArrayRefIlEE
FN:271,_ZNK5neml210TensorBaseINS_2R4EE12base_reshapeEN3c108ArrayRefIlEE
FN:271,_ZNK5neml210TensorBaseINS_6SSSSR8EE12base_reshapeEN3c108ArrayRefIlEE
FN:271,_ZNK5neml210TensorBaseINS_4SSR4EE12base_reshapeEN3c108ArrayRefIlEE
FN:271,_ZNK5neml210TensorBaseINS_4WWR4EE12base_reshapeEN3c108ArrayRefIlEE
FN:271,_ZNK5neml210TensorBaseINS_3SR2EE12base_reshapeEN3c108ArrayRefIlEE
FN:271,_ZNK5neml210TensorBaseINS_3WR2EE12base_reshapeEN3c108ArrayRefIlEE
FN:271,_ZNK5neml210TensorBaseINS_2R8EE12base_reshapeEN3c108ArrayRefIlEE
FN:271,_ZNK5neml210TensorBaseINS_6ScalarEE12base_reshapeEN3c108ArrayRefIlEE
FN:271,_ZNK5neml210TensorBaseINS_4SFR3EE12base_reshapeEN3c108ArrayRefIlEE
FN:271,_ZNK5neml210TensorBaseINS_3VecEE12base_reshapeEN3c108ArrayRefIlEE
FN:271,_ZNK5neml210TensorBaseINS_2R2EE12base_reshapeEN3c108ArrayRefIlEE
FN:271,_ZNK5neml210TensorBaseINS_2R5EE12base_reshapeEN3c108ArrayRefIlEE
FN:271,_ZNK5neml210TensorBaseINS_11MillerIndexEE12base_reshapeEN3c108ArrayRefIlEE
FN:271,_ZNK5neml210TensorBaseINS_2R3EE12base_reshapeEN3c108ArrayRefIlEE
FN:271,_ZNK5neml210TensorBaseINS_10QuaternionEE12base_reshapeEN3c108ArrayRefIlEE
FN:271,_ZNK5neml210TensorBaseINS_4WSR4EE12base_reshapeEN3c108ArrayRefIlEE
FN:271,_ZNK5neml210TensorBaseINS_4SWR4EE12base_reshapeEN3c108ArrayRefIlEE
FN:278,_ZNK5neml210TensorBaseINS_3SR2EE15batch_unsqueezeEl
FN:278,_ZNK5neml210TensorBaseINS_5SSFR5EE15batch_unsqueezeEl
FN:278,_ZNK5neml210TensorBaseINS_4SWR4EE15batch_unsqueezeEl
FN:278,_ZNK5neml210TensorBaseINS_4WSR4EE15batch_unsqueezeEl
FN:278,_ZNK5neml210TensorBaseINS_2R8EE15batch_unsqueezeEl
FN:278,_ZNK5neml210TensorBaseINS_4SSR4EE15batch_unsqueezeEl
FN:278,_ZNK5neml210TensorBaseINS_10QuaternionEE15batch_unsqueezeEl
FN:278,_ZNK5neml210TensorBaseINS_4WWR4EE15batch_unsqueezeEl
FN:278,_ZNK5neml210TensorBaseINS_2R2EE15batch_unsqueezeEl
FN:278,_ZNK5neml210TensorBaseINS_6TensorEE15batch_unsqueezeEl
FN:278,_ZNK5neml210TensorBaseINS_11MillerIndexEE15batch_unsqueezeEl
FN:278,_ZNK5neml210TensorBaseINS_6ScalarEE15batch_unsqueezeEl
FN:278,_ZNK5neml210TensorBaseINS_6SSSSR8EE15batch_unsqueezeEl
FN:278,_ZNK5neml210TensorBaseINS_2R5EE15batch_unsqueezeEl
FN:278,_ZNK5neml210TensorBaseINS_3RotEE15batch_unsqueezeEl
FN:278,_ZNK5neml210TensorBaseINS_2R3EE15batch_unsqueezeEl
FN:278,_ZNK5neml210TensorBaseINS_5SFFR4EE15batch_unsqueezeEl
FN:278,_ZNK5neml210TensorBaseINS_4SFR3EE15batch_unsqueezeEl
FN:278,_ZNK5neml210TensorBaseINS_3WR2EE15batch_unsqueezeEl
FN:278,_ZNK5neml210TensorBaseINS_2R4EE15batch_unsqueezeEl
FN:278,_ZNK5neml210TensorBaseINS_3VecEE15batch_unsqueezeEl
FN:286,_ZNK5neml210TensorBaseINS_3SR2EE14base_unsqueezeEl
FN:286,_ZNK5neml210TensorBaseINS_4SWR4EE14base_unsqueezeEl
FN:286,_ZNK5neml210TensorBaseINS_6SSSSR8EE14base_unsqueezeEl
FN:286,_ZNK5neml210TensorBaseINS_4SSR4EE14base_unsqueezeEl
FN:286,_ZNK5neml210TensorBaseINS_3VecEE14base_unsqueezeEl
FN:286,_ZNK5neml210TensorBaseINS_3RotEE14base_unsqueezeEl
FN:286,_ZNK5neml210TensorBaseINS_3WR2EE14base_unsqueezeEl
FN:286,_ZNK5neml210TensorBaseINS_2R3EE14base_unsqueezeEl
FN:286,_ZNK5neml210TensorBaseINS_2R5EE14base_unsqueezeEl
FN:286,_ZNK5neml210TensorBaseINS_6ScalarEE14base_unsqueezeEl
FN:286,_ZNK5neml210TensorBaseINS_2R8EE14base_unsqueezeEl
FN:286,_ZNK5neml210TensorBaseINS_10QuaternionEE14base_unsqueezeEl
FN:286,_ZNK5neml210TensorBaseINS_5SSFR5EE14base_unsqueezeEl
FN:286,_ZNK5neml210TensorBaseINS_11MillerIndexEE14base_unsqueezeEl
FN:286,_ZNK5neml210TensorBaseINS_2R4EE14base_unsqueezeEl
FN:286,_ZNK5neml210TensorBaseINS_4WWR4EE14base_unsqueezeEl
FN:286,_ZNK5neml210TensorBaseINS_4SFR3EE14base_unsqueezeEl
FN:286,_ZNK5neml210TensorBaseINS_6TensorEE14base_unsqueezeEl
FN:286,_ZNK5neml210TensorBaseINS_4WSR4EE14base_unsqueezeEl
FN:286,_ZNK5neml210TensorBaseINS_5SFFR4EE14base_unsqueezeEl
FN:286,_ZNK5neml210TensorBaseINS_2R2EE14base_unsqueezeEl
FN:294,_ZNK5neml210TensorBaseINS_3RotEE15batch_transposeEll
FN:294,_ZNK5neml210TensorBaseINS_6ScalarEE15batch_transposeEll
FN:294,_ZNK5neml210TensorBaseINS_5SSFR5EE15batch_transposeEll
FN:294,_ZNK5neml210TensorBaseINS_2R5EE15batch_transposeEll
FN:294,_ZNK5neml210TensorBaseINS_2R2EE15batch_transposeEll
FN:294,_ZNK5neml210TensorBaseINS_4WSR4EE15batch_transposeEll
FN:294,_ZNK5neml210TensorBaseINS_4SSR4EE15batch_transposeEll
FN:294,_ZNK5neml210TensorBaseINS_3SR2EE15batch_transposeEll
FN:294,_ZNK5neml210TensorBaseINS_2R3EE15batch_transposeEll
FN:294,_ZNK5neml210TensorBaseINS_4WWR4EE15batch_transposeEll
FN:294,_ZNK5neml210TensorBaseINS_5SFFR4EE15batch_transposeEll
FN:294,_ZNK5neml210TensorBaseINS_6TensorEE15batch_transposeEll
FN:294,_ZNK5neml210TensorBaseINS_2R4EE15batch_transposeEll
FN:294,_ZNK5neml210TensorBaseINS_3WR2EE15batch_transposeEll
FN:294,_ZNK5neml210TensorBaseINS_4SWR4EE15batch_transposeEll
FN:294,_ZNK5neml210TensorBaseINS_4SFR3EE15batch_transposeEll
FN:294,_ZNK5neml210TensorBaseINS_2R8EE15batch_transposeEll
FN:294,_ZNK5neml210TensorBaseINS_6SSSSR8EE15batch_transposeEll
FN:294,_ZNK5neml210TensorBaseINS_11MillerIndexEE15batch_transposeEll
FN:294,_ZNK5neml210TensorBaseINS_10QuaternionEE15batch_transposeEll
FN:294,_ZNK5neml210TensorBaseINS_3VecEE15batch_transposeEll
FN:303,_ZNK5neml210TensorBaseINS_2R8EE14base_transposeEll
FN:303,_ZNK5neml210TensorBaseINS_6TensorEE14base_transposeEll
FN:303,_ZNK5neml210TensorBaseINS_10QuaternionEE14base_transposeEll
FN:303,_ZNK5neml210TensorBaseINS_2R4EE14base_transposeEll
FN:303,_ZNK5neml210TensorBaseINS_4WSR4EE14base_transposeEll
FN:303,_ZNK5neml210TensorBaseINS_5SSFR5EE14base_transposeEll
FN:303,_ZNK5neml210TensorBaseINS_4SWR4EE14base_transposeEll
FN:303,_ZNK5neml210TensorBaseINS_4WWR4EE14base_transposeEll
FN:303,_ZNK5neml210TensorBaseINS_6ScalarEE14base_transposeEll
FN:303,_ZNK5neml210TensorBaseINS_11MillerIndexEE14base_transposeEll
FN:303,_ZNK5neml210TensorBaseINS_3VecEE14base_transposeEll
FN:303,_ZNK5neml210TensorBaseINS_3RotEE14base_transposeEll
FN:303,_ZNK5neml210TensorBaseINS_6SSSSR8EE14base_transposeEll
FN:303,_ZNK5neml210TensorBaseINS_2R5EE14base_transposeEll
FN:303,_ZNK5neml210TensorBaseINS_4SSR4EE14base_transposeEll
FN:303,_ZNK5neml210TensorBaseINS_3WR2EE14base_transposeEll
FN:303,_ZNK5neml210TensorBaseINS_2R3EE14base_transposeEll
FN:303,_ZNK5neml210TensorBaseINS_3SR2EE14base_transposeEll
FN:303,_ZNK5neml210TensorBaseINS_2R2EE14base_transposeEll
FN:303,_ZNK5neml210TensorBaseINS_4SFR3EE14base_transposeEll
FN:303,_ZNK5neml210TensorBaseINS_5SFFR4EE14base_transposeEll
FN:312,_ZNK5neml210TensorBaseINS_3RotEEngEv
FN:312,_ZNK5neml210TensorBaseINS_2R5EEngEv
FN:312,_ZNK5neml210TensorBaseINS_3VecEEngEv
FN:312,_ZNK5neml210TensorBaseINS_2R3EEngEv
FN:312,_ZNK5neml210TensorBaseINS_2R8EEngEv
FN:312,_ZNK5neml210TensorBaseINS_11MillerIndexEEngEv
FN:312,_ZNK5neml210TensorBaseINS_4SFR3EEngEv
FN:312,_ZNK5neml210TensorBaseINS_4SSR4EEngEv
FN:312,_ZNK5neml210TensorBaseINS_10QuaternionEEngEv
FN:312,_ZNK5neml210TensorBaseINS_4WWR4EEngEv
FN:312,_ZNK5neml210TensorBaseINS_4SWR4EEngEv
FN:312,_ZNK5neml210TensorBaseINS_3SR2EEngEv
FN:312,_ZNK5neml210TensorBaseINS_5SFFR4EEngEv
FN:312,_ZNK5neml210TensorBaseINS_6SSSSR8EEngEv
FN:312,_ZNK5neml210TensorBaseINS_5SSFR5EEngEv
FN:312,_ZNK5neml210TensorBaseINS_2R2EEngEv
FN:312,_ZNK5neml210TensorBaseINS_6ScalarEEngEv
FN:312,_ZNK5neml210TensorBaseINS_3WR2EEngEv
FN:312,_ZNK5neml210TensorBaseINS_2R4EEngEv
FN:312,_ZNK5neml210TensorBaseINS_4WSR4EEngEv
FN:312,_ZNK5neml210TensorBaseINS_6TensorEEngEv
FNDA:2,_ZN5neml210TensorBaseINS_3VecEE8logspaceERKS1_S4_llld
FNDA:172580,_ZNK5neml210TensorBaseINS_6TensorEE11batch_sizesEv
FNDA:29845,_ZNK5neml210TensorBaseINS_3VecEE9batch_dimEv
FNDA:0,_ZNK5neml210TensorBaseINS_3RotEE12base_reshapeEN3c108ArrayRefIlEE
FNDA:14857,_ZNK5neml210TensorBaseINS_6TensorEE12base_storageEv
FNDA:1,_ZNK5neml210TensorBaseINS_6TensorEE10batch_sizeEl
FNDA:0,_ZNK5neml210TensorBaseINS_2R8EE2toERKN3c1013TensorOptionsE
FNDA:0,_ZNK5neml210TensorBaseINS_4SFR3EE13batch_reshapeEN3c108ArrayRefIlEE
FNDA:2970,_ZNK5neml210TensorBaseINS_10QuaternionEE10base_indexEN3c108ArrayRefIN2at8indexing11TensorIndexEEE
FNDA:0,_ZNK5neml210TensorBaseINS_2R8EE7batchedEv
FNDA:0,_ZN5neml210TensorBaseINS_11MillerIndexEE10empty_likeERKS1_
FNDA:0,_ZN5neml210TensorBaseINS_3SR2EE10empty_likeERKS1_
FNDA:0,_ZNK5neml210TensorBaseINS_2R2EE15batch_transposeEll
FNDA:5,_ZN5neml210TensorBaseINS_4SWR4EEC2ERKN2at6TensorEl
FNDA:777,_ZNK5neml210TensorBaseINS_11MillerIndexEE10base_sizesEv
FNDA:0,_ZNK5neml210TensorBaseINS_2R8EEngEv
FNDA:0,_ZN5neml210TensorBaseINS_3SR2EE10zeros_likeERKS1_
FNDA:0,_ZNK5neml210TensorBaseINS_4SSR4EE14base_unsqueezeEl
FNDA:60,_ZNK5neml210TensorBaseINS_6ScalarEE12base_storageEv
FNDA:8,_ZNK5neml210TensorBaseINS_4SSR4EE15batch_unsqueezeEl
FNDA:0,_ZN5neml210TensorBaseINS_4WSR4EE16batch_index_put_EN3c108ArrayRefIN2at8indexing11TensorIndexEEERKNS5_6TensorE
FNDA:0,_ZNK5neml210TensorBaseINS_3VecEE17batch_expand_copyEN3c108ArrayRefIlEE
FNDA:0,_ZNK5neml210TensorBaseINS_6SSSSR8EE14base_unsqueezeEl
FNDA:5,_ZNK5neml210TensorBaseINS_4SWR4EE10base_sizesEv
FNDA:0,_ZNK5neml210TensorBaseINS_3VecEE10batch_sizeEl
FNDA:1,_ZNK5neml210TensorBaseINS_6TensorEE16base_expand_copyEN3c108ArrayRefIlEE
FNDA:0,_ZN5neml210TensorBaseINS_2R2EE15base_index_put_EN3c108ArrayRefIN2at8indexing11TensorIndexEEERKNS5_6TensorE
FNDA:0,_ZNK5neml210TensorBaseINS_4WSR4EE14base_transposeEll
FNDA:0,_ZNK5neml210TensorBaseINS_2R2EE5cloneEN3c1012MemoryFormatE
FNDA:0,_ZNK5neml210TensorBaseINS_2R8EE15batch_unsqueezeEl
FNDA:163,_ZNK5neml210TensorBaseINS_11MillerIndexEE8base_dimEv
FNDA:0,_ZNK5neml210TensorBaseINS_2R8EE10batch_sizeEl
FNDA:0,_ZNK5neml210TensorBaseINS_4SWR4EE12base_storageEv
FNDA:0,_ZNK5neml210TensorBaseINS_2R8EE5cloneEN3c1012MemoryFormatE
FNDA:11,_ZNK5neml210TensorBaseINS_2R5EE12base_storageEv
FNDA:492034,_ZNK5neml210TensorBaseINS_6TensorEE9batch_dimEv
FNDA:0,_ZN5neml210TensorBaseINS_3SR2EE9ones_likeERKS1_
FNDA:0,_ZNK5neml210TensorBaseINS_3RotEE16base_expand_copyEN3c108ArrayRefIlEE
FNDA:500948,_ZN5neml210TensorBaseINS_6TensorEEC2ERKN2at6TensorEl
FNDA:0,_ZNK5neml210TensorBaseINS_4WSR4EE17batch_expand_copyEN3c108ArrayRefIlEE
FNDA:0,_ZNK5neml210TensorBaseINS_4WSR4EE15batch_unsqueezeEl
FNDA:0,_ZNK5neml210TensorBaseINS_5SFFR4EE13batch_reshapeEN3c108ArrayRefIlEE
FNDA:0,_ZN5neml210TensorBaseINS_2R3EE9full_likeERKS1_d
FNDA:0,_ZN5neml210TensorBaseINS_4SWR4EE16batch_index_put_EN3c108ArrayRefIN2at8indexing11TensorIndexEEERKNS5_6TensorE
FNDA:0,_ZN5neml210TensorBaseINS_11MillerIndexEE9ones_likeERKS1_
FNDA:22507,_ZNK5neml210TensorBaseINS_3RotEE11batch_sizesEv
FNDA:0,_ZN5neml210TensorBaseINS_2R5EEC2ERKS1_
FNDA:4,_ZN5neml210TensorBaseINS_2R2EE8linspaceERKS1_S4_lll
FNDA:0,_ZN5neml210TensorBaseINS_5SFFR4EE16batch_index_put_EN3c108ArrayRefIN2at8indexing11TensorIndexEEERKNS5_6TensorE
FNDA:0,_ZN5neml210TensorBaseINS_6ScalarEEC2ERKS1_
FNDA:132,_ZNK5neml210TensorBaseINS_4WSR4EE10base_sizesEv
FNDA:0,_ZNK5neml210TensorBaseINS_4WSR4EE6detachEv
FNDA:2,_ZN5neml210TensorBaseINS_4SSR4EE8logspaceERKS1_S4_llld
FNDA:0,_ZNK5neml210TensorBaseINS_4SFR3EE2toERKN3c1013TensorOptionsE
FNDA:0,_ZN5neml210TensorBaseINS_4SFR3EE10zeros_likeERKS1_
FNDA:0,_ZN5neml210TensorBaseINS_3VecEE10zeros_likeERKS1_
FNDA:0,_ZNK5neml210TensorBaseINS_5SSFR5EE12base_reshapeEN3c108ArrayRefIlEE
FNDA:0,_ZNK5neml210TensorBaseINS_4WWR4EE11batch_indexEN3c108ArrayRefIN2at8indexing11TensorIndexEEE
FNDA:0,_ZNK5neml210TensorBaseINS_4WSR4EE16base_expand_copyEN3c108ArrayRefIlEE
FNDA:0,_ZNK5neml210TensorBaseINS_5SSFR5EE15batch_transposeEll
FNDA:1816,_ZNK5neml210TensorBaseINS_2R4EE14base_transposeEll
FNDA:0,_ZN5neml210TensorBaseINS_3WR2EE9ones_likeERKS1_
FNDA:164,_ZNK5neml210TensorBaseINS_5SSFR5EE10base_sizesEv
FNDA:0,_ZNK5neml210TensorBaseINS_3SR2EE16base_expand_copyEN3c108ArrayRefIlEE
FNDA:0,_ZN5neml210TensorBaseINS_4SWR4EE9full_likeERKS1_d
FNDA:0,_ZNK5neml210TensorBaseINS_11MillerIndexEE13batch_reshapeEN3c108ArrayRefIlEE
FNDA:55629,_ZNK5neml210TensorBaseINS_6TensorEE12batch_expandEN3c108ArrayRefIlEE
FNDA:0,_ZNK5neml210TensorBaseINS_11MillerIndexEE11base_expandEN3c108ArrayRefIlEE
FNDA:0,_ZN5neml210TensorBaseINS_5SFFR4EE8logspaceERKS1_S4_llld
FNDA:0,_ZNK5neml210TensorBaseINS_4SWR4EE15batch_unsqueezeEl
FNDA:0,_ZNK5neml210TensorBaseINS_2R3EEngEv
FNDA:214794,_ZNK5neml210TensorBaseINS_6TensorEE9base_sizeEl
FNDA:0,_ZN5neml210TensorBaseINS_2R8EE16batch_index_put_EN3c108ArrayRefIN2at8indexing11TensorIndexEEERKNS5_6TensorE
FNDA:0,_ZNK5neml210TensorBaseINS_4SWR4EE14base_unsqueezeEl
FNDA:0,_ZNK5neml210TensorBaseINS_4SSR4EE11base_expandEN3c108ArrayRefIlEE
FNDA:0,_ZNK5neml210TensorBaseINS_6ScalarEE13batch_reshapeEN3c108ArrayRefIlEE
FNDA:0,_ZN5neml210TensorBaseINS_2R4EE15base_index_put_EN3c108ArrayRefIN2at8indexing11TensorIndexEEERKNS5_6TensorE
FNDA:0,_ZNK5neml210TensorBaseINS_2R5EE15batch_transposeEll
FNDA:0,_ZNK5neml210TensorBaseINS_6SSSSR8EE16base_expand_copyEN3c108ArrayRefIlEE
FNDA:0,_ZN5neml210TensorBaseINS_5SSFR5EE9full_likeERKS1_d
FNDA:0,_ZNK5neml210TensorBaseINS_2R4EE17batch_expand_copyEN3c108ArrayRefIlEE
FNDA:0,_ZN5neml210TensorBaseINS_2R5EE10empty_likeERKS1_
FNDA:38,_ZNK5neml210TensorBaseINS_5SSFR5EE9batch_dimEv
FNDA:0,_ZNK5neml210TensorBaseINS_10QuaternionEE14base_transposeEll
FNDA:0,_ZN5neml210TensorBaseINS_5SSFR5EE16batch_index_put_EN3c108ArrayRefIN2at8indexing11TensorIndexEEERKNS5_6TensorE
FNDA:0,_ZNK5neml210TensorBaseINS_4SFR3EE17batch_expand_copyEN3c108ArrayRefIlEE
FNDA:0,_ZNK5neml210TensorBaseINS_10QuaternionEE9base_sizeEl
FNDA:0,_ZNK5neml210TensorBaseINS_3SR2EE14base_unsqueezeEl
FNDA:0,_ZN5neml210TensorBaseINS_6SSSSR8EE8linspaceERKS1_S4_lll
FNDA:0,_ZN5neml210TensorBaseINS_3WR2EEC2ERKS1_
FNDA:0,_ZNK5neml210TensorBaseINS_2R5EE16base_expand_copyEN3c108ArrayRefIlEE
FNDA:0,_ZNK5neml210TensorBaseINS_10QuaternionEE13batch_reshapeEN3c108ArrayRefIlEE
FNDA:276370,_ZNK5neml210TensorBaseINS_6TensorEE10base_sizesEv
FNDA:0,_ZNK5neml210TensorBaseINS_11MillerIndexEE5cloneEN3c1012MemoryFormatE
FNDA:0,_ZN5neml210TensorBaseINS_11MillerIndexEE16batch_index_put_EN3c108ArrayRefIN2at8indexing11TensorIndexEEERKNS5_6TensorE
FNDA:0,_ZNK5neml210TensorBaseINS_6SSSSR8EE11batch_sizesEv
FNDA:0,_ZNK5neml210TensorBaseINS_2R5EEngEv
FNDA:0,_ZNK5neml210TensorBaseINS_2R4EE9base_sizeEl
FNDA:2013,_ZNK5neml210TensorBaseINS_2R3EE9batch_dimEv
FNDA:1280,_ZNK5neml210TensorBaseINS_3VecEEngEv
FNDA:0,_ZNK5neml210TensorBaseINS_2R4EE13batch_reshapeEN3c108ArrayRefIlEE
FNDA:2,_ZNK5neml210TensorBaseINS_2R8EE12batch_expandEN3c108ArrayRefIlEE
FNDA:38,_ZNK5neml210TensorBaseINS_4SFR3EE9batch_dimEv
FNDA:88113,_ZNK5neml210TensorBaseINS_3SR2EE11batch_sizesEv
FNDA:1,_ZNK5neml210TensorBaseINS_2R4EE12base_storageEv
FNDA:0,_ZN5neml210TensorBaseINS_4WWR4EEC2ERKS1_
FNDA:18386,_ZNK5neml210TensorBaseINS_3SR2EE8base_dimEv
FNDA:0,_ZNK5neml210TensorBaseINS_2R5EE6detachEv
FNDA:0,_ZN5neml210TensorBaseINS_4SWR4EE8linspaceERKS1_S4_lll
FNDA:8,_ZN5neml210TensorBaseINS_6ScalarEE8logspaceERKS1_S4_llld
FNDA:8,_ZNK5neml210TensorBaseINS_5SSFR5EE15batch_unsqueezeEl
FNDA:0,_ZNK5neml210TensorBaseINS_2R5EE2toERKN3c1013TensorOptionsE
FNDA:0,_ZNK5neml210TensorBaseINS_11MillerIndexEE9base_sizeEl
FNDA:0,_ZN5neml210TensorBaseINS_2R8EE10empty_likeERKS1_
FNDA:0,_ZNK5neml210TensorBaseINS_4WWR4EE2toERKN3c1013TensorOptionsE
FNDA:0,_ZNK5neml210TensorBaseINS_2R8EE16base_expand_copyEN3c108ArrayRefIlEE
FNDA:0,_ZN5neml210TensorBaseINS_4WSR4EE10zeros_likeERKS1_
FNDA:255,_ZN5neml210TensorBaseINS_6TensorEE9ones_likeERKS1_
FNDA:0,_ZN5neml210TensorBaseINS_11MillerIndexEE10zeros_likeERKS1_
FNDA:0,_ZN5neml210TensorBaseINS_4WSR4EEC2ERKS1_
FNDA:0,_ZNK5neml210TensorBaseINS_5SFFR4EE12base_reshapeEN3c108ArrayRefIlEE
FNDA:1908,_ZNK5neml210TensorBaseINS_6TensorEE17batch_expand_copyEN3c108ArrayRefIlEE
FNDA:0,_ZNK5neml210TensorBaseINS_6SSSSR8EE12base_storageEv
FNDA:98,_ZN5neml210TensorBaseINS_10QuaternionEEC2ERKN2at6TensorEl
FNDA:141,_ZN5neml210TensorBaseINS_6TensorEE16batch_index_put_EN3c108ArrayRefIN2at8indexing11TensorIndexEEERKNS5_6TensorE
FNDA:0,_ZNK5neml210TensorBaseINS_2R4EE16base_expand_copyEN3c108ArrayRefIlEE
FNDA:6234,_ZNK5neml210TensorBaseINS_2R3EE10base_sizesEv
FNDA:0,_ZNK5neml210TensorBaseINS_3WR2EE6detachEv
FNDA:0,_ZNK5neml210TensorBaseINS_3SR2EE5cloneEN3c1012MemoryFormatE
FNDA:0,_ZN5neml210TensorBaseINS_3WR2EE8logspaceERKS1_S4_llld
FNDA:49926,_ZNK5neml210TensorBaseINS_6TensorEE12base_reshapeEN3c108ArrayRefIlEE
FNDA:2,_ZN5neml210TensorBaseINS_4SFR3EE8logspaceERKS1_S4_llld
FNDA:0,_ZN5neml210TensorBaseINS_2R5EE10zeros_likeERKS1_
FNDA:0,_ZNK5neml210TensorBaseINS_5SSFR5EE17batch_expand_copyEN3c108ArrayRefIlEE
FNDA:38193,_ZNK5neml210TensorBaseINS_2R2EE9batch_dimEv
FNDA:0,_ZNK5neml210TensorBaseINS_10QuaternionEE11batch_sizesEv
FNDA:740,_ZNK5neml210TensorBaseINS_6TensorEE14base_transposeEll
FNDA:1,_ZNK5neml210TensorBaseINS_2R3EE12base_storageEv
FNDA:0,_ZN5neml210TensorBaseINS_5SFFR4EEC2ERKS1_
FNDA:0,_ZNK5neml210TensorBaseINS_4WSR4EE11batch_indexEN3c108ArrayRefIN2at8indexing11TensorIndexEEE
FNDA:0,_ZNK5neml210TensorBaseINS_3RotEE6detachEv
FNDA:2,_ZN5neml210TensorBaseINS_3SR2EE8logspaceERKS1_S4_llld
FNDA:543,_ZNK5neml210TensorBaseINS_3SR2EE15batch_unsqueezeEl
FNDA:0,_ZNK5neml210TensorBaseINS_2R2EE10batch_sizeEl
FNDA:0,_ZN5neml210TensorBaseINS_6TensorEEC2ERKS1_
FNDA:0,_ZN5neml210TensorBaseINS_4SSR4EE16batch_index_put_EN3c108ArrayRefIN2at8indexing11TensorIndexEEERKNS5_6TensorE
FNDA:0,_ZN5neml210TensorBaseINS_2R5EE9ones_likeERKS1_
FNDA:0,_ZNK5neml210TensorBaseINS_3SR2EE17batch_expand_copyEN3c108ArrayRefIlEE
FNDA:0,_ZNK5neml210TensorBaseINS_4SFR3EE7batchedEv
FNDA:0,_ZNK5neml210TensorBaseINS_3RotEE15batch_transposeEll
FNDA:5988,_ZN5neml210TensorBaseINS_3RotEEC2ERKN2at6TensorEl
FNDA:0,_ZNK5neml210TensorBaseINS_2R5EE13batch_reshapeEN3c108ArrayRefIlEE
FNDA:27,_ZNK5neml210TensorBaseINS_3RotEEngEv
FNDA:3766,_ZN5neml210TensorBaseINS_3WR2EEC2ERKN2at6TensorEl
FNDA:73,_ZNK5neml210TensorBaseINS_2R5EE11batch_sizesEv
FNDA:0,_ZNK5neml210TensorBaseINS_6SSSSR8EE12batch_expandEN3c108ArrayRefIlEE
FNDA:14,_ZNK5neml210TensorBaseINS_2R4EE12batch_expandEN3c108ArrayRefIlEE
FNDA:0,_ZN5neml210TensorBaseINS_2R8EE8logspaceERKS1_S4_llld
FNDA:16760,_ZNK5neml210TensorBaseINS_6TensorEE5cloneEN3c1012MemoryFormatE
FNDA:55,_ZNK5neml210TensorBaseINS_2R2EE12batch_expandEN3c108ArrayRefIlEE
FNDA:0,_ZNK5neml210TensorBaseINS_6ScalarEE15batch_transposeEll
FNDA:0,_ZNK5neml210TensorBaseINS_2R8EE14base_transposeEll
FNDA:0,_ZNK5neml210TensorBaseINS_4WWR4EE11batch_sizesEv
FNDA:898,_ZNK5neml210TensorBaseINS_6ScalarEE11batch_indexEN3c108ArrayRefIN2at8indexing11TensorIndexEEE
FNDA:0,_ZN5neml210TensorBaseINS_3WR2EE10zeros_likeERKS1_
FNDA:0,_ZN5neml210TensorBaseINS_6SSSSR8EE8logspaceERKS1_S4_llld
FNDA:0,_ZNK5neml210TensorBaseINS_6SSSSR8EE2toERKN3c1013TensorOptionsE
FNDA:0,_ZNK5neml210TensorBaseINS_4SFR3EE6detachEv
FNDA:8016,_ZNK5neml210TensorBaseINS_3RotEE9batch_dimEv
FNDA:5941,_ZNK5neml210TensorBaseINS_10QuaternionEE9batch_dimEv
FNDA:0,_ZN5neml210TensorBaseINS_6SSSSR8EE10zeros_likeERKS1_
FNDA:0,_ZN5neml210TensorBaseINS_2R4EE10empty_likeERKS1_
FNDA:27,_ZNK5neml210TensorBaseINS_3WR2EE2toERKN3c1013TensorOptionsE
FNDA:134,_ZNK5neml210TensorBaseINS_5SFFR4EE10base_sizesEv
FNDA:0,_ZNK5neml210TensorBaseINS_5SFFR4EE2toERKN3c1013TensorOptionsE
FNDA:0,_ZNK5neml210TensorBaseINS_2R5EE10base_indexEN3c108ArrayRefIN2at8indexing11TensorIndexEEE
FNDA:638,_ZNK5neml210TensorBaseINS_4SSR4EE12batch_expandEN3c108ArrayRefIlEE
FNDA:82,_ZNK5neml210TensorBaseINS_2R5EE9batch_dimEv
FNDA:0,_ZN5neml210TensorBaseINS_4WWR4EE16batch_index_put_EN3c108ArrayRefIN2at8indexing11TensorIndexEEERKNS5_6TensorE
FNDA:0,_ZNK5neml210TensorBaseINS_2R4EE10batch_sizeEl
FNDA:0,_ZNK5neml210TensorBaseINS_4SFR3EE11batch_indexEN3c108ArrayRefIN2at8indexing11TensorIndexEEE
FNDA:0,_ZNK5neml210TensorBaseINS_4WSR4EE13batch_reshapeEN3c108ArrayRefIlEE
FNDA:0,_ZNK5neml210TensorBaseINS_2R2EE16base_expand_copyEN3c108ArrayRefIlEE
FNDA:0,_ZNK5neml210TensorBaseINS_6SSSSR8EE5cloneEN3c1012MemoryFormatE
FNDA:4,_ZN5neml210TensorBaseINS_4SSR4EE8linspaceERKS1_S4_lll
FNDA:0,_ZN5neml210TensorBaseINS_4SWR4EE8logspaceERKS1_S4_llld
FNDA:0,_ZN5neml210TensorBaseINS_4WWR4EE8linspaceERKS1_S4_lll
FNDA:324,_ZNK5neml210TensorBaseINS_4SSR4EE10base_indexEN3c108ArrayRefIN2at8indexing11TensorIndexEEE
FNDA:0,_ZN5neml210TensorBaseINS_2R8EE8linspaceERKS1_S4_lll
FNDA:0,_ZNK5neml210TensorBaseINS_6ScalarEE6detachEv
FNDA:0,_ZNK5neml210TensorBaseINS_2R5EE11batch_indexEN3c108ArrayRefIN2at8indexing11TensorIndexEEE
FNDA:0,_ZNK5neml210TensorBaseINS_6ScalarEE14base_transposeEll
FNDA:0,_ZN5neml210TensorBaseINS_4SWR4EEC2ERKS1_
FNDA:0,_ZNK5neml210TensorBaseINS_2R2EE9base_sizeEl
FNDA:0,_ZN5neml210TensorBaseINS_2R2EE9ones_likeERKS1_
FNDA:0,_ZN5neml210TensorBaseINS_3RotEE10zeros_likeERKS1_
FNDA:63,_ZNK5neml210TensorBaseINS_5SSFR5EE11batch_sizesEv
FNDA:0,_ZNK5neml210TensorBaseINS_4SWR4EEngEv
FNDA:0,_ZNK5neml210TensorBaseINS_4SWR4EE7batchedEv
FNDA:0,_ZN5neml210TensorBaseINS_11MillerIndexEE9full_likeERKS1_d
FNDA:0,_ZNK5neml210TensorBaseINS_11MillerIndexEE14base_transposeEll
FNDA:0,_ZNK5neml210TensorBaseINS_10QuaternionEE5cloneEN3c1012MemoryFormatE
FNDA:0,_ZN5neml210TensorBaseINS_3RotEE9full_likeERKS1_d
FNDA:0,_ZNK5neml210TensorBaseINS_3WR2EE17batch_expand_copyEN3c108ArrayRefIlEE
FNDA:0,_ZNK5neml210TensorBaseINS_4WWR4EE15batch_unsqueezeEl
FNDA:0,_ZNK5neml210TensorBaseINS_2R8EE14base_unsqueezeEl
FNDA:0,_ZN5neml210TensorBaseINS_4WWR4EE10empty_likeERKS1_
FNDA:18,_ZNK5neml210TensorBaseINS_2R8EE9batch_dimEv
FNDA:0,_ZN5neml210TensorBaseINS_4WWR4EE15base_index_put_EN3c108ArrayRefIN2at8indexing11TensorIndexEEERKNS5_6TensorE
FNDA:784,_ZNK5neml210TensorBaseINS_11MillerIndexEE9batch_dimEv
FNDA:0,_ZN5neml210TensorBaseINS_3SR2EE16batch_index_put_EN3c108ArrayRefIN2at8indexing11TensorIndexEEERKNS5_6TensorE
FNDA:17419,_ZN5neml210TensorBaseINS_6TensorEE15base_index_put_EN3c108ArrayRefIN2at8indexing11TensorIndexEEERKNS5_6TensorE
FNDA:0,_ZN5neml210TensorBaseINS_10QuaternionEE8linspaceERKS1_S4_lll
FNDA:503,_ZNK5neml210TensorBaseINS_6ScalarEE2toERKN3c1013TensorOptionsE
FNDA:0,_ZNK5neml210TensorBaseINS_3SR2EE9base_sizeEl
FNDA:0,_ZNK5neml210TensorBaseINS_2R5EE11base_expandEN3c108ArrayRefIlEE
FNDA:301,_ZNK5neml210TensorBaseINS_6TensorEE11base_expandEN3c108ArrayRefIlEE
FNDA:107255,_ZNK5neml210TensorBaseINS_6TensorEE8base_dimEv
FNDA:0,_ZN5neml210TensorBaseINS_2R2EEC2ERKS1_
FNDA:0,_ZN5neml210TensorBaseINS_10QuaternionEE10zeros_likeERKS1_
FNDA:0,_ZNK5neml210TensorBaseINS_4SWR4EE10base_indexEN3c108ArrayRefIN2at8indexing11TensorIndexEEE
FNDA:0,_ZNK5neml210TensorBaseINS_2R5EE9base_sizeEl
FNDA:0,_ZNK5neml210TensorBaseINS_3SR2EE7batchedEv
FNDA:0,_ZNK5neml210TensorBaseINS_3SR2EE13batch_reshapeEN3c108ArrayRefIlEE
FNDA:0,_ZN5neml210TensorBaseINS_2R8EE9ones_likeERKS1_
FNDA:0,_ZNK5neml210TensorBaseINS_4WWR4EE10base_indexEN3c108ArrayRefIN2at8indexing11TensorIndexEEE
FNDA:0,_ZNK5neml210TensorBaseINS_4SWR4EE2toERKN3c1013TensorOptionsE
FNDA:0,_ZNK5neml210TensorBaseINS_3RotEE13batch_reshapeEN3c108ArrayRefIlEE
FNDA:0,_ZNK5neml210TensorBaseINS_4SFR3EE5cloneEN3c1012MemoryFormatE
FNDA:298,_ZNK5neml210TensorBaseINS_6ScalarEE14base_unsqueezeEl
FNDA:0,_ZNK5neml210TensorBaseINS_11MillerIndexEE17batch_expand_copyEN3c108ArrayRefIlEE
FNDA:1,_ZN5neml210TensorBaseINS_6TensorEE9full_likeERKS1_d
FNDA:6486,_ZNK5neml210TensorBaseINS_3SR2EE10base_indexEN3c108ArrayRefIN2at8indexing11TensorIndexEEE
FNDA:0,_ZN5neml210TensorBaseINS_4SFR3EE15base_index_put_EN3c108ArrayRefIN2at8indexing11TensorIndexEEERKNS5_6TensorE
FNDA:53889,_ZNK5neml210TensorBaseINS_2R2EE11batch_sizesEv
FNDA:2892,_ZNK5neml210TensorBaseINS_3VecEE11batch_indexEN3c108ArrayRefIN2at8indexing11TensorIndexEEE
FNDA:0,_ZNK5neml210TensorBaseINS_3SR2EE15batch_transposeEll
FNDA:0,_ZNK5neml210TensorBaseINS_3WR2EE12base_reshapeEN3c108ArrayRefIlEE
FNDA:0,_ZNK5neml210TensorBaseINS_2R4EE6detachEv
FNDA:65,_ZNK5neml210TensorBaseINS_4WWR4EEngEv
FNDA:0,_ZNK5neml210TensorBaseINS_5SSFR5EE2toERKN3c1013TensorOptionsE
FNDA:0,_ZN5neml210TensorBaseINS_4SFR3EEC2ERKS1_
FNDA:36,_ZNK5neml210TensorBaseINS_2R8EE10base_sizesEv
FNDA:0,_ZNK5neml210TensorBaseINS_4SWR4EE11base_expandEN3c108ArrayRefIlEE
FNDA:0,_ZNK5neml210TensorBaseINS_10QuaternionEEngEv
FNDA:0,_ZN5neml210TensorBaseINS_5SFFR4EE9full_likeERKS1_d
FNDA:0,_ZNK5neml210TensorBaseINS_4SSR4EE16base_expand_copyEN3c108ArrayRefIlEE
FNDA:0,_ZN5neml210TensorBaseINS_10QuaternionEE8logspaceERKS1_S4_llld
FNDA:0,_ZNK5neml210TensorBaseINS_2R8EE12base_storageEv
FNDA:0,_ZNK5neml210TensorBaseINS_4SSR4EE5cloneEN3c1012MemoryFormatE
FNDA:0,_ZN5neml210TensorBaseINS_3WR2EE9full_likeERKS1_d
FNDA:0,_ZNK5neml210TensorBaseINS_5SFFR4EE10base_indexEN3c108ArrayRefIN2at8indexing11TensorIndexEEE
FNDA:0,_ZNK5neml210TensorBaseINS_5SFFR4EE10batch_sizeEl
FNDA:0,_ZNK5neml210TensorBaseINS_2R3EE9base_sizeEl
FNDA:0,_ZNK5neml210TensorBaseINS_10QuaternionEE6detachEv
FNDA:0,_ZNK5neml210TensorBaseINS_4WWR4EE12base_reshapeEN3c108ArrayRefIlEE
FNDA:0,_ZNK5neml210TensorBaseINS_2R5EE17batch_expand_copyEN3c108ArrayRefIlEE
FNDA:0,_ZNK5neml210TensorBaseINS_11MillerIndexEEngEv
FNDA:0,_ZNK5neml210TensorBaseINS_4SSR4EE15batch_transposeEll
FNDA:0,_ZNK5neml210TensorBaseINS_2R3EE14base_unsqueezeEl
FNDA:0,_ZNK5neml210TensorBaseINS_11MillerIndexEE12base_storageEv
FNDA:0,_ZN5neml210TensorBaseINS_4WSR4EE9full_likeERKS1_d
FNDA:0,_ZNK5neml210TensorBaseINS_2R5EE14base_unsqueezeEl
FNDA:0,_ZNK5neml210TensorBaseINS_4SFR3EEngEv
FNDA:0,_ZNK5neml210TensorBaseINS_3RotEE5cloneEN3c1012MemoryFormatE
FNDA:0,_ZN5neml210TensorBaseINS_2R5EE9full_likeERKS1_d
FNDA:160354,_ZNK5neml210TensorBaseINS_3SR2EE10base_sizesEv
FNDA:0,_ZNK5neml210TensorBaseINS_2R3EE5cloneEN3c1012MemoryFormatE
FNDA:1881,_ZNK5neml210TensorBaseINS_3WR2EE8base_dimEv
FNDA:223118,_ZN5neml210TensorBaseINS_6ScalarEEC2ERKN2at6TensorEl
FNDA:0,_ZN5neml210TensorBaseINS_4WSR4EE8linspaceERKS1_S4_lll
FNDA:134,_ZN5neml210TensorBaseINS_5SFFR4EEC2ERKN2at6TensorEl
FNDA:1257,_ZNK5neml210TensorBaseINS_4SSR4EEngEv
FNDA:0,_ZNK5neml210TensorBaseINS_3SR2EE12base_reshapeEN3c108ArrayRefIlEE
FNDA:0,_ZNK5neml210TensorBaseINS_4SFR3EE12batch_expandEN3c108ArrayRefIlEE
FNDA:0,_ZN5neml210TensorBaseINS_3RotEE16batch_index_put_EN3c108ArrayRefIN2at8indexing11TensorIndexEEERKNS5_6TensorE
FNDA:53235,_ZN5neml210TensorBaseINS_3SR2EEC2ERKN2at6TensorEl
FNDA:18,_ZNK5neml210TensorBaseINS_2R4EE8base_dimEv
FNDA:0,_ZNK5neml210TensorBaseINS_6SSSSR8EE12base_reshapeEN3c108ArrayRefIlEE
FNDA:0,_ZNK5neml210TensorBaseINS_2R8EE10base_indexEN3c108ArrayRefIN2at8indexing11TensorIndexEEE
FNDA:0,_ZN5neml210TensorBaseINS_3RotEEC2ERKS1_
FNDA:0,_ZNK5neml210TensorBaseINS_4SSR4EE12base_reshapeEN3c108ArrayRefIlEE
FNDA:0,_ZNK5neml210TensorBaseINS_4SWR4EE14base_transposeEll
FNDA:0,_ZNK5neml210TensorBaseINS_2R3EE2toERKN3c1013TensorOptionsE
FNDA:0,_ZN5neml210TensorBaseINS_3VecEE15base_index_put_EN3c108ArrayRefIN2at8indexing11TensorIndexEEERKNS5_6TensorE
FNDA:209,_ZN5neml210TensorBaseINS_6ScalarEE10zeros_likeERKS1_
FNDA:0,_ZNK5neml210TensorBaseINS_4WWR4EE11base_expandEN3c108ArrayRefIlEE
FNDA:0,_ZNK5neml210TensorBaseINS_4SSR4EE10batch_sizeEl
FNDA:0,_ZNK5neml210TensorBaseINS_2R4EE12base_reshapeEN3c108ArrayRefIlEE
FNDA:0,_ZNK5neml210TensorBaseINS_10QuaternionEE7batchedEv
FNDA:0,_ZNK5neml210TensorBaseINS_3WR2EE14base_unsqueezeEl
FNDA:0,_ZNK5neml210TensorBaseINS_3VecEE13batch_reshapeEN3c108ArrayRefIlEE
FNDA:0,_ZNK5neml210TensorBaseINS_6TensorEE13batch_reshapeEN3c108ArrayRefIlEE
FNDA:0,_ZNK5neml210TensorBaseINS_3WR2EE12base_storageEv
FNDA:69,_ZNK5neml210TensorBaseINS_4WWR4EE9batch_dimEv
FNDA:0,_ZNK5neml210TensorBaseINS_5SSFR5EE6detachEv
FNDA:0,_ZNK5neml210TensorBaseINS_5SFFR4EE9base_sizeEl
FNDA:0,_ZNK5neml210TensorBaseINS_4WWR4EE14base_transposeEll
FNDA:0,_ZNK5neml210TensorBaseINS_3WR2EE11base_expandEN3c108ArrayRefIlEE
FNDA:0,_ZN5neml210TensorBaseINS_3SR2EE9full_likeERKS1_d
FNDA:0,_ZNK5neml210TensorBaseINS_4WSR4EE10base_indexEN3c108ArrayRefIN2at8indexing11TensorIndexEEE
FNDA:0,_ZN5neml210TensorBaseINS_5SSFR5EE9ones_likeERKS1_
FNDA:41179,_ZNK5neml210TensorBaseINS_4SSR4EE10base_sizesEv
FNDA:1128,_ZNK5neml210TensorBaseINS_4SSR4EE11batch_indexEN3c108ArrayRefIN2at8indexing11TensorIndexEEE
FNDA:0,_ZNK5neml210TensorBaseINS_4WWR4EE16base_expand_copyEN3c108ArrayRefIlEE
FNDA:7640,_ZNK5neml210TensorBaseINS_3WR2EE11batch_sizesEv
FNDA:0,_ZNK5neml210TensorBaseINS_10QuaternionEE15batch_unsqueezeEl
FNDA:0,_ZNK5neml210TensorBaseINS_10QuaternionEE2toERKN3c1013TensorOptionsE
FNDA:9,_ZNK5neml210TensorBaseINS_3WR2EE10base_indexEN3c108ArrayRefIN2at8indexing11TensorIndexEEE
FNDA:0,_ZNK5neml210TensorBaseINS_4SWR4EE17batch_expand_copyEN3c108ArrayRefIlEE
FNDA:0,_ZNK5neml210TensorBaseINS_6ScalarEE10batch_sizeEl
FNDA:0,_ZNK5neml210TensorBaseINS_3SR2EE11base_expandEN3c108ArrayRefIlEE
FNDA:0,_ZN5neml210TensorBaseINS_4WSR4EE15base_index_put_EN3c108ArrayRefIN2at8indexing11TensorIndexEEERKNS5_6TensorE
FNDA:0,_ZNK5neml210TensorBaseINS_5SSFR5EE5cloneEN3c1012MemoryFormatE
FNDA:4,_ZN5neml210TensorBaseINS_5SSFR5EE8linspaceERKS1_S4_lll
FNDA:0,_ZNK5neml210TensorBaseINS_3RotEE14base_unsqueezeEl
FNDA:0,_ZNK5neml210TensorBaseINS_6SSSSR8EE11batch_indexEN3c108ArrayRefIN2at8indexing11TensorIndexEEE
FNDA:0,_ZNK5neml210TensorBaseINS_4WSR4EE2toERKN3c1013TensorOptionsE
FNDA:18119,_ZN5neml210TensorBaseINS_4SSR4EEC2ERKN2at6TensorEl
FNDA:65,_ZNK5neml210TensorBaseINS_6ScalarEE11base_expandEN3c108ArrayRefIlEE
FNDA:81,_ZNK5neml210TensorBaseINS_3RotEE12batch_expandEN3c108ArrayRefIlEE
FNDA:0,_ZNK5neml210TensorBaseINS_5SFFR4EE12base_storageEv
FNDA:0,_ZNK5neml210TensorBaseINS_2R8EE6detachEv
FNDA:1639,_ZNK5neml210TensorBaseINS_3RotEE8base_dimEv
FNDA:0,_ZNK5neml210TensorBaseINS_2R3EE16base_expand_copyEN3c108ArrayRefIlEE
FNDA:0,_ZNK5neml210TensorBaseINS_6SSSSR8EE6detachEv
FNDA:0,_ZNK5neml210TensorBaseINS_3VecEE16base_expand_copyEN3c108ArrayRefIlEE
FNDA:0,_ZN5neml210TensorBaseINS_3WR2EE10empty_likeERKS1_
FNDA:0,_ZN5neml210TensorBaseINS_6ScalarEE15base_index_put_EN3c108ArrayRefIN2at8indexing11TensorIndexEEERKNS5_6TensorE
FNDA:0,_ZNK5neml210TensorBaseINS_4WWR4EE8base_dimEv
FNDA:0,_ZNK5neml210TensorBaseINS_3VecEE14base_unsqueezeEl
FNDA:0,_ZNK5neml210TensorBaseINS_2R8EE17batch_expand_copyEN3c108ArrayRefIlEE
FNDA:0,_ZNK5neml210TensorBaseINS_4WSR4EE15batch_transposeEll
FNDA:23,_ZNK5neml210TensorBaseINS_3VecEE12base_storageEv
FNDA:0,_ZN5neml210TensorBaseINS_5SFFR4EE8linspaceERKS1_S4_lll
FNDA:1,_ZNK5neml210TensorBaseINS_5SSFR5EE12base_storageEv
FNDA:0,_ZN5neml210TensorBaseINS_4WWR4EE10zeros_likeERKS1_
FNDA:0,_ZN5neml210TensorBaseINS_4SWR4EE15base_index_put_EN3c108ArrayRefIN2at8indexing11TensorIndexEEERKNS5_6TensorE
FNDA:0,_ZN5neml210TensorBaseINS_3RotEE15base_index_put_EN3c108ArrayRefIN2at8indexing11TensorIndexEEERKNS5_6TensorE
FNDA:0,_ZNK5neml210TensorBaseINS_5SSFR5EE14base_transposeEll
FNDA:0,_ZN5neml210TensorBaseINS_4SSR4EE9ones_likeERKS1_
FNDA:0,_ZNK5neml210TensorBaseINS_3RotEE11batch_indexEN3c108ArrayRefIN2at8indexing11TensorIndexEEE
FNDA:0,_ZNK5neml210TensorBaseINS_5SFFR4EE6detachEv
FNDA:235,_ZNK5neml210TensorBaseINS_2R5EE10base_sizesEv
FNDA:0,_ZNK5neml210TensorBaseINS_2R2EE12base_reshapeEN3c108ArrayRefIlEE
FNDA:1,_ZNK5neml210TensorBaseINS_10QuaternionEE8base_dimEv
FNDA:0,_ZN5neml210TensorBaseINS_3WR2EE16batch_index_put_EN3c108ArrayRefIN2at8indexing11TensorIndexEEERKNS5_6TensorE
FNDA:0,_ZNK5neml210TensorBaseINS_2R4EEngEv
FNDA:0,_ZNK5neml210TensorBaseINS_2R8EE11batch_sizesEv
FNDA:178,_ZNK5neml210TensorBaseINS_3SR2EE11batch_indexEN3c108ArrayRefIN2at8indexing11TensorIndexEEE
FNDA:0,_ZNK5neml210TensorBaseINS_4SWR4EE10batch_sizeEl
FNDA:0,_ZN5neml210TensorBaseINS_3VecEE16batch_index_put_EN3c108ArrayRefIN2at8indexing11TensorIndexEEERKNS5_6TensorE
FNDA:0,_ZNK5neml210TensorBaseINS_6SSSSR8EE10base_indexEN3c108ArrayRefIN2at8indexing11TensorIndexEEE
FNDA:0,_ZNK5neml210TensorBaseINS_5SSFR5EE11batch_indexEN3c108ArrayRefIN2at8indexing11TensorIndexEEE
FNDA:0,_ZNK5neml210TensorBaseINS_2R8EE11batch_indexEN3c108ArrayRefIN2at8indexing11TensorIndexEEE
FNDA:0,_ZN5neml210TensorBaseINS_6SSSSR8EE10empty_likeERKS1_
FNDA:0,_ZN5neml210TensorBaseINS_2R3EE16batch_index_put_EN3c108ArrayRefIN2at8indexing11TensorIndexEEERKNS5_6TensorE
FNDA:0,_ZNK5neml210TensorBaseINS_4SSR4EE7batchedEv
FNDA:66,_ZN5neml210TensorBaseINS_5SSFR5EEC2ERKN2at6TensorEl
FNDA:1,_ZNK5neml210TensorBaseINS_3RotEE12base_storageEv
FNDA:0,_ZNK5neml210TensorBaseINS_4WSR4EE12base_storageEv
FNDA:1,_ZNK5neml210TensorBaseINS_4SFR3EE12base_storageEv
FNDA:475,_ZN5neml210TensorBaseINS_11MillerIndexEEC2ERKN2at6TensorEl
FNDA:145,_ZN5neml210TensorBaseINS_6ScalarEE16batch_index_put_EN3c108ArrayRefIN2at8indexing11TensorIndexEEERKNS5_6TensorE
FNDA:10,_ZNK5neml210TensorBaseINS_3RotEE15batch_unsqueezeEl
FNDA:0,_ZN5neml210TensorBaseINS_6SSSSR8EEC2ERKS1_
FNDA:0,_ZNK5neml210TensorBaseINS_11MillerIndexEE10batch_sizeEl
FNDA:0,_ZNK5neml210TensorBaseINS_5SSFR5EE10base_indexEN3c108ArrayRefIN2at8indexing11TensorIndexEEE
FNDA:0,_ZN5neml210TensorBaseINS_2R8EE15base_index_put_EN3c108ArrayRefIN2at8indexing11TensorIndexEEERKNS5_6TensorE
FNDA:2,_ZNK5neml210TensorBaseINS_3SR2EE12base_storageEv
FNDA:0,_ZNK5neml210TensorBaseINS_4SFR3EE15batch_transposeEll
FNDA:0,_ZNK5neml210TensorBaseINS_4WSR4EE10batch_sizeEl
FNDA:0,_ZNK5neml210TensorBaseINS_5SFFR4EE5cloneEN3c1012MemoryFormatE
FNDA:0,_ZN5neml210TensorBaseINS_6SSSSR8EE15base_index_put_EN3c108ArrayRefIN2at8indexing11TensorIndexEEERKNS5_6TensorE
FNDA:0,_ZN5neml210TensorBaseINS_4SFR3EE9full_likeERKS1_d
FNDA:0,_ZNK5neml210TensorBaseINS_5SSFR5EE16base_expand_copyEN3c108ArrayRefIlEE
FNDA:0,_ZNK5neml210TensorBaseINS_2R5EE10batch_sizeEl
FNDA:8531,_ZNK5neml210TensorBaseINS_2R4EE11batch_sizesEv
FNDA:0,_ZNK5neml210TensorBaseINS_4WSR4EE12batch_expandEN3c108ArrayRefIlEE
FNDA:0,_ZNK5neml210TensorBaseINS_5SFFR4EE7batchedEv
FNDA:0,_ZNK5neml210TensorBaseINS_6SSSSR8EE11base_expandEN3c108ArrayRefIlEE
FNDA:2,_ZNK5neml210TensorBaseINS_2R3EE12batch_expandEN3c108ArrayRefIlEE
FNDA:4,_ZN5neml210TensorBaseINS_4SFR3EE8linspaceERKS1_S4_lll
FNDA:0,_ZNK5neml210TensorBaseINS_3WR2EE14base_transposeEll
FNDA:7575,_ZNK5neml210TensorBaseINS_4SSR4EE8base_dimEv
FNDA:0,_ZNK5neml210TensorBaseINS_4SSR4EE6detachEv
FNDA:0,_ZN5neml210TensorBaseINS_10QuaternionEE15base_index_put_EN3c108ArrayRefIN2at8indexing11TensorIndexEEERKNS5_6TensorE
FNDA:0,_ZNK5neml210TensorBaseINS_3WR2EEngEv
FNDA:564477,_ZNK5neml210TensorBaseINS_6ScalarEE10base_sizesEv
FNDA:12079,_ZNK5neml210TensorBaseINS_6ScalarEEngEv
FNDA:3,_ZNK5neml210TensorBaseINS_11MillerIndexEE12batch_expandEN3c108ArrayRefIlEE
FNDA:2644,_ZN5neml210TensorBaseINS_2R3EEC2ERKN2at6TensorEl
FNDA:0,_ZNK5neml210TensorBaseINS_4WSR4EE8base_dimEv
FNDA:0,_ZN5neml210TensorBaseINS_6SSSSR8EE9ones_likeERKS1_
FNDA:6673,_ZNK5neml210TensorBaseINS_3WR2EE9batch_dimEv
FNDA:0,_ZN5neml210TensorBaseINS_2R2EE16batch_index_put_EN3c108ArrayRefIN2at8indexing11TensorIndexEEERKNS5_6TensorE
FNDA:0,_ZN5neml210TensorBaseINS_4SSR4EE10zeros_likeERKS1_
FNDA:0,_ZNK5neml210TensorBaseINS_5SFFR4EE12batch_expandEN3c108ArrayRefIlEE
FNDA:0,_ZNK5neml210TensorBaseINS_2R3EE6detachEv
FNDA:0,_ZNK5neml210TensorBaseINS_3WR2EE15batch_transposeEll
FNDA:0,_ZN5neml210TensorBaseINS_2R8EE10zeros_likeERKS1_
FNDA:0,_ZNK5neml210TensorBaseINS_2R4EE15batch_transposeEll
FNDA:0,_ZNK5neml210TensorBaseINS_6SSSSR8EE15batch_unsqueezeEl
FNDA:0,_ZNK5neml210TensorBaseINS_5SSFR5EE14base_unsqueezeEl
FNDA:8,_ZNK5neml210TensorBaseINS_2R5EE15batch_unsqueezeEl
FNDA:0,_ZN5neml210TensorBaseINS_11MillerIndexEEC2ERKS1_
FNDA:0,_ZNK5neml210TensorBaseINS_3VecEE12base_reshapeEN3c108ArrayRefIlEE
FNDA:0,_ZNK5neml210TensorBaseINS_4SWR4EE15batch_transposeEll
FNDA:4,_ZN5neml210TensorBaseINS_2R5EE8linspaceERKS1_S4_lll
FNDA:4,_ZNK5neml210TensorBaseINS_4SWR4EE9batch_dimEv
FNDA:5436,_ZNK5neml210TensorBaseINS_6ScalarEE8base_dimEv
FNDA:0,_ZN5neml210TensorBaseINS_2R4EE9full_likeERKS1_d
FNDA:0,_ZNK5neml210TensorBaseINS_11MillerIndexEE15batch_unsqueezeEl
FNDA:0,_ZN5neml210TensorBaseINS_2R3EE15base_index_put_EN3c108ArrayRefIN2at8indexing11TensorIndexEEERKNS5_6TensorE
FNDA:0,_ZNK5neml210TensorBaseINS_4SSR4EE9base_sizeEl
FNDA:0,_ZNK5neml210TensorBaseINS_4SFR3EE9base_sizeEl
FNDA:2,_ZN5neml210TensorBaseINS_2R4EE8logspaceERKS1_S4_llld
FNDA:0,_ZNK5neml210TensorBaseINS_2R4EE5cloneEN3c1012MemoryFormatE
FNDA:4,_ZNK5neml210TensorBaseINS_5SSFR5EE8base_dimEv
FNDA:210688,_ZNK5neml210TensorBaseINS_6ScalarEE9batch_dimEv
FNDA:0,_ZN5neml210TensorBaseINS_4WSR4EE10empty_likeERKS1_
FNDA:0,_ZN5neml210TensorBaseINS_2R5EE16batch_index_put_EN3c108ArrayRefIN2at8indexing11TensorIndexEEERKNS5_6TensorE
FNDA:4,_ZN5neml210TensorBaseINS_2R3EE8linspaceERKS1_S4_lll
FNDA:26145,_ZNK5neml210TensorBaseINS_3VecEE10base_sizesEv
FNDA:0,_ZN5neml210TensorBaseINS_4SWR4EE9ones_likeERKS1_
FNDA:0,_ZN5neml210TensorBaseINS_6SSSSR8EE16batch_index_put_EN3c108ArrayRefIN2at8indexing11TensorIndexEEERKNS5_6TensorE
FNDA:0,_ZNK5neml210TensorBaseINS_5SSFR5EE9base_sizeEl
FNDA:0,_ZNK5neml210TensorBaseINS_5SSFR5EEngEv
FNDA:0,_ZNK5neml210TensorBaseINS_10QuaternionEE14base_unsqueezeEl
FNDA:0,_ZNK5neml210TensorBaseINS_2R4EE2toERKN3c1013TensorOptionsE
FNDA:2527,_ZNK5neml210TensorBaseINS_2R3EE11batch_sizesEv
FNDA:0,_ZNK5neml210TensorBaseINS_2R5EE14base_transposeEll
FNDA:0,_ZN5neml210TensorBaseINS_3RotEE9ones_likeERKS1_
FNDA:0,_ZNK5neml210TensorBaseINS_10QuaternionEE17batch_expand_copyEN3c108ArrayRefIlEE
FNDA:502,_ZNK5neml210TensorBaseINS_6ScalarEE12batch_expandEN3c108ArrayRefIlEE
FNDA:0,_ZNK5neml210TensorBaseINS_4SSR4EE14base_transposeEll
FNDA:0,_ZNK5neml210TensorBaseINS_4SWR4EE9base_sizeEl
FNDA:0,_ZNK5neml210TensorBaseINS_2R5EE5cloneEN3c1012MemoryFormatE
FNDA:0,_ZN5neml210TensorBaseINS_4SSR4EE10empty_likeERKS1_
FNDA:177,_ZNK5neml210TensorBaseINS_2R2EEngEv
FNDA:664,_ZNK5neml210TensorBaseINS_6ScalarEE15batch_unsqueezeEl
FNDA:0,_ZNK5neml210TensorBaseINS_2R4EE7batchedEv
FNDA:0,_ZN5neml210TensorBaseINS_10QuaternionEE16batch_index_put_EN3c108ArrayRefIN2at8indexing11TensorIndexEEERKNS5_6TensorE
FNDA:0,_ZNK5neml210TensorBaseINS_3RotEE7batchedEv
FNDA:0,_ZNK5neml210TensorBaseINS_4WSR4EE11batch_sizesEv
FNDA:0,_ZNK5neml210TensorBaseINS_6SSSSR8EE14base_transposeEll
FNDA:0,_ZN5neml210TensorBaseINS_4WSR4EE8logspaceERKS1_S4_llld
FNDA:0,_ZN5neml210TensorBaseINS_2R8EEC2ERKS1_
FNDA:0,_ZN5neml210TensorBaseINS_3VecEEC2ERKS1_
FNDA:0,_ZN5neml210TensorBaseINS_10QuaternionEE9full_likeERKS1_d
FNDA:0,_ZNK5neml210TensorBaseINS_2R3EE11batch_indexEN3c108ArrayRefIN2at8indexing11TensorIndexEEE
FNDA:14,_ZNK5neml210TensorBaseINS_2R5EE8base_dimEv
FNDA:0,_ZNK5neml210TensorBaseINS_3VecEE5cloneEN3c1012MemoryFormatE
FNDA:0,_ZN5neml210TensorBaseINS_3RotEE10empty_likeERKS1_
FNDA:0,_ZN5neml210TensorBaseINS_2R2EE10zeros_likeERKS1_
FNDA:0,_ZNK5neml210TensorBaseINS_4SSR4EE13batch_reshapeEN3c108ArrayRefIlEE
FNDA:101,_ZNK5neml210TensorBaseINS_10QuaternionEE10base_sizesEv
FNDA:9235,_ZN5neml210TensorBaseINS_3VecEEC2ERKN2at6TensorEl
FNDA:0,_ZNK5neml210TensorBaseINS_5SFFR4EE15batch_transposeEll
FNDA:21,_ZNK5neml210TensorBaseINS_6TensorEE15batch_unsqueezeEl
FNDA:0,_ZNK5neml210TensorBaseINS_5SFFR4EE17batch_expand_copyEN3c108ArrayRefIlEE
FNDA:0,_ZN5neml210TensorBaseINS_5SSFR5EEC2ERKS1_
FNDA:1,_ZNK5neml210TensorBaseINS_6TensorEE15batch_transposeEll
FNDA:0,_ZN5neml210TensorBaseINS_4WWR4EE9full_likeERKS1_d
FNDA:0,_ZN5neml210TensorBaseINS_4SFR3EE16batch_index_put_EN3c108ArrayRefIN2at8indexing11TensorIndexEEERKNS5_6TensorE
FNDA:26,_ZNK5neml210TensorBaseINS_2R2EE2toERKN3c1013TensorOptionsE
FNDA:0,_ZNK5neml210TensorBaseINS_6ScalarEE12base_reshapeEN3c108ArrayRefIlEE
FNDA:0,_ZNK5neml210TensorBaseINS_4WWR4EE15batch_transposeEll
FNDA:1,_ZN5neml210TensorBaseINS_6TensorEE10empty_likeERKS1_
FNDA:0,_ZNK5neml210TensorBaseINS_5SSFR5EE11base_expandEN3c108ArrayRefIlEE
FNDA:0,_ZNK5neml210TensorBaseINS_4SFR3EE10base_indexEN3c108ArrayRefIN2at8indexing11TensorIndexEEE
FNDA:0,_ZNK5neml210TensorBaseINS_2R2EE6detachEv
FNDA:356410,_ZNK5neml210TensorBaseINS_6ScalarEE11batch_sizesEv
FNDA:0,_ZN5neml210TensorBaseINS_5SSFR5EE10empty_likeERKS1_
FNDA:11308,_ZNK5neml210TensorBaseINS_3WR2EE10base_sizesEv
FNDA:0,_ZN5neml210TensorBaseINS_11MillerIndexEE8logspaceERKS1_S4_llld
FNDA:0,_ZNK5neml210TensorBaseINS_4SFR3EE12base_reshapeEN3c108ArrayRefIlEE
FNDA:0,_ZNK5neml210TensorBaseINS_3VecEE14base_transposeEll
FNDA:661,_ZN5neml210TensorBaseINS_6TensorEE10zeros_likeERKS1_
FNDA:2,_ZN5neml210TensorBaseINS_3RotEE8logspaceERKS1_S4_llld
FNDA:46,_ZN5neml210TensorBaseINS_4SFR3EEC2ERKN2at6TensorEl
FNDA:0,_ZNK5neml210TensorBaseINS_2R3EE13batch_reshapeEN3c108ArrayRefIlEE
FNDA:0,_ZNK5neml210TensorBaseINS_4SWR4EE5cloneEN3c1012MemoryFormatE
FNDA:0,_ZNK5neml210TensorBaseINS_4WWR4EE9base_sizeEl
FNDA:1210,_ZNK5neml210TensorBaseINS_2R2EE11batch_indexEN3c108ArrayRefIN2at8indexing11TensorIndexEEE
FNDA:0,_ZNK5neml210TensorBaseINS_6SSSSR8EEngEv
FNDA:0,_ZNK5neml210TensorBaseINS_3RotEE14base_transposeEll
FNDA:0,_ZNK5neml210TensorBaseINS_2R8EE11base_expandEN3c108ArrayRefIlEE
FNDA:144,_ZNK5neml210TensorBaseINS_4SFR3EE10base_sizesEv
FNDA:0,_ZN5neml210TensorBaseINS_2R3EE9ones_likeERKS1_
FNDA:0,_ZN5neml210TensorBaseINS_4SFR3EE10empty_likeERKS1_
FNDA:0,_ZNK5neml210TensorBaseINS_3SR2EE10batch_sizeEl
FNDA:0,_ZNK5neml210TensorBaseINS_3RotEE11base_expandEN3c108ArrayRefIlEE
FNDA:0,_ZNK5neml210TensorBaseINS_6SSSSR8EE10batch_sizeEl
FNDA:0,_ZN5neml210TensorBaseINS_3SR2EEC2ERKS1_
FNDA:0,_ZN5neml210TensorBaseINS_4SSR4EEC2ERKS1_
FNDA:0,_ZNK5neml210TensorBaseINS_4SFR3EE16base_expand_copyEN3c108ArrayRefIlEE
FNDA:0,_ZNK5neml210TensorBaseINS_10QuaternionEE11batch_indexEN3c108ArrayRefIN2at8indexing11TensorIndexEEE
FNDA:30,_ZN5neml210TensorBaseINS_6ScalarEE9full_likeERKS1_d
FNDA:0,_ZNK5neml210TensorBaseINS_3WR2EE9base_sizeEl
FNDA:0,_ZNK5neml210TensorBaseINS_2R8EE12base_reshapeEN3c108ArrayRefIlEE
FNDA:0,_ZN5neml210TensorBaseINS_5SFFR4EE15base_index_put_EN3c108ArrayRefIN2at8indexing11TensorIndexEEERKNS5_6TensorE
FNDA:79,_ZNK5neml210TensorBaseINS_3SR2EEngEv
FNDA:35,_ZNK5neml210TensorBaseINS_6SSSSR8EE10base_sizesEv
FNDA:0,_ZNK5neml210TensorBaseINS_10QuaternionEE16base_expand_copyEN3c108ArrayRefIlEE
FNDA:456,_ZNK5neml210TensorBaseINS_2R2EE15batch_unsqueezeEl
FNDA:0,_ZNK5neml210TensorBaseINS_3VecEE11base_expandEN3c108ArrayRefIlEE
FNDA:0,_ZNK5neml210TensorBaseINS_5SFFR4EEngEv
FNDA:4,_ZN5neml210TensorBaseINS_2R4EE8linspaceERKS1_S4_lll
FNDA:2,_ZN5neml210TensorBaseINS_2R5EE8logspaceERKS1_S4_llld
FNDA:0,_ZNK5neml210TensorBaseINS_4SWR4EE11batch_sizesEv
FNDA:120,_ZNK5neml210TensorBaseINS_11MillerIndexEE11batch_sizesEv
FNDA:0,_ZNK5neml210TensorBaseINS_4WSR4EE9base_sizeEl
FNDA:16354,_ZNK5neml210TensorBaseINS_2R4EE10base_sizesEv
FNDA:0,_ZNK5neml210TensorBaseINS_3WR2EE5cloneEN3c1012MemoryFormatE
FNDA:0,_ZNK5neml210TensorBaseINS_2R3EE15batch_transposeEll
FNDA:16047,_ZNK5neml210TensorBaseINS_3VecEE11batch_sizesEv
FNDA:0,_ZN5neml210TensorBaseINS_3SR2EE15base_index_put_EN3c108ArrayRefIN2at8indexing11TensorIndexEEERKNS5_6TensorE
FNDA:0,_ZN5neml210TensorBaseINS_2R4EE9ones_likeERKS1_
FNDA:0,_ZN5neml210TensorBaseINS_2R3EE10empty_likeERKS1_
FNDA:0,_ZNK5neml210TensorBaseINS_4WWR4EE12batch_expandEN3c108ArrayRefIlEE
FNDA:0,_ZNK5neml210TensorBaseINS_4SWR4EE16base_expand_copyEN3c108ArrayRefIlEE
FNDA:0,_ZNK5neml210TensorBaseINS_3VecEE15batch_transposeEll
FNDA:27,_ZNK5neml210TensorBaseINS_2R2EE10base_indexEN3c108ArrayRefIN2at8indexing11TensorIndexEEE
FNDA:0,_ZN5neml210TensorBaseINS_2R3EEC2ERKS1_
FNDA:0,_ZNK5neml210TensorBaseINS_2R2EE14base_unsqueezeEl
FNDA:0,_ZN5neml210TensorBaseINS_5SFFR4EE10empty_likeERKS1_
FNDA:0,_ZNK5neml210TensorBaseINS_3SR2EE6detachEv
FNDA:0,_ZN5neml210TensorBaseINS_4WWR4EE9ones_likeERKS1_
FNDA:0,_ZNK5neml210TensorBaseINS_3WR2EE7batchedEv
FNDA:11,_ZNK5neml210TensorBaseINS_6TensorEE7batchedEv
FNDA:0,_ZNK5neml210TensorBaseINS_6SSSSR8EE9base_sizeEl
FNDA:0,_ZNK5neml210TensorBaseINS_10QuaternionEE11base_expandEN3c108ArrayRefIlEE
FNDA:0,_ZNK5neml210TensorBaseINS_4WWR4EE12base_storageEv
FNDA:0,_ZNK5neml210TensorBaseINS_4WWR4EE5cloneEN3c1012MemoryFormatE
FNDA:8,_ZNK5neml210TensorBaseINS_3VecEE15batch_unsqueezeEl
FNDA:104,_ZNK5neml210TensorBaseINS_3VecEE2toERKN3c1013TensorOptionsE
FNDA:0,_ZNK5neml210TensorBaseINS_4SWR4EE11batch_indexEN3c108ArrayRefIN2at8indexing11TensorIndexEEE
FNDA:0,_ZNK5neml210TensorBaseINS_3RotEE17batch_expand_copyEN3c108ArrayRefIlEE
FNDA:0,_ZNK5neml210TensorBaseINS_2R8EE9base_sizeEl
FNDA:133,_ZN5neml210TensorBaseINS_4WWR4EEC2ERKN2at6TensorEl
FNDA:0,_ZNK5neml210TensorBaseINS_5SFFR4EE11batch_indexEN3c108ArrayRefIN2at8indexing11TensorIndexEEE
FNDA:0,_ZNK5neml210TensorBaseINS_3VecEE6detachEv
FNDA:0,_ZN5neml210TensorBaseINS_2R4EE10zeros_likeERKS1_
FNDA:0,_ZNK5neml210TensorBaseINS_4WSR4EE11base_expandEN3c108ArrayRefIlEE
FNDA:136,_ZNK5neml210TensorBaseINS_11MillerIndexEE2toERKN3c1013TensorOptionsE
FNDA:0,_ZNK5neml210TensorBaseINS_11MillerIndexEE7batchedEv
FNDA:0,_ZNK5neml210TensorBaseINS_5SFFR4EE14base_transposeEll
FNDA:13,_ZNK5neml210TensorBaseINS_4SSR4EE12base_storageEv
FNDA:22,_ZNK5neml210TensorBaseINS_6TensorEE11batch_indexEN3c108ArrayRefIN2at8indexing11TensorIndexEEE
FNDA:4,_ZN5neml210TensorBaseINS_3RotEE8linspaceERKS1_S4_lll
FNDA:0,_ZNK5neml210TensorBaseINS_11MillerIndexEE6detachEv
FNDA:0,_ZN5neml210TensorBaseINS_2R8EE9full_likeERKS1_d
FNDA:0,_ZN5neml210TensorBaseINS_2R3EE10zeros_likeERKS1_
FNDA:0,_ZNK5neml210TensorBaseINS_5SSFR5EE7batchedEv
FNDA:0,_ZNK5neml210TensorBaseINS_4WWR4EE7batchedEv
FNDA:80,_ZN5neml210TensorBaseINS_2R5EEC2ERKN2at6TensorEl
FNDA:2,_ZN5neml210TensorBaseINS_2R2EE8logspaceERKS1_S4_llld
FNDA:0,_ZN5neml210TensorBaseINS_4SSR4EE15base_index_put_EN3c108ArrayRefIN2at8indexing11TensorIndexEEERKNS5_6TensorE
FNDA:41,_ZNK5neml210TensorBaseINS_3VecEE12batch_expandEN3c108ArrayRefIlEE
FNDA:0,_ZNK5neml210TensorBaseINS_5SSFR5EE13batch_reshapeEN3c108ArrayRefIlEE
FNDA:264,_ZNK5neml210TensorBaseINS_4WWR4EE10base_sizesEv
FNDA:0,_ZNK5neml210TensorBaseINS_3VecEE9base_sizeEl
FNDA:0,_ZNK5neml210TensorBaseINS_4SWR4EE12batch_expandEN3c108ArrayRefIlEE
FNDA:0,_ZNK5neml210TensorBaseINS_2R2EE13batch_reshapeEN3c108ArrayRefIlEE
FNDA:0,_ZNK5neml210TensorBaseINS_2R4EE11base_expandEN3c108ArrayRefIlEE
FNDA:0,_ZN5neml210TensorBaseINS_4SFR3EE9ones_likeERKS1_
FNDA:0,_ZN5neml210TensorBaseINS_4SWR4EE10zeros_likeERKS1_
FNDA:0,_ZNK5neml210TensorBaseINS_2R2EE7batchedEv
FNDA:18,_ZN5neml210TensorBaseINS_2R8EEC2ERKN2at6TensorEl
FNDA:0,_ZN5neml210TensorBaseINS_4SWR4EE10empty_likeERKS1_
FNDA:0,_ZNK5neml210TensorBaseINS_5SFFR4EE14base_unsqueezeEl
FNDA:1,_ZN5neml210TensorBaseINS_3WR2EE8linspaceERKS1_S4_lll
FNDA:0,_ZNK5neml210TensorBaseINS_3RotEE2toERKN3c1013TensorOptionsE
FNDA:0,_ZNK5neml210TensorBaseINS_4WSR4EE14base_unsqueezeEl
FNDA:0,_ZNK5neml210TensorBaseINS_2R3EE17batch_expand_copyEN3c108ArrayRefIlEE
FNDA:0,_ZNK5neml210TensorBaseINS_10QuaternionEE15batch_transposeEll
FNDA:0,_ZN5neml210TensorBaseINS_10QuaternionEE9ones_likeERKS1_
FNDA:0,_ZNK5neml210TensorBaseINS_4SFR3EE10batch_sizeEl
FNDA:0,_ZNK5neml210TensorBaseINS_4WSR4EE5cloneEN3c1012MemoryFormatE
FNDA:7111,_ZNK5neml210TensorBaseINS_3VecEE8base_dimEv
FNDA:19,_ZN5neml210TensorBaseINS_3SR2EE8linspaceERKS1_S4_lll
FNDA:0,_ZNK5neml210TensorBaseINS_3WR2EE13batch_reshapeEN3c108ArrayRefIlEE
FNDA:0,_ZNK5neml210TensorBaseINS_6SSSSR8EE17batch_expand_copyEN3c108ArrayRefIlEE
FNDA:0,_ZN5neml210TensorBaseINS_2R2EE10empty_likeERKS1_
FNDA:0,_ZNK5neml210TensorBaseINS_2R4EE11batch_indexEN3c108ArrayRefIN2at8indexing11TensorIndexEEE
FNDA:8,_ZNK5neml210TensorBaseINS_2R5EE7batchedEv
FNDA:9,_ZN5neml210TensorBaseINS_6TensorEE8linspaceERKS1_S4_lll
FNDA:84,_ZN5neml210TensorBaseINS_6ScalarEE9ones_likeERKS1_
FNDA:0,_ZNK5neml210TensorBaseINS_2R3EE7batchedEv
FNDA:0,_ZNK5neml210TensorBaseINS_3WR2EE16base_expand_copyEN3c108ArrayRefIlEE
FNDA:0,_ZN5neml210TensorBaseINS_2R4EEC2ERKS1_
FNDA:0,_ZNK5neml210TensorBaseINS_4WWR4EE17batch_expand_copyEN3c108ArrayRefIlEE
FNDA:4,_ZN5neml210TensorBaseINS_3VecEE8linspaceERKS1_S4_lll
FNDA:108267,_ZNK5neml210TensorBaseINS_3SR2EE9batch_dimEv
FNDA:0,_ZNK5neml210TensorBaseINS_2R8EE13batch_reshapeEN3c108ArrayRefIlEE
FNDA:0,_ZNK5neml210TensorBaseINS_4SWR4EE12base_reshapeEN3c108ArrayRefIlEE
FNDA:0,_ZNK5neml210TensorBaseINS_5SFFR4EE11batch_sizesEv
FNDA:1373,_ZNK5neml210TensorBaseINS_6TensorEEngEv
FNDA:0,_ZNK5neml210TensorBaseINS_11MillerIndexEE15batch_transposeEll
FNDA:30189,_ZNK5neml210TensorBaseINS_3RotEE10base_sizesEv
FNDA:130,_ZNK5neml210TensorBaseINS_4WSR4EE9batch_dimEv
FNDA:8,_ZNK5neml210TensorBaseINS_2R4EE15batch_unsqueezeEl
FNDA:0,_ZNK5neml210TensorBaseINS_5SFFR4EE11base_expandEN3c108ArrayRefIlEE
FNDA:0,_ZNK5neml210TensorBaseINS_4SFR3EE14base_transposeEll
FNDA:0,_ZNK5neml210TensorBaseINS_6ScalarEE17batch_expand_copyEN3c108ArrayRefIlEE
FNDA:0,_ZNK5neml210TensorBaseINS_5SSFR5EE10batch_sizeEl
FNDA:107,_ZNK5neml210TensorBaseINS_6TensorEE14base_unsqueezeEl
FNDA:0,_ZNK5neml210TensorBaseINS_4SWR4EE6detachEv
FNDA:0,_ZNK5neml210TensorBaseINS_4WSR4EE12base_reshapeEN3c108ArrayRefIlEE
FNDA:0,_ZN5neml210TensorBaseINS_5SFFR4EE9ones_likeERKS1_
FNDA:0,_ZNK5neml210TensorBaseINS_2R2EE17batch_expand_copyEN3c108ArrayRefIlEE
FNDA:63,_ZNK5neml210TensorBaseINS_4SFR3EE11batch_sizesEv
FNDA:95,_ZN5neml210TensorBaseINS_6ScalarEE8linspaceERKS1_S4_lll
FNDA:0,_ZN5neml210TensorBaseINS_3VecEE10empty_likeERKS1_
FNDA:9082,_ZNK5neml210TensorBaseINS_3VecEE10base_indexEN3c108ArrayRefIN2at8indexing11TensorIndexEEE
FNDA:6740,_ZNK5neml210TensorBaseINS_2R2EE8base_dimEv
FNDA:0,_ZN5neml210TensorBaseINS_10QuaternionEE10empty_likeERKS1_
FNDA:1,_ZNK5neml210TensorBaseINS_10QuaternionEE12batch_expandEN3c108ArrayRefIlEE
FNDA:23,_ZNK5neml210TensorBaseINS_3WR2EE12batch_expandEN3c108ArrayRefIlEE
FNDA:18685,_ZNK5neml210TensorBaseINS_4SSR4EE11batch_sizesEv
FNDA:0,_ZNK5neml210TensorBaseINS_3RotEE10batch_sizeEl
FNDA:0,_ZNK5neml210TensorBaseINS_4SFR3EE14base_unsqueezeEl
FNDA:2553,_ZNK5neml210TensorBaseINS_2R2EE14base_transposeEll
FNDA:0,_ZNK5neml210TensorBaseINS_4WWR4EE14base_unsqueezeEl
FNDA:2,_ZNK5neml210TensorBaseINS_3WR2EE15batch_unsqueezeEl
FNDA:0,_ZNK5neml210TensorBaseINS_2R4EE14base_unsqueezeEl
FNDA:35,_ZN5neml210TensorBaseINS_6SSSSR8EEC2ERKN2at6TensorEl
FNDA:0,_ZNK5neml210TensorBaseINS_6SSSSR8EE7batchedEv
FNDA:0,_ZN5neml210TensorBaseINS_10QuaternionEEC2ERKS1_
FNDA:0,_ZNK5neml210TensorBaseINS_6TensorEE6detachEv
FNDA:0,_ZNK5neml210TensorBaseINS_4SFR3EE11base_expandEN3c108ArrayRefIlEE
FNDA:0,_ZNK5neml210TensorBaseINS_4WSR4EEngEv
FNDA:0,_ZN5neml210TensorBaseINS_4WWR4EE8logspaceERKS1_S4_llld
FNDA:0,_ZNK5neml210TensorBaseINS_6SSSSR8EE13batch_reshapeEN3c108ArrayRefIlEE
FNDA:0,_ZNK5neml210TensorBaseINS_10QuaternionEE12base_reshapeEN3c108ArrayRefIlEE
FNDA:0,_ZNK5neml210TensorBaseINS_4WWR4EE10batch_sizeEl
FNDA:1,_ZNK5neml210TensorBaseINS_2R2EE12base_storageEv
FNDA:6859,_ZNK5neml210TensorBaseINS_2R4EE9batch_dimEv
FNDA:147499,_ZNK5neml210TensorBaseINS_6TensorEE10base_indexEN3c108ArrayRefIN2at8indexing11TensorIndexEEE
FNDA:0,_ZN5neml210TensorBaseINS_3VecEE9full_likeERKS1_d
FNDA:280,_ZNK5neml210TensorBaseINS_6TensorEE2toERKN3c1013TensorOptionsE
FNDA:65,_ZNK5neml210TensorBaseINS_5SFFR4EE9batch_dimEv
FNDA:8,_ZNK5neml210TensorBaseINS_6SSSSR8EE9batch_dimEv
FNDA:0,_ZNK5neml210TensorBaseINS_3RotEE9base_sizeEl
FNDA:0,_ZNK5neml210TensorBaseINS_3VecEE7batchedEv
FNDA:0,_ZN5neml210TensorBaseINS_2R4EE16batch_index_put_EN3c108ArrayRefIN2at8indexing11TensorIndexEEERKNS5_6TensorE
FNDA:53,_ZNK5neml210TensorBaseINS_3SR2EE2toERKN3c1013TensorOptionsE
FNDA:0,_ZNK5neml210TensorBaseINS_4SSR4EE17batch_expand_copyEN3c108ArrayRefIlEE
FNDA:21,_ZNK5neml210TensorBaseINS_6ScalarEE5cloneEN3c1012MemoryFormatE
FNDA:0,_ZNK5neml210TensorBaseINS_2R5EE12batch_expandEN3c108ArrayRefIlEE
FNDA:4,_ZNK5neml210TensorBaseINS_4SFR3EE8base_dimEv
FNDA:0,_ZNK5neml210TensorBaseINS_4WWR4EE6detachEv
FNDA:0,_ZNK5neml210TensorBaseINS_10QuaternionEE10batch_sizeEl
FNDA:0,_ZNK5neml210TensorBaseINS_3RotEE10base_indexEN3c108ArrayRefIN2at8indexing11TensorIndexEEE
FNDA:0,_ZNK5neml210TensorBaseINS_6ScalarEE7batchedEv
FNDA:0,_ZNK5neml210TensorBaseINS_3SR2EE14base_transposeEll
FNDA:0,_ZNK5neml210TensorBaseINS_4SWR4EE13batch_reshapeEN3c108ArrayRefIlEE
FNDA:0,_ZNK5neml210TensorBaseINS_2R2EE11base_expandEN3c108ArrayRefIlEE
FNDA:0,_ZN5neml210TensorBaseINS_6ScalarEE10empty_likeERKS1_
FNDA:0,_ZNK5neml210TensorBaseINS_5SSFR5EE12batch_expandEN3c108ArrayRefIlEE
FNDA:0,_ZNK5neml210TensorBaseINS_4SWR4EE8base_dimEv
FNDA:0,_ZNK5neml210TensorBaseINS_4WWR4EE13batch_reshapeEN3c108ArrayRefIlEE
FNDA:0,_ZN5neml210TensorBaseINS_11MillerIndexEE8linspaceERKS1_S4_lll
FNDA:486,_ZNK5neml210TensorBaseINS_2R4EE10base_indexEN3c108ArrayRefIN2at8indexing11TensorIndexEEE
FNDA:0,_ZNK5neml210TensorBaseINS_11MillerIndexEE14base_unsqueezeEl
FNDA:5896,_ZN5neml210TensorBaseINS_2R4EEC2ERKN2at6TensorEl
FNDA:0,_ZN5neml210TensorBaseINS_5SSFR5EE15base_index_put_EN3c108ArrayRefIN2at8indexing11TensorIndexEEERKNS5_6TensorE
FNDA:0,_ZN5neml210TensorBaseINS_5SFFR4EE10zeros_likeERKS1_
FNDA:8,_ZNK5neml210TensorBaseINS_4SFR3EE15batch_unsqueezeEl
FNDA:249,_ZNK5neml210TensorBaseINS_11MillerIndexEE10base_indexEN3c108ArrayRefIN2at8indexing11TensorIndexEEE
FNDA:0,_ZN5neml210TensorBaseINS_3WR2EE15base_index_put_EN3c108ArrayRefIN2at8indexing11TensorIndexEEERKNS5_6TensorE
FNDA:0,_ZN5neml210TensorBaseINS_6SSSSR8EE9full_likeERKS1_d
FNDA:0,_ZNK5neml210TensorBaseINS_2R3EE14base_transposeEll
FNDA:29688,_ZN5neml210TensorBaseINS_2R2EEC2ERKN2at6TensorEl
FNDA:0,_ZNK5neml210TensorBaseINS_6ScalarEE9base_sizeEl
FNDA:54,_ZNK5neml210TensorBaseINS_2R3EE10base_indexEN3c108ArrayRefIN2at8indexing11TensorIndexEEE
FNDA:2,_ZN5neml210TensorBaseINS_5SSFR5EE8logspaceERKS1_S4_llld
FNDA:486,_ZNK5neml210TensorBaseINS_2R3EE8base_dimEv
FNDA:0,_ZNK5neml210TensorBaseINS_3WR2EE10batch_sizeEl
FNDA:0,_ZNK5neml210TensorBaseINS_4WSR4EE7batchedEv
FNDA:95107,_ZNK5neml210TensorBaseINS_2R2EE10base_sizesEv
FNDA:0,_ZNK5neml210TensorBaseINS_2R3EE11base_expandEN3c108ArrayRefIlEE
FNDA:0,_ZNK5neml210TensorBaseINS_2R3EE10batch_sizeEl
FNDA:0,_ZN5neml210TensorBaseINS_5SSFR5EE10zeros_likeERKS1_
FNDA:0,_ZNK5neml210TensorBaseINS_11MillerIndexEE16base_expand_copyEN3c108ArrayRefIlEE
FNDA:12,_ZNK5neml210TensorBaseINS_4SSR4EE2toERKN3c1013TensorOptionsE
FNDA:0,_ZN5neml210TensorBaseINS_2R5EE15base_index_put_EN3c108ArrayRefIN2at8indexing11TensorIndexEEERKNS5_6TensorE
FNDA:0,_ZNK5neml210TensorBaseINS_2R3EE12base_reshapeEN3c108ArrayRefIlEE
FNDA:0,_ZNK5neml210TensorBaseINS_6SSSSR8EE15batch_transposeEll
FNDA:0,_ZN5neml210TensorBaseINS_11MillerIndexEE15base_index_put_EN3c108ArrayRefIN2at8indexing11TensorIndexEEERKNS5_6TensorE
FNDA:2,_ZN5neml210TensorBaseINS_2R3EE8logspaceERKS1_S4_llld
FNDA:10,_ZNK5neml210TensorBaseINS_3WR2EE11batch_indexEN3c108ArrayRefIN2at8indexing11TensorIndexEEE
FNDA:0,_ZN5neml210TensorBaseINS_2R2EE9full_likeERKS1_d
FNDA:0,_ZN5neml210TensorBaseINS_4WSR4EE9ones_likeERKS1_
FNDA:0,_ZN5neml210TensorBaseINS_3VecEE9ones_likeERKS1_
FNDA:0,_ZNK5neml210TensorBaseINS_2R5EE12base_reshapeEN3c108ArrayRefIlEE
FNDA:0,_ZNK5neml210TensorBaseINS_11MillerIndexEE12base_reshapeEN3c108ArrayRefIlEE
FNDA:242,_ZNK5neml210TensorBaseINS_3SR2EE12batch_expandEN3c108ArrayRefIlEE
FNDA:0,_ZNK5neml210TensorBaseINS_10QuaternionEE12base_storageEv
FNDA:132,_ZN5neml210TensorBaseINS_4WSR4EEC2ERKN2at6TensorEl
FNDA:8,_ZNK5neml210TensorBaseINS_2R3EE15batch_unsqueezeEl
FNDA:2,_ZN5neml210TensorBaseINS_6TensorEE8logspaceERKS1_S4_llld
FNDA:80,_ZNK5neml210TensorBaseINS_11MillerIndexEE11batch_indexEN3c108ArrayRefIN2at8indexing11TensorIndexEEE
FNDA:0,_ZN5neml210TensorBaseINS_4SSR4EE9full_likeERKS1_d
FNDA:26057,_ZNK5neml210TensorBaseINS_4SSR4EE9batch_dimEv
FNDA:0,_ZNK5neml210TensorBaseINS_6SSSSR8EE8base_dimEv
FNDA:2,_ZNK5neml210TensorBaseINS_2R8EE8base_dimEv
FNDA:0,_ZNK5neml210TensorBaseINS_5SFFR4EE16base_expand_copyEN3c108ArrayRefIlEE
FNDA:0,_ZNK5neml210TensorBaseINS_5SFFR4EE8base_dimEv
FNDA:0,_ZNK5neml210TensorBaseINS_6ScalarEE16base_expand_copyEN3c108ArrayRefIlEE
FNDA:0,_ZNK5neml210TensorBaseINS_6ScalarEE10base_indexEN3c108ArrayRefIN2at8indexing11TensorIndexEEE
FNDA:0,_ZNK5neml210TensorBaseINS_2R8EE15batch_transposeEll
FNDA:0,_ZNK5neml210TensorBaseINS_5SFFR4EE15batch_unsqueezeEl
FNF:714
FNH:217
DA:31,853859
DA:33,853859
DA:35,853859
DA:37,853859
DA:39,853859
DA:40,853859
DA:43,0
DA:45,0
DA:47,0
DA:51,1
DA:53,1
DA:58,870
DA:60,870
DA:65,339
DA:67,339
DA:72,31
DA:74,31
DA:79,160
DA:82,160
DA:83,160
DA:85,160
DA:87,160
DA:89,160
DA:90,160
DA:92,160
DA:93,160
DA:94,160
DA:95,320
DA:97,160
DA:98,160
DA:100,320
DA:101,160
DA:105,30
DA:108,30
DA:109,60
DA:110,30
DA:114,16781
DA:116,16781
DA:121,0
DA:123,0
DA:128,1141
DA:130,1141
DA:135,19
DA:137,19
DA:142,935822
DA:144,935822
DA:149,156715
DA:151,156715
DA:156,747248
DA:158,747248
DA:163,1
DA:165,1
DA:170,1229744
DA:172,1229744
DA:177,214794
DA:179,214794
DA:184,14972
DA:186,14972
DA:191,6418
DA:193,6418
DA:194,6418
DA:195,6418
DA:196,12836
DA:197,6418
DA:201,167186
DA:203,334372
DA:204,167186
DA:205,334372
DA:206,167186
DA:210,286
DA:213,286
DA:214,286
DA:215,286
DA:216,286
DA:220,17419
DA:223,34838
DA:224,17419
DA:225,17419
DA:226,17419
DA:230,57233
DA:233,57233
DA:234,57233
DA:235,114466
DA:236,57233
DA:240,366
DA:243,366
DA:244,366
DA:245,732
DA:246,366
DA:250,1908
DA:252,1908
DA:257,1
DA:259,1
DA:264,0
DA:266,0
DA:271,49926
DA:273,49926
DA:278,1752
DA:280,1752
DA:281,1752
DA:286,405
DA:288,405
DA:289,405
DA:294,1
DA:297,0
DA:298,1
DA:303,5109
DA:306,9958
DA:307,5109
DA:312,16337
DA:314,16337
LF:111
LH:103
end_of_record
TN:
SF:/home/runner/work/neml2/neml2/src/neml2/tensors/Transformable.cxx
FN:33,_ZN5neml225transform_from_quaternionERKNS_10QuaternionE
FN:39,_ZN5neml218identity_transformERKN3c1013TensorOptionsE
FN:45,_ZN5neml225proper_rotation_transformERKNS_3RotE
FN:51,_ZN5neml227improper_rotation_transformERKNS_3RotE
FN:58,_ZN5neml220reflection_transformERKNS_3VecE
FN:64,_ZN5neml219inversion_transformERKN3c1013TensorOptionsE
FNDA:3,_ZN5neml227improper_rotation_transformERKNS_3RotE
FNDA:0,_ZN5neml220reflection_transformERKNS_3VecE
FNDA:2,_ZN5neml219inversion_transformERKN3c1013TensorOptionsE
FNDA:96,_ZN5neml225transform_from_quaternionERKNS_10QuaternionE
FNDA:2,_ZN5neml225proper_rotation_transformERKNS_3RotE
FNDA:2,_ZN5neml218identity_transformERKN3c1013TensorOptionsE
FNF:6
FNH:5
DA:33,96
DA:35,96
DA:39,2
DA:41,2
DA:45,2
DA:47,2
DA:51,3
DA:53,6
DA:54,9
DA:55,3
DA:58,0
DA:60,0
DA:64,2
DA:66,4
LF:14
LH:12
end_of_record
TN:
SF:/home/runner/work/neml2/neml2/src/neml2/tensors/Variable.cxx
FN:30,_ZN5neml212VariableBaseC2ERKNS_19LabeledAxisAccessorEPKNS_5ModelE
FN:47,_ZN5neml212VariableBase5cacheEN3c108ArrayRefIlEE
FN:53,_ZN5neml212VariableBase11setup_viewsEPKNS_13LabeledVectorEPKNS_13LabeledMatrixEPKNS_15LabeledTensor3DE
FN:71,_ZN5neml212VariableBase11setup_viewsEPKS0_
FN:85,_ZNK5neml212VariableBase12is_dependentEv
FN:91,_ZN5neml212VariableBase1dERKS0_
FN:111,_ZN5neml212VariableBase1dERKS0_S2_
FN:140,_ZN5neml210DerivativeaSERKNS_6TensorE
FNDA:22095,_ZN5neml212VariableBase11setup_viewsEPKNS_13LabeledVectorEPKNS_13LabeledMatrixEPKNS_15LabeledTensor3DE
FNDA:22485,_ZN5neml212VariableBase1dERKS0_
FNDA:32417,_ZNK5neml212VariableBase12is_dependentEv
FNDA:4241,_ZN5neml212VariableBase5cacheEN3c108ArrayRefIlEE
FNDA:827,_ZN5neml212VariableBase1dERKS0_S2_
FNDA:2212,_ZN5neml212VariableBaseC2ERKNS_19LabeledAxisAccessorEPKNS_5ModelE
FNDA:60669,_ZN5neml212VariableBase11setup_viewsEPKS0_
FNDA:23077,_ZN5neml210DerivativeaSERKNS_6TensorE
FNF:8
FNH:8
DA:30,2212
DA:31,2212
DA:32,2212
DA:33,2212
DA:34,2212
DA:35,2212
DA:36,2212
DA:37,2212
DA:38,2212
DA:39,2212
DA:40,2690
DA:41,478
DA:42,4424
DA:44,2212
DA:47,4241
DA:49,4241
DA:50,4241
DA:53,22095
DA:57,22095
DA:58,22095
DA:60,22095
DA:61,83328
DA:62,221120
DA:64,22095
DA:65,5204
DA:66,13306
DA:67,45112
DA:68,22095
DA:71,60669
DA:73,60669
DA:75,60669
DA:76,26067
DA:79,34602
DA:80,34602
DA:82,60669
DA:85,32417
DA:87,32417
DA:91,22485
DA:93,22485
DA:95,22485
DA:97,22485
DA:99,22485
DA:100,22485
DA:103,22485
DA:105,22485
DA:107,22485
DA:111,827
DA:113,827
DA:115,827
DA:117,827
DA:118,827
DA:120,827
DA:122,827
DA:124,827
DA:126,827
DA:127,827
DA:130,827
DA:132,827
DA:134,827
DA:136,827
DA:140,23077
DA:142,46154
DA:143,46154
DA:144,23077
LF:64
LH:64
end_of_record
TN:
SF:/home/runner/work/neml2/neml2/src/neml2/tensors/Vec.cxx
FN:32,_ZN5neml23VecC2ERKNS_3RotE
FN:38,_ZN5neml23Vec12identity_mapERKN3c1013TensorOptionsE
FN:44,_ZNK5neml23Vec9transformERKNS_2R2E
FNDA:1298,_ZN5neml23VecC2ERKNS_3RotE
FNDA:1,_ZN5neml23Vec12identity_mapERKN3c1013TensorOptionsE
FNDA:8,_ZNK5neml23Vec9transformERKNS_2R2E
FNF:3
FNH:3
DA:32,1298
DA:33,1298
DA:35,1298
DA:38,1
DA:40,1
DA:44,8
DA:46,8
LF:7
LH:7
end_of_record
TN:
SF:/home/runner/work/neml2/neml2/src/neml2/tensors/VecBase.cxx
FN:33,_ZN5neml27VecBaseINS_3RotEE4fillERKdS4_S4_RKN3c1013TensorOptionsE
FN:33,_ZN5neml27VecBaseINS_3WR2EE4fillERKdS4_S4_RKN3c1013TensorOptionsE
FN:33,_ZN5neml27VecBaseINS_3VecEE4fillERKdS4_S4_RKN3c1013TensorOptionsE
FN:43,_ZN5neml27VecBaseINS_3VecEE4fillERKNS_6ScalarES5_S5_
FN:43,_ZN5neml27VecBaseINS_3RotEE4fillERKNS_6ScalarES5_S5_
FN:43,_ZN5neml27VecBaseINS_3WR2EE4fillERKNS_6ScalarES5_S5_
FN:50,_ZN5neml27VecBaseINS_3WR2EE12identity_mapERKN3c1013TensorOptionsE
FN:50,_ZN5neml27VecBaseINS_3VecEE12identity_mapERKN3c1013TensorOptionsE
FN:50,_ZN5neml27VecBaseINS_3RotEE12identity_mapERKN3c1013TensorOptionsE
FN:57,_ZNK5neml27VecBaseINS_3RotEEclEl
FN:57,_ZNK5neml27VecBaseINS_3VecEEclEl
FN:57,_ZNK5neml27VecBaseINS_3WR2EEclEl
FN:64,_ZNK5neml27VecBaseINS_3VecEE7norm_sqEv
FN:64,_ZNK5neml27VecBaseINS_3RotEE7norm_sqEv
FN:64,_ZNK5neml27VecBaseINS_3WR2EE7norm_sqEv
FN:71,_ZNK5neml27VecBaseINS_3RotEE4normEv
FN:71,_ZNK5neml27VecBaseINS_3VecEE4normEv
FN:71,_ZNK5neml27VecBaseINS_3WR2EE4normEv
FN:78,_ZNK5neml27VecBaseINS_3WR2EE6rotateERKNS_3RotE
FN:78,_ZNK5neml27VecBaseINS_3VecEE6rotateERKNS_3RotE
FN:78,_ZNK5neml27VecBaseINS_3RotEE6rotateERKS1_
FN:85,_ZNK5neml27VecBaseINS_3RotEE6rotateERKNS_2R2E
FN:85,_ZNK5neml27VecBaseINS_3WR2EE6rotateERKNS_2R2E
FN:85,_ZNK5neml27VecBaseINS_3VecEE6rotateERKNS_2R2E
FN:92,_ZNK5neml27VecBaseINS_3WR2EE7drotateERKNS_3RotE
FN:92,_ZNK5neml27VecBaseINS_3VecEE7drotateERKNS_3RotE
FN:92,_ZNK5neml27VecBaseINS_3RotEE7drotateERKS1_
FN:99,_ZNK5neml27VecBaseINS_3VecEE7drotateERKNS_2R2E
FN:99,_ZNK5neml27VecBaseINS_3WR2EE7drotateERKNS_2R2E
FN:99,_ZNK5neml27VecBaseINS_3RotEE7drotateERKNS_2R2E
FNDA:39,_ZN5neml27VecBaseINS_3VecEE4fillERKdS4_S4_RKN3c1013TensorOptionsE
FNDA:455,_ZNK5neml27VecBaseINS_3WR2EE7norm_sqEv
FNDA:0,_ZNK5neml27VecBaseINS_3RotEE7drotateERKNS_2R2E
FNDA:37,_ZN5neml27VecBaseINS_3WR2EE4fillERKNS_6ScalarES5_S5_
FNDA:0,_ZNK5neml27VecBaseINS_3RotEE7drotateERKS1_
FNDA:2,_ZNK5neml27VecBaseINS_3WR2EE7drotateERKNS_3RotE
FNDA:0,_ZNK5neml27VecBaseINS_3WR2EE4normEv
FNDA:4,_ZNK5neml27VecBaseINS_3VecEE7drotateERKNS_3RotE
FNDA:0,_ZNK5neml27VecBaseINS_3RotEE6rotateERKS1_
FNDA:69,_ZNK5neml27VecBaseINS_3WR2EE7drotateERKNS_2R2E
FNDA:1529,_ZNK5neml27VecBaseINS_3VecEE4normEv
FNDA:13,_ZNK5neml27VecBaseINS_3VecEE6rotateERKNS_2R2E
FNDA:0,_ZN5neml27VecBaseINS_3RotEE12identity_mapERKN3c1013TensorOptionsE
FNDA:403,_ZNK5neml27VecBaseINS_3WR2EE6rotateERKNS_2R2E
FNDA:26,_ZN5neml27VecBaseINS_3WR2EE4fillERKdS4_S4_RKN3c1013TensorOptionsE
FNDA:106,_ZN5neml27VecBaseINS_3RotEE4fillERKNS_6ScalarES5_S5_
FNDA:0,_ZNK5neml27VecBaseINS_3RotEE6rotateERKNS_2R2E
FNDA:0,_ZN5neml27VecBaseINS_3VecEE12identity_mapERKN3c1013TensorOptionsE
FNDA:90,_ZN5neml27VecBaseINS_3RotEE4fillERKdS4_S4_RKN3c1013TensorOptionsE
FNDA:13,_ZNK5neml27VecBaseINS_3VecEE6rotateERKNS_3RotE
FNDA:1,_ZN5neml27VecBaseINS_3WR2EE12identity_mapERKN3c1013TensorOptionsE
FNDA:41,_ZN5neml27VecBaseINS_3VecEE4fillERKNS_6ScalarES5_S5_
FNDA:0,_ZNK5neml27VecBaseINS_3VecEE7drotateERKNS_2R2E
FNDA:0,_ZNK5neml27VecBaseINS_3WR2EEclEl
FNDA:9082,_ZNK5neml27VecBaseINS_3VecEEclEl
FNDA:2394,_ZNK5neml27VecBaseINS_3RotEE7norm_sqEv
FNDA:6,_ZNK5neml27VecBaseINS_3WR2EE6rotateERKNS_3RotE
FNDA:5,_ZNK5neml27VecBaseINS_3RotEE4normEv
FNDA:0,_ZNK5neml27VecBaseINS_3RotEEclEl
FNDA:2,_ZNK5neml27VecBaseINS_3VecEE7norm_sqEv
FNF:30
FNH:20
DA:33,155
DA:38,310
DA:43,184
DA:45,736
DA:50,1
DA:52,1
DA:57,9082
DA:59,18164
DA:64,2851
DA:66,2851
DA:71,1534
DA:73,1534
DA:78,19
DA:80,19
DA:85,416
DA:87,429
DA:92,6
DA:94,18
DA:99,69
DA:101,69
DA:102,276
DA:103,69
LF:22
LH:22
end_of_record
TN:
SF:/home/runner/work/neml2/neml2/src/neml2/tensors/WR2.cxx
FN:37,_ZN5neml23WR2C2ERKNS_2R2E
FN:43,_ZNK5neml23WR2clEll
FN:50,_ZNK5neml23WR23expEv
FN:76,_ZNK5neml23WR24dexpEv
FNDA:380,_ZNK5neml23WR23expEv
FNDA:75,_ZNK5neml23WR24dexpEv
FNDA:407,_ZN5neml23WR2C2ERKNS_2R2E
FNDA:9,_ZNK5neml23WR2clEll
FNF:4
FNH:4
DA:37,407
DA:38,407
DA:40,407
DA:43,9
DA:45,9
DA:46,27
DA:50,380
DA:60,380
DA:63,380
DA:66,760
DA:69,760
DA:70,1140
DA:72,1140
DA:73,380
DA:76,75
DA:79,75
DA:80,75
DA:82,150
DA:83,225
DA:85,150
DA:87,150
DA:88,150
DA:89,150
DA:90,225
DA:92,150
DA:94,225
DA:95,75
LF:27
LH:27
end_of_record
TN:
SF:/home/runner/work/neml2/neml2/src/neml2/tensors/WSR4.cxx
FN:32,_ZN5neml24WSR4C2ERKNS_2R4E
FNDA:132,_ZN5neml24WSR4C2ERKNS_2R4E
FNF:1
FNH:1
DA:32,132
DA:33,132
DA:35,132
LF:3
LH:3
end_of_record
TN:
SF:/home/runner/work/neml2/neml2/src/neml2/tensors/WWR4.cxx
FN:32,_ZN5neml24WWR4C2ERKNS_2R4E
FN:39,_ZN5neml24WWR48identityERKN3c1013TensorOptionsE
FNDA:2,_ZN5neml24WWR4C2ERKNS_2R4E
FNDA:66,_ZN5neml24WWR48identityERKN3c1013TensorOptionsE
FNF:2
FNH:2
DA:32,2
DA:33,4
DA:34,6
DA:36,2
DA:39,66
DA:41,132
LF:6
LH:6
end_of_record
TN:
SF:/home/runner/work/neml2/neml2/src/neml2/tensors/tensors.cxx
FN:30,_ZN5neml2lsERSoRKNS_10TensorTypeE
FNDA:10,_ZN5neml2lsERSoRKNS_10TensorTypeE
FNF:1
FNH:1
DA:30,10
DA:37,10
DA:38,0
DA:39,10
LF:4
LH:3
end_of_record
TN:
SF:/home/runner/work/neml2/neml2/src/neml2/tensors/user_tensors/EmptyPrimitiveTensor.cxx
FN:34,_ZN5neml220EmptyPrimitiveTensorINS_4WWR4EE16expected_optionsEv
FN:34,_ZN5neml220EmptyPrimitiveTensorINS_3SR2EE16expected_optionsEv
FN:34,_ZN5neml220EmptyPrimitiveTensorINS_2R4EE16expected_optionsEv
FN:34,_ZN5neml220EmptyPrimitiveTensorINS_4SFR3EE16expected_optionsEv
FN:34,_ZN5neml220EmptyPrimitiveTensorINS_3RotEE16expected_optionsEv
FN:34,_ZN5neml220EmptyPrimitiveTensorINS_2R3EE16expected_optionsEv
FN:34,_ZN5neml220EmptyPrimitiveTensorINS_11MillerIndexEE16expected_optionsEv
FN:34,_ZN5neml220EmptyPrimitiveTensorINS_5SFFR4EE16expected_optionsEv
FN:34,_ZN5neml220EmptyPrimitiveTensorINS_6ScalarEE16expected_optionsEv
FN:34,_ZN5neml220EmptyPrimitiveTensorINS_3WR2EE16expected_optionsEv
FN:34,_ZN5neml220EmptyPrimitiveTensorINS_10QuaternionEE16expected_optionsEv
FN:34,_ZN5neml220EmptyPrimitiveTensorINS_4SSR4EE16expected_optionsEv
FN:34,_ZN5neml220EmptyPrimitiveTensorINS_5SSFR5EE16expected_optionsEv
FN:34,_ZN5neml220EmptyPrimitiveTensorINS_4WSR4EE16expected_optionsEv
FN:34,_ZN5neml220EmptyPrimitiveTensorINS_3VecEE16expected_optionsEv
FN:34,_ZN5neml220EmptyPrimitiveTensorINS_2R8EE16expected_optionsEv
FN:34,_ZN5neml220EmptyPrimitiveTensorINS_2R5EE16expected_optionsEv
FN:34,_ZN5neml220EmptyPrimitiveTensorINS_6SSSSR8EE16expected_optionsEv
FN:34,_ZN5neml220EmptyPrimitiveTensorINS_2R2EE16expected_optionsEv
FN:34,_ZN5neml220EmptyPrimitiveTensorINS_4SWR4EE16expected_optionsEv
FN:51,_ZN5neml220EmptyPrimitiveTensorINS_3RotEEC2ERKNS_9OptionSetE
FN:51,_ZN5neml220EmptyPrimitiveTensorINS_3WR2EEC2ERKNS_9OptionSetE
FN:51,_ZN5neml220EmptyPrimitiveTensorINS_2R3EEC2ERKNS_9OptionSetE
FN:51,_ZN5neml220EmptyPrimitiveTensorINS_5SSFR5EEC2ERKNS_9OptionSetE
FN:51,_ZN5neml220EmptyPrimitiveTensorINS_2R2EEC2ERKNS_9OptionSetE
FN:51,_ZN5neml220EmptyPrimitiveTensorINS_2R8EEC2ERKNS_9OptionSetE
FN:51,_ZN5neml220EmptyPrimitiveTensorINS_4WWR4EEC2ERKNS_9OptionSetE
FN:51,_ZN5neml220EmptyPrimitiveTensorINS_4SWR4EEC2ERKNS_9OptionSetE
FN:51,_ZN5neml220EmptyPrimitiveTensorINS_4WSR4EEC2ERKNS_9OptionSetE
FN:51,_ZN5neml220EmptyPrimitiveTensorINS_10QuaternionEEC2ERKNS_9OptionSetE
FN:51,_ZN5neml220EmptyPrimitiveTensorINS_4SSR4EEC2ERKNS_9OptionSetE
FN:51,_ZN5neml220EmptyPrimitiveTensorINS_11MillerIndexEEC2ERKNS_9OptionSetE
FN:51,_ZN5neml220EmptyPrimitiveTensorINS_5SFFR4EEC2ERKNS_9OptionSetE
FN:51,_ZN5neml220EmptyPrimitiveTensorINS_2R5EEC2ERKNS_9OptionSetE
FN:51,_ZN5neml220EmptyPrimitiveTensorINS_3SR2EEC2ERKNS_9OptionSetE
FN:51,_ZN5neml220EmptyPrimitiveTensorINS_3VecEEC2ERKNS_9OptionSetE
FN:51,_ZN5neml220EmptyPrimitiveTensorINS_6ScalarEEC2ERKNS_9OptionSetE
FN:51,_ZN5neml220EmptyPrimitiveTensorINS_2R4EEC2ERKNS_9OptionSetE
FN:51,_ZN5neml220EmptyPrimitiveTensorINS_6SSSSR8EEC2ERKNS_9OptionSetE
FN:51,_ZN5neml220EmptyPrimitiveTensorINS_4SFR3EEC2ERKNS_9OptionSetE
FNDA:1,_ZN5neml220EmptyPrimitiveTensorINS_3VecEEC2ERKNS_9OptionSetE
FNDA:6,_ZN5neml220EmptyPrimitiveTensorINS_4SSR4EE16expected_optionsEv
FNDA:1,_ZN5neml220EmptyPrimitiveTensorINS_3SR2EEC2ERKNS_9OptionSetE
FNDA:1,_ZN5neml220EmptyPrimitiveTensorINS_2R5EEC2ERKNS_9OptionSetE
FNDA:6,_ZN5neml220EmptyPrimitiveTensorINS_3WR2EE16expected_optionsEv
FNDA:6,_ZN5neml220EmptyPrimitiveTensorINS_10QuaternionEE16expected_optionsEv
FNDA:6,_ZN5neml220EmptyPrimitiveTensorINS_6SSSSR8EE16expected_optionsEv
FNDA:1,_ZN5neml220EmptyPrimitiveTensorINS_4SFR3EEC2ERKNS_9OptionSetE
FNDA:0,_ZN5neml220EmptyPrimitiveTensorINS_6SSSSR8EEC2ERKNS_9OptionSetE
FNDA:6,_ZN5neml220EmptyPrimitiveTensorINS_4SWR4EE16expected_optionsEv
FNDA:6,_ZN5neml220EmptyPrimitiveTensorINS_2R2EE16expected_optionsEv
FNDA:6,_ZN5neml220EmptyPrimitiveTensorINS_3VecEE16expected_optionsEv
FNDA:1,_ZN5neml220EmptyPrimitiveTensorINS_2R4EEC2ERKNS_9OptionSetE
FNDA:6,_ZN5neml220EmptyPrimitiveTensorINS_5SSFR5EE16expected_optionsEv
FNDA:6,_ZN5neml220EmptyPrimitiveTensorINS_4WSR4EE16expected_optionsEv
FNDA:1,_ZN5neml220EmptyPrimitiveTensorINS_6ScalarEEC2ERKNS_9OptionSetE
FNDA:6,_ZN5neml220EmptyPrimitiveTensorINS_2R5EE16expected_optionsEv
FNDA:6,_ZN5neml220EmptyPrimitiveTensorINS_2R8EE16expected_optionsEv
FNDA:1,_ZN5neml220EmptyPrimitiveTensorINS_2R2EEC2ERKNS_9OptionSetE
FNDA:1,_ZN5neml220EmptyPrimitiveTensorINS_5SSFR5EEC2ERKNS_9OptionSetE
FNDA:6,_ZN5neml220EmptyPrimitiveTensorINS_11MillerIndexEE16expected_optionsEv
FNDA:6,_ZN5neml220EmptyPrimitiveTensorINS_2R3EE16expected_optionsEv
FNDA:6,_ZN5neml220EmptyPrimitiveTensorINS_3RotEE16expected_optionsEv
FNDA:1,_ZN5neml220EmptyPrimitiveTensorINS_2R3EEC2ERKNS_9OptionSetE
FNDA:0,_ZN5neml220EmptyPrimitiveTensorINS_4WWR4EEC2ERKNS_9OptionSetE
FNDA:0,_ZN5neml220EmptyPrimitiveTensorINS_2R8EEC2ERKNS_9OptionSetE
FNDA:6,_ZN5neml220EmptyPrimitiveTensorINS_2R4EE16expected_optionsEv
FNDA:6,_ZN5neml220EmptyPrimitiveTensorINS_3SR2EE16expected_optionsEv
FNDA:1,_ZN5neml220EmptyPrimitiveTensorINS_3RotEEC2ERKNS_9OptionSetE
FNDA:6,_ZN5neml220EmptyPrimitiveTensorINS_4WWR4EE16expected_optionsEv
FNDA:0,_ZN5neml220EmptyPrimitiveTensorINS_3WR2EEC2ERKNS_9OptionSetE
FNDA:6,_ZN5neml220EmptyPrimitiveTensorINS_4SFR3EE16expected_optionsEv
FNDA:0,_ZN5neml220EmptyPrimitiveTensorINS_5SFFR4EEC2ERKNS_9OptionSetE
FNDA:6,_ZN5neml220EmptyPrimitiveTensorINS_6ScalarEE16expected_optionsEv
FNDA:1,_ZN5neml220EmptyPrimitiveTensorINS_4SSR4EEC2ERKNS_9OptionSetE
FNDA:0,_ZN5neml220EmptyPrimitiveTensorINS_11MillerIndexEEC2ERKNS_9OptionSetE
FNDA:0,_ZN5neml220EmptyPrimitiveTensorINS_10QuaternionEEC2ERKNS_9OptionSetE
FNDA:0,_ZN5neml220EmptyPrimitiveTensorINS_4WSR4EEC2ERKNS_9OptionSetE
FNDA:0,_ZN5neml220EmptyPrimitiveTensorINS_4SWR4EEC2ERKNS_9OptionSetE
FNDA:6,_ZN5neml220EmptyPrimitiveTensorINS_5SFFR4EE16expected_optionsEv
FNF:40
FNH:31
DA:34,120
DA:38,120
DA:40,120
DA:41,120
DA:44,120
DA:45,120
DA:47,240
DA:48,120
DA:51,11
DA:52,11
DA:53,11
DA:55,11
LF:12
LH:12
end_of_record
TN:
SF:/home/runner/work/neml2/neml2/src/neml2/tensors/user_tensors/EmptyTensor.cxx
FN:32,_ZN5neml211EmptyTensor16expected_optionsEv
FN:47,_ZN5neml211EmptyTensorC2ERKNS_9OptionSetE
FNDA:6,_ZN5neml211EmptyTensor16expected_optionsEv
FNDA:1,_ZN5neml211EmptyTensorC2ERKNS_9OptionSetE
FNF:2
FNH:2
DA:32,6
DA:34,6
DA:35,6
DA:36,6
DA:38,6
DA:39,6
DA:41,6
DA:42,6
DA:44,6
DA:45,0
DA:47,1
DA:50,1
DA:51,1
DA:53,1
LF:14
LH:13
end_of_record
TN:
SF:/home/runner/work/neml2/neml2/src/neml2/tensors/user_tensors/FillR2.cxx
FN:32,_ZN5neml26FillR216expected_optionsEv
FN:48,_ZN5neml26FillR2C2ERKNS_9OptionSetE
FN:55,_ZNK5neml26FillR24fillERKSt6vectorINS_8CrossRefINS_6ScalarEEESaIS4_EE
FNDA:4,_ZN5neml26FillR2C2ERKNS_9OptionSetE
FNDA:4,_ZNK5neml26FillR24fillERKSt6vectorINS_8CrossRefINS_6ScalarEEESaIS4_EE
FNDA:6,_ZN5neml26FillR216expected_optionsEv
FNF:3
FNH:3
DA:32,6
DA:34,6
DA:35,6
DA:40,6
DA:42,6
DA:43,6
DA:45,6
DA:46,0
DA:48,4
DA:50,4
DA:52,4
DA:55,4
DA:57,4
DA:58,1
DA:59,3
DA:60,1
DA:61,2
DA:62,1
DA:63,1
DA:64,1
DA:65,1
DA:66,1
DA:67,1
DA:68,1
DA:69,1
DA:70,1
DA:71,1
DA:72,9
DA:74,0
DA:76,0
DA:79,0
LF:31
LH:27
end_of_record
TN:
SF:/home/runner/work/neml2/neml2/src/neml2/tensors/user_tensors/FillRot.cxx
FN:32,_ZN5neml27FillRot16expected_optionsEv
FN:46,_ZN5neml27FillRotC2ERKNS_9OptionSetE
FN:54,_ZNK5neml27FillRot4fillERKSt6vectorINS_8CrossRefINS_6ScalarEEESaIS4_EERKSs
FNDA:6,_ZN5neml27FillRot16expected_optionsEv
FNDA:16,_ZN5neml27FillRotC2ERKNS_9OptionSetE
FNDA:16,_ZNK5neml27FillRot4fillERKSt6vectorINS_8CrossRefINS_6ScalarEEESaIS4_EERKSs
FNF:3
FNH:3
DA:32,6
DA:34,6
DA:35,6
DA:37,6
DA:38,6
DA:40,6
DA:41,6
DA:43,6
DA:44,0
DA:46,16
DA:48,32
DA:49,32
DA:51,16
DA:54,16
DA:56,16
DA:58,15
DA:60,15
DA:62,15
DA:65,1
DA:67,1
DA:69,1
DA:71,2
DA:72,2
DA:73,3
DA:74,1
DA:75,1
DA:77,0
LF:27
LH:25
end_of_record
TN:
SF:/home/runner/work/neml2/neml2/src/neml2/tensors/user_tensors/FillSR2.cxx
FN:32,_ZN5neml27FillSR216expected_optionsEv
FN:48,_ZN5neml27FillSR2C2ERKNS_9OptionSetE
FN:55,_ZNK5neml27FillSR24fillERKSt6vectorINS_8CrossRefINS_6ScalarEEESaIS4_EE
FNDA:6,_ZN5neml27FillSR216expected_optionsEv
FNDA:120,_ZN5neml27FillSR2C2ERKNS_9OptionSetE
FNDA:120,_ZNK5neml27FillSR24fillERKSt6vectorINS_8CrossRefINS_6ScalarEEESaIS4_EE
FNF:3
FNH:3
DA:32,6
DA:34,6
DA:35,6
DA:40,6
DA:42,6
DA:43,6
DA:45,6
DA:46,0
DA:48,120
DA:50,120
DA:52,120
DA:55,120
DA:57,120
DA:58,21
DA:59,99
DA:60,26
DA:61,73
DA:62,73
DA:64,0
DA:65,0
DA:67,0
LF:21
LH:17
end_of_record
TN:
SF:/home/runner/work/neml2/neml2/src/neml2/tensors/user_tensors/FillWR2.cxx
FN:32,_ZN5neml27FillWR216expected_optionsEv
FN:43,_ZN5neml27FillWR2C2ERKNS_9OptionSetE
FN:50,_ZNK5neml27FillWR24fillERKSt6vectorINS_8CrossRefINS_6ScalarEEESaIS4_EE
FNDA:9,_ZNK5neml27FillWR24fillERKSt6vectorINS_8CrossRefINS_6ScalarEEESaIS4_EE
FNDA:6,_ZN5neml27FillWR216expected_optionsEv
FNDA:9,_ZN5neml27FillWR2C2ERKNS_9OptionSetE
FNF:3
FNH:3
DA:32,6
DA:34,6
DA:35,6
DA:37,6
DA:38,6
DA:40,6
DA:41,0
DA:43,9
DA:45,9
DA:47,9
DA:50,9
DA:52,9
DA:54,9
DA:57,9
LF:14
LH:13
end_of_record
TN:
SF:/home/runner/work/neml2/neml2/src/neml2/tensors/user_tensors/FullPrimitiveTensor.cxx
FN:34,_ZN5neml219FullPrimitiveTensorINS_3WR2EE16expected_optionsEv
FN:34,_ZN5neml219FullPrimitiveTensorINS_4WSR4EE16expected_optionsEv
FN:34,_ZN5neml219FullPrimitiveTensorINS_2R3EE16expected_optionsEv
FN:34,_ZN5neml219FullPrimitiveTensorINS_10QuaternionEE16expected_optionsEv
FN:34,_ZN5neml219FullPrimitiveTensorINS_4SWR4EE16expected_optionsEv
FN:34,_ZN5neml219FullPrimitiveTensorINS_4WWR4EE16expected_optionsEv
FN:34,_ZN5neml219FullPrimitiveTensorINS_2R8EE16expected_optionsEv
FN:34,_ZN5neml219FullPrimitiveTensorINS_2R5EE16expected_optionsEv
FN:34,_ZN5neml219FullPrimitiveTensorINS_6ScalarEE16expected_optionsEv
FN:34,_ZN5neml219FullPrimitiveTensorINS_5SSFR5EE16expected_optionsEv
FN:34,_ZN5neml219FullPrimitiveTensorINS_2R2EE16expected_optionsEv
FN:34,_ZN5neml219FullPrimitiveTensorINS_11MillerIndexEE16expected_optionsEv
FN:34,_ZN5neml219FullPrimitiveTensorINS_4SFR3EE16expected_optionsEv
FN:34,_ZN5neml219FullPrimitiveTensorINS_4SSR4EE16expected_optionsEv
FN:34,_ZN5neml219FullPrimitiveTensorINS_2R4EE16expected_optionsEv
FN:34,_ZN5neml219FullPrimitiveTensorINS_6SSSSR8EE16expected_optionsEv
FN:34,_ZN5neml219FullPrimitiveTensorINS_3SR2EE16expected_optionsEv
FN:34,_ZN5neml219FullPrimitiveTensorINS_3VecEE16expected_optionsEv
FN:34,_ZN5neml219FullPrimitiveTensorINS_3RotEE16expected_optionsEv
FN:34,_ZN5neml219FullPrimitiveTensorINS_5SFFR4EE16expected_optionsEv
FN:54,_ZN5neml219FullPrimitiveTensorINS_4SFR3EEC2ERKNS_9OptionSetE
FN:54,_ZN5neml219FullPrimitiveTensorINS_6ScalarEEC2ERKNS_9OptionSetE
FN:54,_ZN5neml219FullPrimitiveTensorINS_2R5EEC2ERKNS_9OptionSetE
FN:54,_ZN5neml219FullPrimitiveTensorINS_10QuaternionEEC2ERKNS_9OptionSetE
FN:54,_ZN5neml219FullPrimitiveTensorINS_11MillerIndexEEC2ERKNS_9OptionSetE
FN:54,_ZN5neml219FullPrimitiveTensorINS_2R4EEC2ERKNS_9OptionSetE
FN:54,_ZN5neml219FullPrimitiveTensorINS_6SSSSR8EEC2ERKNS_9OptionSetE
FN:54,_ZN5neml219FullPrimitiveTensorINS_4WSR4EEC2ERKNS_9OptionSetE
FN:54,_ZN5neml219FullPrimitiveTensorINS_2R2EEC2ERKNS_9OptionSetE
FN:54,_ZN5neml219FullPrimitiveTensorINS_3SR2EEC2ERKNS_9OptionSetE
FN:54,_ZN5neml219FullPrimitiveTensorINS_2R8EEC2ERKNS_9OptionSetE
FN:54,_ZN5neml219FullPrimitiveTensorINS_3VecEEC2ERKNS_9OptionSetE
FN:54,_ZN5neml219FullPrimitiveTensorINS_2R3EEC2ERKNS_9OptionSetE
FN:54,_ZN5neml219FullPrimitiveTensorINS_5SFFR4EEC2ERKNS_9OptionSetE
FN:54,_ZN5neml219FullPrimitiveTensorINS_4WWR4EEC2ERKNS_9OptionSetE
FN:54,_ZN5neml219FullPrimitiveTensorINS_5SSFR5EEC2ERKNS_9OptionSetE
FN:54,_ZN5neml219FullPrimitiveTensorINS_4SSR4EEC2ERKNS_9OptionSetE
FN:54,_ZN5neml219FullPrimitiveTensorINS_3WR2EEC2ERKNS_9OptionSetE
FN:54,_ZN5neml219FullPrimitiveTensorINS_3RotEEC2ERKNS_9OptionSetE
FN:54,_ZN5neml219FullPrimitiveTensorINS_4SWR4EEC2ERKNS_9OptionSetE
FNDA:9,_ZN5neml219FullPrimitiveTensorINS_2R3EEC2ERKNS_9OptionSetE
FNDA:6,_ZN5neml219FullPrimitiveTensorINS_3RotEE16expected_optionsEv
FNDA:9,_ZN5neml219FullPrimitiveTensorINS_5SSFR5EEC2ERKNS_9OptionSetE
FNDA:0,_ZN5neml219FullPrimitiveTensorINS_5SFFR4EEC2ERKNS_9OptionSetE
FNDA:0,_ZN5neml219FullPrimitiveTensorINS_4WWR4EEC2ERKNS_9OptionSetE
FNDA:6,_ZN5neml219FullPrimitiveTensorINS_5SFFR4EE16expected_optionsEv
FNDA:9,_ZN5neml219FullPrimitiveTensorINS_4SSR4EEC2ERKNS_9OptionSetE
FNDA:0,_ZN5neml219FullPrimitiveTensorINS_3WR2EEC2ERKNS_9OptionSetE
FNDA:0,_ZN5neml219FullPrimitiveTensorINS_4SWR4EEC2ERKNS_9OptionSetE
FNDA:9,_ZN5neml219FullPrimitiveTensorINS_3RotEEC2ERKNS_9OptionSetE
FNDA:6,_ZN5neml219FullPrimitiveTensorINS_3WR2EE16expected_optionsEv
FNDA:9,_ZN5neml219FullPrimitiveTensorINS_4SFR3EEC2ERKNS_9OptionSetE
FNDA:6,_ZN5neml219FullPrimitiveTensorINS_4WWR4EE16expected_optionsEv
FNDA:6,_ZN5neml219FullPrimitiveTensorINS_4SWR4EE16expected_optionsEv
FNDA:6,_ZN5neml219FullPrimitiveTensorINS_2R3EE16expected_optionsEv
FNDA:6,_ZN5neml219FullPrimitiveTensorINS_4WSR4EE16expected_optionsEv
FNDA:6,_ZN5neml219FullPrimitiveTensorINS_10QuaternionEE16expected_optionsEv
FNDA:6,_ZN5neml219FullPrimitiveTensorINS_6ScalarEE16expected_optionsEv
FNDA:6,_ZN5neml219FullPrimitiveTensorINS_2R5EE16expected_optionsEv
FNDA:9,_ZN5neml219FullPrimitiveTensorINS_2R5EEC2ERKNS_9OptionSetE
FNDA:0,_ZN5neml219FullPrimitiveTensorINS_10QuaternionEEC2ERKNS_9OptionSetE
FNDA:6,_ZN5neml219FullPrimitiveTensorINS_2R8EE16expected_optionsEv
FNDA:83,_ZN5neml219FullPrimitiveTensorINS_6ScalarEEC2ERKNS_9OptionSetE
FNDA:6,_ZN5neml219FullPrimitiveTensorINS_11MillerIndexEE16expected_optionsEv
FNDA:6,_ZN5neml219FullPrimitiveTensorINS_4SFR3EE16expected_optionsEv
FNDA:6,_ZN5neml219FullPrimitiveTensorINS_4SSR4EE16expected_optionsEv
FNDA:6,_ZN5neml219FullPrimitiveTensorINS_5SSFR5EE16expected_optionsEv
FNDA:0,_ZN5neml219FullPrimitiveTensorINS_11MillerIndexEEC2ERKNS_9OptionSetE
FNDA:6,_ZN5neml219FullPrimitiveTensorINS_2R2EE16expected_optionsEv
FNDA:0,_ZN5neml219FullPrimitiveTensorINS_6SSSSR8EEC2ERKNS_9OptionSetE
FNDA:9,_ZN5neml219FullPrimitiveTensorINS_2R4EEC2ERKNS_9OptionSetE
FNDA:6,_ZN5neml219FullPrimitiveTensorINS_2R4EE16expected_optionsEv
FNDA:0,_ZN5neml219FullPrimitiveTensorINS_4WSR4EEC2ERKNS_9OptionSetE
FNDA:9,_ZN5neml219FullPrimitiveTensorINS_2R2EEC2ERKNS_9OptionSetE
FNDA:6,_ZN5neml219FullPrimitiveTensorINS_3SR2EE16expected_optionsEv
FNDA:0,_ZN5neml219FullPrimitiveTensorINS_2R8EEC2ERKNS_9OptionSetE
FNDA:9,_ZN5neml219FullPrimitiveTensorINS_3SR2EEC2ERKNS_9OptionSetE
FNDA:6,_ZN5neml219FullPrimitiveTensorINS_6SSSSR8EE16expected_optionsEv
FNDA:9,_ZN5neml219FullPrimitiveTensorINS_3VecEEC2ERKNS_9OptionSetE
FNDA:6,_ZN5neml219FullPrimitiveTensorINS_3VecEE16expected_optionsEv
FNF:40
FNH:31
DA:34,120
DA:38,120
DA:40,120
DA:41,120
DA:44,120
DA:45,120
DA:47,120
DA:48,120
DA:50,240
DA:51,120
DA:54,173
DA:56,346
DA:57,173
DA:58,346
DA:60,173
LF:15
LH:15
end_of_record
TN:
SF:/home/runner/work/neml2/neml2/src/neml2/tensors/user_tensors/FullTensor.cxx
FN:32,_ZN5neml210FullTensor16expected_optionsEv
FN:50,_ZN5neml210FullTensorC2ERKNS_9OptionSetE
FNDA:6,_ZN5neml210FullTensor16expected_optionsEv
FNDA:9,_ZN5neml210FullTensorC2ERKNS_9OptionSetE
FNF:2
FNH:2
DA:32,6
DA:34,6
DA:35,6
DA:36,6
DA:38,6
DA:39,6
DA:41,6
DA:42,6
DA:44,6
DA:45,6
DA:47,6
DA:48,0
DA:50,9
DA:53,18
DA:54,9
DA:55,18
DA:57,9
LF:17
LH:16
end_of_record
TN:
SF:/home/runner/work/neml2/neml2/src/neml2/tensors/user_tensors/IdentityTensor.cxx
FN:32,_ZN5neml214IdentityTensor16expected_optionsEv
FN:47,_ZN5neml214IdentityTensorC2ERKNS_9OptionSetE
FNDA:6,_ZN5neml214IdentityTensor16expected_optionsEv
FNDA:1,_ZN5neml214IdentityTensorC2ERKNS_9OptionSetE
FNF:2
FNH:2
DA:32,6
DA:34,6
DA:35,6
DA:37,6
DA:38,6
DA:40,6
DA:41,12
DA:42,6
DA:44,6
DA:45,0
DA:47,1
DA:49,2
DA:50,2
DA:52,1
LF:14
LH:13
end_of_record
TN:
SF:/home/runner/work/neml2/neml2/src/neml2/tensors/user_tensors/LinspacePrimitiveTensor.cxx
FN:34,_ZN5neml223LinspacePrimitiveTensorINS_3SR2EE16expected_optionsEv
FN:34,_ZN5neml223LinspacePrimitiveTensorINS_4SFR3EE16expected_optionsEv
FN:34,_ZN5neml223LinspacePrimitiveTensorINS_2R2EE16expected_optionsEv
FN:34,_ZN5neml223LinspacePrimitiveTensorINS_6SSSSR8EE16expected_optionsEv
FN:34,_ZN5neml223LinspacePrimitiveTensorINS_4SWR4EE16expected_optionsEv
FN:34,_ZN5neml223LinspacePrimitiveTensorINS_11MillerIndexEE16expected_optionsEv
FN:34,_ZN5neml223LinspacePrimitiveTensorINS_4WWR4EE16expected_optionsEv
FN:34,_ZN5neml223LinspacePrimitiveTensorINS_3VecEE16expected_optionsEv
FN:34,_ZN5neml223LinspacePrimitiveTensorINS_3RotEE16expected_optionsEv
FN:34,_ZN5neml223LinspacePrimitiveTensorINS_2R8EE16expected_optionsEv
FN:34,_ZN5neml223LinspacePrimitiveTensorINS_2R4EE16expected_optionsEv
FN:34,_ZN5neml223LinspacePrimitiveTensorINS_2R3EE16expected_optionsEv
FN:34,_ZN5neml223LinspacePrimitiveTensorINS_4SSR4EE16expected_optionsEv
FN:34,_ZN5neml223LinspacePrimitiveTensorINS_2R5EE16expected_optionsEv
FN:34,_ZN5neml223LinspacePrimitiveTensorINS_10QuaternionEE16expected_optionsEv
FN:34,_ZN5neml223LinspacePrimitiveTensorINS_5SFFR4EE16expected_optionsEv
FN:34,_ZN5neml223LinspacePrimitiveTensorINS_5SSFR5EE16expected_optionsEv
FN:34,_ZN5neml223LinspacePrimitiveTensorINS_3WR2EE16expected_optionsEv
FN:34,_ZN5neml223LinspacePrimitiveTensorINS_6ScalarEE16expected_optionsEv
FN:34,_ZN5neml223LinspacePrimitiveTensorINS_4WSR4EE16expected_optionsEv
FN:64,_ZN5neml223LinspacePrimitiveTensorINS_5SFFR4EEC2ERKNS_9OptionSetE
FN:64,_ZN5neml223LinspacePrimitiveTensorINS_3WR2EEC2ERKNS_9OptionSetE
FN:64,_ZN5neml223LinspacePrimitiveTensorINS_2R4EEC2ERKNS_9OptionSetE
FN:64,_ZN5neml223LinspacePrimitiveTensorINS_3VecEEC2ERKNS_9OptionSetE
FN:64,_ZN5neml223LinspacePrimitiveTensorINS_2R8EEC2ERKNS_9OptionSetE
FN:64,_ZN5neml223LinspacePrimitiveTensorINS_4WWR4EEC2ERKNS_9OptionSetE
FN:64,_ZN5neml223LinspacePrimitiveTensorINS_4SWR4EEC2ERKNS_9OptionSetE
FN:64,_ZN5neml223LinspacePrimitiveTensorINS_3RotEEC2ERKNS_9OptionSetE
FN:64,_ZN5neml223LinspacePrimitiveTensorINS_5SSFR5EEC2ERKNS_9OptionSetE
FN:64,_ZN5neml223LinspacePrimitiveTensorINS_4SFR3EEC2ERKNS_9OptionSetE
FN:64,_ZN5neml223LinspacePrimitiveTensorINS_6ScalarEEC2ERKNS_9OptionSetE
FN:64,_ZN5neml223LinspacePrimitiveTensorINS_4SSR4EEC2ERKNS_9OptionSetE
FN:64,_ZN5neml223LinspacePrimitiveTensorINS_6SSSSR8EEC2ERKNS_9OptionSetE
FN:64,_ZN5neml223LinspacePrimitiveTensorINS_3SR2EEC2ERKNS_9OptionSetE
FN:64,_ZN5neml223LinspacePrimitiveTensorINS_11MillerIndexEEC2ERKNS_9OptionSetE
FN:64,_ZN5neml223LinspacePrimitiveTensorINS_2R2EEC2ERKNS_9OptionSetE
FN:64,_ZN5neml223LinspacePrimitiveTensorINS_2R3EEC2ERKNS_9OptionSetE
FN:64,_ZN5neml223LinspacePrimitiveTensorINS_4WSR4EEC2ERKNS_9OptionSetE
FN:64,_ZN5neml223LinspacePrimitiveTensorINS_10QuaternionEEC2ERKNS_9OptionSetE
FN:64,_ZN5neml223LinspacePrimitiveTensorINS_2R5EEC2ERKNS_9OptionSetE
FNDA:6,_ZN5neml223LinspacePrimitiveTensorINS_10QuaternionEE16expected_optionsEv
FNDA:0,_ZN5neml223LinspacePrimitiveTensorINS_4WSR4EEC2ERKNS_9OptionSetE
FNDA:1,_ZN5neml223LinspacePrimitiveTensorINS_2R3EEC2ERKNS_9OptionSetE
FNDA:6,_ZN5neml223LinspacePrimitiveTensorINS_5SFFR4EE16expected_optionsEv
FNDA:6,_ZN5neml223LinspacePrimitiveTensorINS_2R5EE16expected_optionsEv
FNDA:1,_ZN5neml223LinspacePrimitiveTensorINS_2R2EEC2ERKNS_9OptionSetE
FNDA:6,_ZN5neml223LinspacePrimitiveTensorINS_6ScalarEE16expected_optionsEv
FNDA:1,_ZN5neml223LinspacePrimitiveTensorINS_2R5EEC2ERKNS_9OptionSetE
FNDA:6,_ZN5neml223LinspacePrimitiveTensorINS_4WSR4EE16expected_optionsEv
FNDA:0,_ZN5neml223LinspacePrimitiveTensorINS_10QuaternionEEC2ERKNS_9OptionSetE
FNDA:6,_ZN5neml223LinspacePrimitiveTensorINS_5SSFR5EE16expected_optionsEv
FNDA:6,_ZN5neml223LinspacePrimitiveTensorINS_3WR2EE16expected_optionsEv
FNDA:6,_ZN5neml223LinspacePrimitiveTensorINS_11MillerIndexEE16expected_optionsEv
FNDA:6,_ZN5neml223LinspacePrimitiveTensorINS_4WWR4EE16expected_optionsEv
FNDA:6,_ZN5neml223LinspacePrimitiveTensorINS_3VecEE16expected_optionsEv
FNDA:6,_ZN5neml223LinspacePrimitiveTensorINS_3RotEE16expected_optionsEv
FNDA:6,_ZN5neml223LinspacePrimitiveTensorINS_2R8EE16expected_optionsEv
FNDA:16,_ZN5neml223LinspacePrimitiveTensorINS_3SR2EEC2ERKNS_9OptionSetE
FNDA:0,_ZN5neml223LinspacePrimitiveTensorINS_11MillerIndexEEC2ERKNS_9OptionSetE
FNDA:6,_ZN5neml223LinspacePrimitiveTensorINS_4SSR4EE16expected_optionsEv
FNDA:6,_ZN5neml223LinspacePrimitiveTensorINS_2R4EE16expected_optionsEv
FNDA:86,_ZN5neml223LinspacePrimitiveTensorINS_6ScalarEEC2ERKNS_9OptionSetE
FNDA:6,_ZN5neml223LinspacePrimitiveTensorINS_2R3EE16expected_optionsEv
FNDA:1,_ZN5neml223LinspacePrimitiveTensorINS_4SSR4EEC2ERKNS_9OptionSetE
FNDA:0,_ZN5neml223LinspacePrimitiveTensorINS_6SSSSR8EEC2ERKNS_9OptionSetE
FNDA:0,_ZN5neml223LinspacePrimitiveTensorINS_4WWR4EEC2ERKNS_9OptionSetE
FNDA:6,_ZN5neml223LinspacePrimitiveTensorINS_4SFR3EE16expected_optionsEv
FNDA:0,_ZN5neml223LinspacePrimitiveTensorINS_2R8EEC2ERKNS_9OptionSetE
FNDA:6,_ZN5neml223LinspacePrimitiveTensorINS_2R2EE16expected_optionsEv
FNDA:6,_ZN5neml223LinspacePrimitiveTensorINS_6SSSSR8EE16expected_optionsEv
FNDA:6,_ZN5neml223LinspacePrimitiveTensorINS_4SWR4EE16expected_optionsEv
FNDA:1,_ZN5neml223LinspacePrimitiveTensorINS_5SSFR5EEC2ERKNS_9OptionSetE
FNDA:1,_ZN5neml223LinspacePrimitiveTensorINS_4SFR3EEC2ERKNS_9OptionSetE
FNDA:0,_ZN5neml223LinspacePrimitiveTensorINS_4SWR4EEC2ERKNS_9OptionSetE
FNDA:1,_ZN5neml223LinspacePrimitiveTensorINS_3RotEEC2ERKNS_9OptionSetE
FNDA:1,_ZN5neml223LinspacePrimitiveTensorINS_3VecEEC2ERKNS_9OptionSetE
FNDA:0,_ZN5neml223LinspacePrimitiveTensorINS_5SFFR4EEC2ERKNS_9OptionSetE
FNDA:1,_ZN5neml223LinspacePrimitiveTensorINS_3WR2EEC2ERKNS_9OptionSetE
FNDA:1,_ZN5neml223LinspacePrimitiveTensorINS_2R4EEC2ERKNS_9OptionSetE
FNDA:6,_ZN5neml223LinspacePrimitiveTensorINS_3SR2EE16expected_optionsEv
FNF:40
FNH:32
DA:34,120
DA:38,120
DA:40,120
DA:41,120
DA:45,120
DA:46,120
DA:48,120
DA:49,120
DA:51,120
DA:52,120
DA:54,120
DA:55,120
DA:57,120
DA:58,120
DA:60,240
DA:61,120
DA:64,112
DA:65,224
DA:66,224
DA:67,224
DA:68,224
DA:69,224
DA:70,784
DA:72,112
LF:24
LH:24
end_of_record
TN:
SF:/home/runner/work/neml2/neml2/src/neml2/tensors/user_tensors/LinspaceTensor.cxx
FN:33,_ZN5neml214LinspaceTensor16expected_optionsEv
FN:61,_ZN5neml214LinspaceTensorC2ERKNS_9OptionSetE
FNDA:6,_ZN5neml214LinspaceTensor16expected_optionsEv
FNDA:5,_ZN5neml214LinspaceTensorC2ERKNS_9OptionSetE
FNF:2
FNH:2
DA:33,6
DA:35,6
DA:36,6
DA:37,6
DA:39,6
DA:40,6
DA:42,6
DA:43,6
DA:45,6
DA:46,6
DA:48,6
DA:49,6
DA:51,6
DA:52,6
DA:54,6
DA:55,12
DA:56,6
DA:58,6
DA:59,0
DA:61,5
DA:62,10
DA:63,10
DA:64,10
DA:65,10
DA:66,10
DA:67,35
DA:69,10
DA:70,5
DA:71,4
DA:72,5
LF:30
LH:29
end_of_record
TN:
SF:/home/runner/work/neml2/neml2/src/neml2/tensors/user_tensors/LogspacePrimitiveTensor.cxx
FN:34,_ZN5neml223LogspacePrimitiveTensorINS_4SSR4EE16expected_optionsEv
FN:34,_ZN5neml223LogspacePrimitiveTensorINS_2R5EE16expected_optionsEv
FN:34,_ZN5neml223LogspacePrimitiveTensorINS_3WR2EE16expected_optionsEv
FN:34,_ZN5neml223LogspacePrimitiveTensorINS_6ScalarEE16expected_optionsEv
FN:34,_ZN5neml223LogspacePrimitiveTensorINS_3SR2EE16expected_optionsEv
FN:34,_ZN5neml223LogspacePrimitiveTensorINS_10QuaternionEE16expected_optionsEv
FN:34,_ZN5neml223LogspacePrimitiveTensorINS_4SFR3EE16expected_optionsEv
FN:34,_ZN5neml223LogspacePrimitiveTensorINS_5SSFR5EE16expected_optionsEv
FN:34,_ZN5neml223LogspacePrimitiveTensorINS_4WSR4EE16expected_optionsEv
FN:34,_ZN5neml223LogspacePrimitiveTensorINS_2R2EE16expected_optionsEv
FN:34,_ZN5neml223LogspacePrimitiveTensorINS_2R3EE16expected_optionsEv
FN:34,_ZN5neml223LogspacePrimitiveTensorINS_4WWR4EE16expected_optionsEv
FN:34,_ZN5neml223LogspacePrimitiveTensorINS_6SSSSR8EE16expected_optionsEv
FN:34,_ZN5neml223LogspacePrimitiveTensorINS_5SFFR4EE16expected_optionsEv
FN:34,_ZN5neml223LogspacePrimitiveTensorINS_2R8EE16expected_optionsEv
FN:34,_ZN5neml223LogspacePrimitiveTensorINS_11MillerIndexEE16expected_optionsEv
FN:34,_ZN5neml223LogspacePrimitiveTensorINS_4SWR4EE16expected_optionsEv
FN:34,_ZN5neml223LogspacePrimitiveTensorINS_2R4EE16expected_optionsEv
FN:34,_ZN5neml223LogspacePrimitiveTensorINS_3RotEE16expected_optionsEv
FN:34,_ZN5neml223LogspacePrimitiveTensorINS_3VecEE16expected_optionsEv
FN:67,_ZN5neml223LogspacePrimitiveTensorINS_3RotEEC2ERKNS_9OptionSetE
FN:67,_ZN5neml223LogspacePrimitiveTensorINS_2R8EEC2ERKNS_9OptionSetE
FN:67,_ZN5neml223LogspacePrimitiveTensorINS_3SR2EEC2ERKNS_9OptionSetE
FN:67,_ZN5neml223LogspacePrimitiveTensorINS_6SSSSR8EEC2ERKNS_9OptionSetE
FN:67,_ZN5neml223LogspacePrimitiveTensorINS_11MillerIndexEEC2ERKNS_9OptionSetE
FN:67,_ZN5neml223LogspacePrimitiveTensorINS_10QuaternionEEC2ERKNS_9OptionSetE
FN:67,_ZN5neml223LogspacePrimitiveTensorINS_2R2EEC2ERKNS_9OptionSetE
FN:67,_ZN5neml223LogspacePrimitiveTensorINS_2R4EEC2ERKNS_9OptionSetE
FN:67,_ZN5neml223LogspacePrimitiveTensorINS_4SFR3EEC2ERKNS_9OptionSetE
FN:67,_ZN5neml223LogspacePrimitiveTensorINS_3WR2EEC2ERKNS_9OptionSetE
FN:67,_ZN5neml223LogspacePrimitiveTensorINS_4WSR4EEC2ERKNS_9OptionSetE
FN:67,_ZN5neml223LogspacePrimitiveTensorINS_3VecEEC2ERKNS_9OptionSetE
FN:67,_ZN5neml223LogspacePrimitiveTensorINS_4WWR4EEC2ERKNS_9OptionSetE
FN:67,_ZN5neml223LogspacePrimitiveTensorINS_5SFFR4EEC2ERKNS_9OptionSetE
FN:67,_ZN5neml223LogspacePrimitiveTensorINS_2R5EEC2ERKNS_9OptionSetE
FN:67,_ZN5neml223LogspacePrimitiveTensorINS_5SSFR5EEC2ERKNS_9OptionSetE
FN:67,_ZN5neml223LogspacePrimitiveTensorINS_4SSR4EEC2ERKNS_9OptionSetE
FN:67,_ZN5neml223LogspacePrimitiveTensorINS_6ScalarEEC2ERKNS_9OptionSetE
FN:67,_ZN5neml223LogspacePrimitiveTensorINS_2R3EEC2ERKNS_9OptionSetE
FN:67,_ZN5neml223LogspacePrimitiveTensorINS_4SWR4EEC2ERKNS_9OptionSetE
FNDA:6,_ZN5neml223LogspacePrimitiveTensorINS_4SFR3EE16expected_optionsEv
FNDA:6,_ZN5neml223LogspacePrimitiveTensorINS_10QuaternionEE16expected_optionsEv
FNDA:0,_ZN5neml223LogspacePrimitiveTensorINS_11MillerIndexEEC2ERKNS_9OptionSetE
FNDA:6,_ZN5neml223LogspacePrimitiveTensorINS_3SR2EE16expected_optionsEv
FNDA:0,_ZN5neml223LogspacePrimitiveTensorINS_6SSSSR8EEC2ERKNS_9OptionSetE
FNDA:0,_ZN5neml223LogspacePrimitiveTensorINS_4WSR4EEC2ERKNS_9OptionSetE
FNDA:6,_ZN5neml223LogspacePrimitiveTensorINS_4WSR4EE16expected_optionsEv
FNDA:0,_ZN5neml223LogspacePrimitiveTensorINS_3WR2EEC2ERKNS_9OptionSetE
FNDA:1,_ZN5neml223LogspacePrimitiveTensorINS_4SFR3EEC2ERKNS_9OptionSetE
FNDA:1,_ZN5neml223LogspacePrimitiveTensorINS_2R4EEC2ERKNS_9OptionSetE
FNDA:1,_ZN5neml223LogspacePrimitiveTensorINS_2R2EEC2ERKNS_9OptionSetE
FNDA:6,_ZN5neml223LogspacePrimitiveTensorINS_5SSFR5EE16expected_optionsEv
FNDA:0,_ZN5neml223LogspacePrimitiveTensorINS_10QuaternionEEC2ERKNS_9OptionSetE
FNDA:6,_ZN5neml223LogspacePrimitiveTensorINS_4SSR4EE16expected_optionsEv
FNDA:6,_ZN5neml223LogspacePrimitiveTensorINS_6ScalarEE16expected_optionsEv
FNDA:1,_ZN5neml223LogspacePrimitiveTensorINS_3SR2EEC2ERKNS_9OptionSetE
FNDA:0,_ZN5neml223LogspacePrimitiveTensorINS_2R8EEC2ERKNS_9OptionSetE
FNDA:1,_ZN5neml223LogspacePrimitiveTensorINS_3RotEEC2ERKNS_9OptionSetE
FNDA:6,_ZN5neml223LogspacePrimitiveTensorINS_3WR2EE16expected_optionsEv
FNDA:6,_ZN5neml223LogspacePrimitiveTensorINS_2R5EE16expected_optionsEv
FNDA:0,_ZN5neml223LogspacePrimitiveTensorINS_4SWR4EEC2ERKNS_9OptionSetE
FNDA:1,_ZN5neml223LogspacePrimitiveTensorINS_2R3EEC2ERKNS_9OptionSetE
FNDA:6,_ZN5neml223LogspacePrimitiveTensorINS_4SWR4EE16expected_optionsEv
FNDA:6,_ZN5neml223LogspacePrimitiveTensorINS_11MillerIndexEE16expected_optionsEv
FNDA:7,_ZN5neml223LogspacePrimitiveTensorINS_6ScalarEEC2ERKNS_9OptionSetE
FNDA:6,_ZN5neml223LogspacePrimitiveTensorINS_3VecEE16expected_optionsEv
FNDA:6,_ZN5neml223LogspacePrimitiveTensorINS_3RotEE16expected_optionsEv
FNDA:6,_ZN5neml223LogspacePrimitiveTensorINS_2R4EE16expected_optionsEv
FNDA:6,_ZN5neml223LogspacePrimitiveTensorINS_4WWR4EE16expected_optionsEv
FNDA:6,_ZN5neml223LogspacePrimitiveTensorINS_2R3EE16expected_optionsEv
FNDA:6,_ZN5neml223LogspacePrimitiveTensorINS_2R2EE16expected_optionsEv
FNDA:1,_ZN5neml223LogspacePrimitiveTensorINS_3VecEEC2ERKNS_9OptionSetE
FNDA:1,_ZN5neml223LogspacePrimitiveTensorINS_4SSR4EEC2ERKNS_9OptionSetE
FNDA:6,_ZN5neml223LogspacePrimitiveTensorINS_2R8EE16expected_optionsEv
FNDA:1,_ZN5neml223LogspacePrimitiveTensorINS_5SSFR5EEC2ERKNS_9OptionSetE
FNDA:6,_ZN5neml223LogspacePrimitiveTensorINS_5SFFR4EE16expected_optionsEv
FNDA:0,_ZN5neml223LogspacePrimitiveTensorINS_5SFFR4EEC2ERKNS_9OptionSetE
FNDA:1,_ZN5neml223LogspacePrimitiveTensorINS_2R5EEC2ERKNS_9OptionSetE
FNDA:6,_ZN5neml223LogspacePrimitiveTensorINS_6SSSSR8EE16expected_optionsEv
FNDA:0,_ZN5neml223LogspacePrimitiveTensorINS_4WWR4EEC2ERKNS_9OptionSetE
FNF:40
FNH:31
DA:34,120
DA:38,120
DA:40,120
DA:41,120
DA:45,120
DA:46,120
DA:48,120
DA:49,120
DA:51,120
DA:52,120
DA:54,120
DA:55,120
DA:57,120
DA:58,120
DA:60,120
DA:61,120
DA:63,240
DA:64,120
DA:67,17
DA:68,34
DA:69,34
DA:70,34
DA:71,34
DA:72,34
DA:73,34
DA:74,136
DA:76,17
LF:27
LH:27
end_of_record
TN:
SF:/home/runner/work/neml2/neml2/src/neml2/tensors/user_tensors/LogspaceTensor.cxx
FN:33,_ZN5neml214LogspaceTensor16expected_optionsEv
FN:60,_ZN5neml214LogspaceTensorC2ERKNS_9OptionSetE
FNDA:1,_ZN5neml214LogspaceTensorC2ERKNS_9OptionSetE
FNDA:6,_ZN5neml214LogspaceTensor16expected_optionsEv
FNF:2
FNH:2
DA:33,6
DA:35,6
DA:36,6
DA:37,6
DA:39,6
DA:40,6
DA:42,6
DA:43,6
DA:45,6
DA:46,6
DA:48,6
DA:49,6
DA:51,6
DA:52,6
DA:54,6
DA:55,6
DA:57,6
DA:58,0
DA:60,1
DA:61,2
DA:62,2
DA:63,2
DA:64,2
DA:65,2
DA:66,2
DA:67,8
DA:69,1
LF:27
LH:26
end_of_record
TN:
SF:/home/runner/work/neml2/neml2/src/neml2/tensors/user_tensors/OnesPrimitiveTensor.cxx
FN:34,_ZN5neml219OnesPrimitiveTensorINS_4SFR3EE16expected_optionsEv
FN:34,_ZN5neml219OnesPrimitiveTensorINS_3VecEE16expected_optionsEv
FN:34,_ZN5neml219OnesPrimitiveTensorINS_2R3EE16expected_optionsEv
FN:34,_ZN5neml219OnesPrimitiveTensorINS_6ScalarEE16expected_optionsEv
FN:34,_ZN5neml219OnesPrimitiveTensorINS_6SSSSR8EE16expected_optionsEv
FN:34,_ZN5neml219OnesPrimitiveTensorINS_3SR2EE16expected_optionsEv
FN:34,_ZN5neml219OnesPrimitiveTensorINS_10QuaternionEE16expected_optionsEv
FN:34,_ZN5neml219OnesPrimitiveTensorINS_2R5EE16expected_optionsEv
FN:34,_ZN5neml219OnesPrimitiveTensorINS_3WR2EE16expected_optionsEv
FN:34,_ZN5neml219OnesPrimitiveTensorINS_5SFFR4EE16expected_optionsEv
FN:34,_ZN5neml219OnesPrimitiveTensorINS_3RotEE16expected_optionsEv
FN:34,_ZN5neml219OnesPrimitiveTensorINS_2R8EE16expected_optionsEv
FN:34,_ZN5neml219OnesPrimitiveTensorINS_2R2EE16expected_optionsEv
FN:34,_ZN5neml219OnesPrimitiveTensorINS_4SSR4EE16expected_optionsEv
FN:34,_ZN5neml219OnesPrimitiveTensorINS_11MillerIndexEE16expected_optionsEv
FN:34,_ZN5neml219OnesPrimitiveTensorINS_4WSR4EE16expected_optionsEv
FN:34,_ZN5neml219OnesPrimitiveTensorINS_4SWR4EE16expected_optionsEv
FN:34,_ZN5neml219OnesPrimitiveTensorINS_5SSFR5EE16expected_optionsEv
FN:34,_ZN5neml219OnesPrimitiveTensorINS_4WWR4EE16expected_optionsEv
FN:34,_ZN5neml219OnesPrimitiveTensorINS_2R4EE16expected_optionsEv
FN:50,_ZN5neml219OnesPrimitiveTensorINS_2R4EEC2ERKNS_9OptionSetE
FN:50,_ZN5neml219OnesPrimitiveTensorINS_3WR2EEC2ERKNS_9OptionSetE
FN:50,_ZN5neml219OnesPrimitiveTensorINS_4SFR3EEC2ERKNS_9OptionSetE
FN:50,_ZN5neml219OnesPrimitiveTensorINS_2R5EEC2ERKNS_9OptionSetE
FN:50,_ZN5neml219OnesPrimitiveTensorINS_4WSR4EEC2ERKNS_9OptionSetE
FN:50,_ZN5neml219OnesPrimitiveTensorINS_4SWR4EEC2ERKNS_9OptionSetE
FN:50,_ZN5neml219OnesPrimitiveTensorINS_2R2EEC2ERKNS_9OptionSetE
FN:50,_ZN5neml219OnesPrimitiveTensorINS_6SSSSR8EEC2ERKNS_9OptionSetE
FN:50,_ZN5neml219OnesPrimitiveTensorINS_3VecEEC2ERKNS_9OptionSetE
FN:50,_ZN5neml219OnesPrimitiveTensorINS_2R3EEC2ERKNS_9OptionSetE
FN:50,_ZN5neml219OnesPrimitiveTensorINS_6ScalarEEC2ERKNS_9OptionSetE
FN:50,_ZN5neml219OnesPrimitiveTensorINS_4SSR4EEC2ERKNS_9OptionSetE
FN:50,_ZN5neml219OnesPrimitiveTensorINS_11MillerIndexEEC2ERKNS_9OptionSetE
FN:50,_ZN5neml219OnesPrimitiveTensorINS_10QuaternionEEC2ERKNS_9OptionSetE
FN:50,_ZN5neml219OnesPrimitiveTensorINS_5SFFR4EEC2ERKNS_9OptionSetE
FN:50,_ZN5neml219OnesPrimitiveTensorINS_4WWR4EEC2ERKNS_9OptionSetE
FN:50,_ZN5neml219OnesPrimitiveTensorINS_3RotEEC2ERKNS_9OptionSetE
FN:50,_ZN5neml219OnesPrimitiveTensorINS_5SSFR5EEC2ERKNS_9OptionSetE
FN:50,_ZN5neml219OnesPrimitiveTensorINS_3SR2EEC2ERKNS_9OptionSetE
FN:50,_ZN5neml219OnesPrimitiveTensorINS_2R8EEC2ERKNS_9OptionSetE
FNDA:6,_ZN5neml219OnesPrimitiveTensorINS_2R2EE16expected_optionsEv
FNDA:6,_ZN5neml219OnesPrimitiveTensorINS_11MillerIndexEE16expected_optionsEv
FNDA:0,_ZN5neml219OnesPrimitiveTensorINS_11MillerIndexEEC2ERKNS_9OptionSetE
FNDA:6,_ZN5neml219OnesPrimitiveTensorINS_4SSR4EE16expected_optionsEv
FNDA:1,_ZN5neml219OnesPrimitiveTensorINS_6ScalarEEC2ERKNS_9OptionSetE
FNDA:1,_ZN5neml219OnesPrimitiveTensorINS_4SSR4EEC2ERKNS_9OptionSetE
FNDA:0,_ZN5neml219OnesPrimitiveTensorINS_4WWR4EEC2ERKNS_9OptionSetE
FNDA:6,_ZN5neml219OnesPrimitiveTensorINS_4WSR4EE16expected_optionsEv
FNDA:6,_ZN5neml219OnesPrimitiveTensorINS_4SWR4EE16expected_optionsEv
FNDA:0,_ZN5neml219OnesPrimitiveTensorINS_5SFFR4EEC2ERKNS_9OptionSetE
FNDA:0,_ZN5neml219OnesPrimitiveTensorINS_10QuaternionEEC2ERKNS_9OptionSetE
FNDA:0,_ZN5neml219OnesPrimitiveTensorINS_2R8EEC2ERKNS_9OptionSetE
FNDA:6,_ZN5neml219OnesPrimitiveTensorINS_2R4EE16expected_optionsEv
FNDA:6,_ZN5neml219OnesPrimitiveTensorINS_4WWR4EE16expected_optionsEv
FNDA:1,_ZN5neml219OnesPrimitiveTensorINS_3SR2EEC2ERKNS_9OptionSetE
FNDA:1,_ZN5neml219OnesPrimitiveTensorINS_3RotEEC2ERKNS_9OptionSetE
FNDA:1,_ZN5neml219OnesPrimitiveTensorINS_5SSFR5EEC2ERKNS_9OptionSetE
FNDA:6,_ZN5neml219OnesPrimitiveTensorINS_5SSFR5EE16expected_optionsEv
FNDA:0,_ZN5neml219OnesPrimitiveTensorINS_3WR2EEC2ERKNS_9OptionSetE
FNDA:1,_ZN5neml219OnesPrimitiveTensorINS_4SFR3EEC2ERKNS_9OptionSetE
FNDA:6,_ZN5neml219OnesPrimitiveTensorINS_3VecEE16expected_optionsEv
FNDA:1,_ZN5neml219OnesPrimitiveTensorINS_2R5EEC2ERKNS_9OptionSetE
FNDA:1,_ZN5neml219OnesPrimitiveTensorINS_2R4EEC2ERKNS_9OptionSetE
FNDA:6,_ZN5neml219OnesPrimitiveTensorINS_4SFR3EE16expected_optionsEv
FNDA:6,_ZN5neml219OnesPrimitiveTensorINS_6SSSSR8EE16expected_optionsEv
FNDA:0,_ZN5neml219OnesPrimitiveTensorINS_4SWR4EEC2ERKNS_9OptionSetE
FNDA:6,_ZN5neml219OnesPrimitiveTensorINS_3SR2EE16expected_optionsEv
FNDA:6,_ZN5neml219OnesPrimitiveTensorINS_6ScalarEE16expected_optionsEv
FNDA:6,_ZN5neml219OnesPrimitiveTensorINS_2R3EE16expected_optionsEv
FNDA:0,_ZN5neml219OnesPrimitiveTensorINS_4WSR4EEC2ERKNS_9OptionSetE
FNDA:6,_ZN5neml219OnesPrimitiveTensorINS_2R5EE16expected_optionsEv
FNDA:6,_ZN5neml219OnesPrimitiveTensorINS_3WR2EE16expected_optionsEv
FNDA:0,_ZN5neml219OnesPrimitiveTensorINS_6SSSSR8EEC2ERKNS_9OptionSetE
FNDA:6,_ZN5neml219OnesPrimitiveTensorINS_5SFFR4EE16expected_optionsEv
FNDA:6,_ZN5neml219OnesPrimitiveTensorINS_10QuaternionEE16expected_optionsEv
FNDA:1,_ZN5neml219OnesPrimitiveTensorINS_2R2EEC2ERKNS_9OptionSetE
FNDA:1,_ZN5neml219OnesPrimitiveTensorINS_2R3EEC2ERKNS_9OptionSetE
FNDA:6,_ZN5neml219OnesPrimitiveTensorINS_2R8EE16expected_optionsEv
FNDA:6,_ZN5neml219OnesPrimitiveTensorINS_3RotEE16expected_optionsEv
FNDA:1,_ZN5neml219OnesPrimitiveTensorINS_3VecEEC2ERKNS_9OptionSetE
FNF:40
FNH:31
DA:34,120
DA:38,120
DA:40,120
DA:41,120
DA:43,120
DA:44,120
DA:46,240
DA:47,120
DA:50,11
DA:51,11
DA:52,11
DA:54,11
LF:12
LH:12
end_of_record
TN:
SF:/home/runner/work/neml2/neml2/src/neml2/tensors/user_tensors/OnesTensor.cxx
FN:32,_ZN5neml210OnesTensor16expected_optionsEv
FN:46,_ZN5neml210OnesTensorC2ERKNS_9OptionSetE
FNDA:6,_ZN5neml210OnesTensor16expected_optionsEv
FNDA:1,_ZN5neml210OnesTensorC2ERKNS_9OptionSetE
FNF:2
FNH:2
DA:32,6
DA:34,6
DA:35,6
DA:37,6
DA:38,6
DA:40,6
DA:41,6
DA:43,6
DA:44,0
DA:46,1
DA:49,1
DA:50,1
DA:52,1
LF:13
LH:12
end_of_record
TN:
SF:/home/runner/work/neml2/neml2/src/neml2/tensors/user_tensors/Orientation.cxx
FN:35,_ZN5neml211Orientation16expected_optionsEv
FN:72,_ZN5neml211OrientationC2ERKNS_9OptionSetE
FN:79,_ZNK5neml211Orientation4fillERKNS_9OptionSetE
FN:107,_ZNK5neml211Orientation16expand_as_neededERKNS_3RotEj
FNDA:6,_ZNK5neml211Orientation4fillERKNS_9OptionSetE
FNDA:6,_ZN5neml211Orientation16expected_optionsEv
FNDA:6,_ZN5neml211OrientationC2ERKNS_9OptionSetE
FNDA:6,_ZNK5neml211Orientation16expand_as_neededERKNS_3RotEj
FNF:4
FNH:4
DA:35,6
DA:37,6
DA:39,6
DA:43,6
DA:45,6
DA:46,12
DA:47,6
DA:49,6
DA:50,6
DA:52,6
DA:53,6
DA:55,6
DA:56,6
DA:58,6
DA:59,12
DA:61,6
DA:63,6
DA:64,6
DA:66,6
DA:67,6
DA:69,6
DA:70,0
DA:72,6
DA:74,6
DA:76,6
DA:79,6
DA:81,12
DA:83,6
DA:84,6
DA:86,12
DA:87,24
DA:88,12
DA:91,18
DA:93,0
DA:95,0
DA:98,0
DA:100,6
DA:101,0
DA:103,6
DA:104,6
DA:107,6
DA:109,6
DA:110,0
DA:112,6
LF:44
LH:38
end_of_record
TN:
SF:/home/runner/work/neml2/neml2/src/neml2/tensors/user_tensors/UserPrimitiveTensor.cxx
FN:34,_ZN5neml219UserPrimitiveTensorINS_5SFFR4EE16expected_optionsEv
FN:34,_ZN5neml219UserPrimitiveTensorINS_2R5EE16expected_optionsEv
FN:34,_ZN5neml219UserPrimitiveTensorINS_4SSR4EE16expected_optionsEv
FN:34,_ZN5neml219UserPrimitiveTensorINS_4WWR4EE16expected_optionsEv
FN:34,_ZN5neml219UserPrimitiveTensorINS_6ScalarEE16expected_optionsEv
FN:34,_ZN5neml219UserPrimitiveTensorINS_2R2EE16expected_optionsEv
FN:34,_ZN5neml219UserPrimitiveTensorINS_4SFR3EE16expected_optionsEv
FN:34,_ZN5neml219UserPrimitiveTensorINS_4WSR4EE16expected_optionsEv
FN:34,_ZN5neml219UserPrimitiveTensorINS_6SSSSR8EE16expected_optionsEv
FN:34,_ZN5neml219UserPrimitiveTensorINS_2R8EE16expected_optionsEv
FN:34,_ZN5neml219UserPrimitiveTensorINS_4SWR4EE16expected_optionsEv
FN:34,_ZN5neml219UserPrimitiveTensorINS_10QuaternionEE16expected_optionsEv
FN:34,_ZN5neml219UserPrimitiveTensorINS_2R4EE16expected_optionsEv
FN:34,_ZN5neml219UserPrimitiveTensorINS_3SR2EE16expected_optionsEv
FN:34,_ZN5neml219UserPrimitiveTensorINS_3RotEE16expected_optionsEv
FN:34,_ZN5neml219UserPrimitiveTensorINS_3VecEE16expected_optionsEv
FN:34,_ZN5neml219UserPrimitiveTensorINS_2R3EE16expected_optionsEv
FN:34,_ZN5neml219UserPrimitiveTensorINS_5SSFR5EE16expected_optionsEv
FN:34,_ZN5neml219UserPrimitiveTensorINS_11MillerIndexEE16expected_optionsEv
FN:34,_ZN5neml219UserPrimitiveTensorINS_3WR2EE16expected_optionsEv
FN:55,_ZN5neml219UserPrimitiveTensorINS_5SSFR5EEC2ERKNS_9OptionSetE
FN:55,_ZN5neml219UserPrimitiveTensorINS_4SWR4EEC2ERKNS_9OptionSetE
FN:55,_ZN5neml219UserPrimitiveTensorINS_4SFR3EEC2ERKNS_9OptionSetE
FN:55,_ZN5neml219UserPrimitiveTensorINS_3RotEEC2ERKNS_9OptionSetE
FN:55,_ZN5neml219UserPrimitiveTensorINS_2R4EEC2ERKNS_9OptionSetE
FN:55,_ZN5neml219UserPrimitiveTensorINS_6SSSSR8EEC2ERKNS_9OptionSetE
FN:55,_ZN5neml219UserPrimitiveTensorINS_11MillerIndexEEC2ERKNS_9OptionSetE
FN:55,_ZN5neml219UserPrimitiveTensorINS_3WR2EEC2ERKNS_9OptionSetE
FN:55,_ZN5neml219UserPrimitiveTensorINS_3VecEEC2ERKNS_9OptionSetE
FN:55,_ZN5neml219UserPrimitiveTensorINS_3SR2EEC2ERKNS_9OptionSetE
FN:55,_ZN5neml219UserPrimitiveTensorINS_10QuaternionEEC2ERKNS_9OptionSetE
FN:55,_ZN5neml219UserPrimitiveTensorINS_6ScalarEEC2ERKNS_9OptionSetE
FN:55,_ZN5neml219UserPrimitiveTensorINS_2R2EEC2ERKNS_9OptionSetE
FN:55,_ZN5neml219UserPrimitiveTensorINS_2R3EEC2ERKNS_9OptionSetE
FN:55,_ZN5neml219UserPrimitiveTensorINS_5SFFR4EEC2ERKNS_9OptionSetE
FN:55,_ZN5neml219UserPrimitiveTensorINS_2R8EEC2ERKNS_9OptionSetE
FN:55,_ZN5neml219UserPrimitiveTensorINS_4WWR4EEC2ERKNS_9OptionSetE
FN:55,_ZN5neml219UserPrimitiveTensorINS_4WSR4EEC2ERKNS_9OptionSetE
FN:55,_ZN5neml219UserPrimitiveTensorINS_2R5EEC2ERKNS_9OptionSetE
FN:55,_ZN5neml219UserPrimitiveTensorINS_4SSR4EEC2ERKNS_9OptionSetE
FNDA:6,_ZN5neml219UserPrimitiveTensorINS_4WSR4EE16expected_optionsEv
FNDA:6,_ZN5neml219UserPrimitiveTensorINS_6SSSSR8EE16expected_optionsEv
FNDA:0,_ZN5neml219UserPrimitiveTensorINS_6SSSSR8EEC2ERKNS_9OptionSetE
FNDA:0,_ZN5neml219UserPrimitiveTensorINS_11MillerIndexEEC2ERKNS_9OptionSetE
FNDA:6,_ZN5neml219UserPrimitiveTensorINS_2R2EE16expected_optionsEv
FNDA:0,_ZN5neml219UserPrimitiveTensorINS_4SWR4EEC2ERKNS_9OptionSetE
FNDA:6,_ZN5neml219UserPrimitiveTensorINS_4SFR3EE16expected_optionsEv
FNDA:1,_ZN5neml219UserPrimitiveTensorINS_4SFR3EEC2ERKNS_9OptionSetE
FNDA:1,_ZN5neml219UserPrimitiveTensorINS_3RotEEC2ERKNS_9OptionSetE
FNDA:1,_ZN5neml219UserPrimitiveTensorINS_2R4EEC2ERKNS_9OptionSetE
FNDA:6,_ZN5neml219UserPrimitiveTensorINS_4WWR4EE16expected_optionsEv
FNDA:1,_ZN5neml219UserPrimitiveTensorINS_5SSFR5EEC2ERKNS_9OptionSetE
FNDA:6,_ZN5neml219UserPrimitiveTensorINS_6ScalarEE16expected_optionsEv
FNDA:6,_ZN5neml219UserPrimitiveTensorINS_5SFFR4EE16expected_optionsEv
FNDA:6,_ZN5neml219UserPrimitiveTensorINS_2R5EE16expected_optionsEv
FNDA:6,_ZN5neml219UserPrimitiveTensorINS_4SSR4EE16expected_optionsEv
FNDA:6,_ZN5neml219UserPrimitiveTensorINS_3VecEE16expected_optionsEv
FNDA:0,_ZN5neml219UserPrimitiveTensorINS_4WSR4EEC2ERKNS_9OptionSetE
FNDA:6,_ZN5neml219UserPrimitiveTensorINS_2R3EE16expected_optionsEv
FNDA:6,_ZN5neml219UserPrimitiveTensorINS_5SSFR5EE16expected_optionsEv
FNDA:6,_ZN5neml219UserPrimitiveTensorINS_11MillerIndexEE16expected_optionsEv
FNDA:1,_ZN5neml219UserPrimitiveTensorINS_2R5EEC2ERKNS_9OptionSetE
FNDA:13,_ZN5neml219UserPrimitiveTensorINS_4SSR4EEC2ERKNS_9OptionSetE
FNDA:6,_ZN5neml219UserPrimitiveTensorINS_3WR2EE16expected_optionsEv
FNDA:0,_ZN5neml219UserPrimitiveTensorINS_5SFFR4EEC2ERKNS_9OptionSetE
FNDA:1,_ZN5neml219UserPrimitiveTensorINS_2R2EEC2ERKNS_9OptionSetE
FNDA:1,_ZN5neml219UserPrimitiveTensorINS_2R3EEC2ERKNS_9OptionSetE
FNDA:6,_ZN5neml219UserPrimitiveTensorINS_3SR2EE16expected_optionsEv
FNDA:0,_ZN5neml219UserPrimitiveTensorINS_2R8EEC2ERKNS_9OptionSetE
FNDA:0,_ZN5neml219UserPrimitiveTensorINS_4WWR4EEC2ERKNS_9OptionSetE
FNDA:6,_ZN5neml219UserPrimitiveTensorINS_3RotEE16expected_optionsEv
FNDA:23,_ZN5neml219UserPrimitiveTensorINS_3VecEEC2ERKNS_9OptionSetE
FNDA:2,_ZN5neml219UserPrimitiveTensorINS_3SR2EEC2ERKNS_9OptionSetE
FNDA:0,_ZN5neml219UserPrimitiveTensorINS_10QuaternionEEC2ERKNS_9OptionSetE
FNDA:6,_ZN5neml219UserPrimitiveTensorINS_2R4EE16expected_optionsEv
FNDA:60,_ZN5neml219UserPrimitiveTensorINS_6ScalarEEC2ERKNS_9OptionSetE
FNDA:0,_ZN5neml219UserPrimitiveTensorINS_3WR2EEC2ERKNS_9OptionSetE
FNDA:6,_ZN5neml219UserPrimitiveTensorINS_2R8EE16expected_optionsEv
FNDA:6,_ZN5neml219UserPrimitiveTensorINS_4SWR4EE16expected_optionsEv
FNDA:6,_ZN5neml219UserPrimitiveTensorINS_10QuaternionEE16expected_optionsEv
FNF:40
FNH:31
DA:34,120
DA:38,120
DA:40,120
DA:41,120
DA:45,120
DA:46,120
DA:48,120
DA:49,120
DA:51,240
DA:52,120
DA:55,105
DA:56,105
DA:57,105
DA:59,210
DA:60,105
DA:61,105
DA:62,118
DA:63,46
DA:64,92
DA:66,0
DA:68,0
DA:70,0
DA:72,0
DA:73,105
LF:24
LH:20
end_of_record
TN:
SF:/home/runner/work/neml2/neml2/src/neml2/tensors/user_tensors/UserTensor.cxx
FN:32,_ZN5neml210UserTensor16expected_optionsEv
FN:50,_ZN5neml210UserTensorC2ERKNS_9OptionSetE
FNDA:9,_ZN5neml210UserTensorC2ERKNS_9OptionSetE
FNDA:6,_ZN5neml210UserTensor16expected_optionsEv
FNF:2
FNH:2
DA:32,6
DA:34,6
DA:35,6
DA:36,6
DA:38,6
DA:39,6
DA:41,6
DA:42,6
DA:44,6
DA:45,6
DA:47,6
DA:48,0
DA:50,9
DA:53,9
DA:54,9
DA:56,18
DA:57,9
DA:58,9
DA:59,12
DA:60,3
DA:61,4
DA:63,1
DA:65,1
DA:67,2
DA:69,2
DA:70,12
LF:26
LH:25
end_of_record
TN:
SF:/home/runner/work/neml2/neml2/src/neml2/tensors/user_tensors/UserTensorBase.cxx
FN:30,_ZN5neml214UserTensorBase16expected_optionsEv
FN:37,_ZN5neml214UserTensorBaseC2ERKNS_9OptionSetE
FNDA:930,_ZN5neml214UserTensorBase16expected_optionsEv
FNDA:851,_ZN5neml214UserTensorBaseC2ERKNS_9OptionSetE
FNF:2
FNH:2
DA:30,930
DA:32,930
DA:33,930
DA:34,930
DA:35,0
DA:37,851
DA:38,851
DA:40,851
LF:8
LH:7
end_of_record
TN:
SF:/home/runner/work/neml2/neml2/src/neml2/tensors/user_tensors/ZerosPrimitiveTensor.cxx
FN:34,_ZN5neml220ZerosPrimitiveTensorINS_5SFFR4EE16expected_optionsEv
FN:34,_ZN5neml220ZerosPrimitiveTensorINS_5SSFR5EE16expected_optionsEv
FN:34,_ZN5neml220ZerosPrimitiveTensorINS_3RotEE16expected_optionsEv
FN:34,_ZN5neml220ZerosPrimitiveTensorINS_10QuaternionEE16expected_optionsEv
FN:34,_ZN5neml220ZerosPrimitiveTensorINS_4WSR4EE16expected_optionsEv
FN:34,_ZN5neml220ZerosPrimitiveTensorINS_2R3EE16expected_optionsEv
FN:34,_ZN5neml220ZerosPrimitiveTensorINS_11MillerIndexEE16expected_optionsEv
FN:34,_ZN5neml220ZerosPrimitiveTensorINS_3WR2EE16expected_optionsEv
FN:34,_ZN5neml220ZerosPrimitiveTensorINS_2R4EE16expected_optionsEv
FN:34,_ZN5neml220ZerosPrimitiveTensorINS_6ScalarEE16expected_optionsEv
FN:34,_ZN5neml220ZerosPrimitiveTensorINS_4WWR4EE16expected_optionsEv
FN:34,_ZN5neml220ZerosPrimitiveTensorINS_4SSR4EE16expected_optionsEv
FN:34,_ZN5neml220ZerosPrimitiveTensorINS_4SWR4EE16expected_optionsEv
FN:34,_ZN5neml220ZerosPrimitiveTensorINS_2R2EE16expected_optionsEv
FN:34,_ZN5neml220ZerosPrimitiveTensorINS_3SR2EE16expected_optionsEv
FN:34,_ZN5neml220ZerosPrimitiveTensorINS_3VecEE16expected_optionsEv
FN:34,_ZN5neml220ZerosPrimitiveTensorINS_2R5EE16expected_optionsEv
FN:34,_ZN5neml220ZerosPrimitiveTensorINS_4SFR3EE16expected_optionsEv
FN:34,_ZN5neml220ZerosPrimitiveTensorINS_6SSSSR8EE16expected_optionsEv
FN:34,_ZN5neml220ZerosPrimitiveTensorINS_2R8EE16expected_optionsEv
FN:50,_ZN5neml220ZerosPrimitiveTensorINS_6SSSSR8EEC2ERKNS_9OptionSetE
FN:50,_ZN5neml220ZerosPrimitiveTensorINS_5SSFR5EEC2ERKNS_9OptionSetE
FN:50,_ZN5neml220ZerosPrimitiveTensorINS_11MillerIndexEEC2ERKNS_9OptionSetE
FN:50,_ZN5neml220ZerosPrimitiveTensorINS_3VecEEC2ERKNS_9OptionSetE
FN:50,_ZN5neml220ZerosPrimitiveTensorINS_2R8EEC2ERKNS_9OptionSetE
FN:50,_ZN5neml220ZerosPrimitiveTensorINS_4WSR4EEC2ERKNS_9OptionSetE
FN:50,_ZN5neml220ZerosPrimitiveTensorINS_6ScalarEEC2ERKNS_9OptionSetE
FN:50,_ZN5neml220ZerosPrimitiveTensorINS_2R3EEC2ERKNS_9OptionSetE
FN:50,_ZN5neml220ZerosPrimitiveTensorINS_3SR2EEC2ERKNS_9OptionSetE
FN:50,_ZN5neml220ZerosPrimitiveTensorINS_2R4EEC2ERKNS_9OptionSetE
FN:50,_ZN5neml220ZerosPrimitiveTensorINS_4WWR4EEC2ERKNS_9OptionSetE
FN:50,_ZN5neml220ZerosPrimitiveTensorINS_3WR2EEC2ERKNS_9OptionSetE
FN:50,_ZN5neml220ZerosPrimitiveTensorINS_4SFR3EEC2ERKNS_9OptionSetE
FN:50,_ZN5neml220ZerosPrimitiveTensorINS_2R2EEC2ERKNS_9OptionSetE
FN:50,_ZN5neml220ZerosPrimitiveTensorINS_2R5EEC2ERKNS_9OptionSetE
FN:50,_ZN5neml220ZerosPrimitiveTensorINS_5SFFR4EEC2ERKNS_9OptionSetE
FN:50,_ZN5neml220ZerosPrimitiveTensorINS_4SWR4EEC2ERKNS_9OptionSetE
FN:50,_ZN5neml220ZerosPrimitiveTensorINS_3RotEEC2ERKNS_9OptionSetE
FN:50,_ZN5neml220ZerosPrimitiveTensorINS_10QuaternionEEC2ERKNS_9OptionSetE
FN:50,_ZN5neml220ZerosPrimitiveTensorINS_4SSR4EEC2ERKNS_9OptionSetE
FNDA:0,_ZN5neml220ZerosPrimitiveTensorINS_10QuaternionEEC2ERKNS_9OptionSetE
FNDA:1,_ZN5neml220ZerosPrimitiveTensorINS_3RotEEC2ERKNS_9OptionSetE
FNDA:1,_ZN5neml220ZerosPrimitiveTensorINS_4SSR4EEC2ERKNS_9OptionSetE
FNDA:1,_ZN5neml220ZerosPrimitiveTensorINS_2R2EEC2ERKNS_9OptionSetE
FNDA:0,_ZN5neml220ZerosPrimitiveTensorINS_5SFFR4EEC2ERKNS_9OptionSetE
FNDA:6,_ZN5neml220ZerosPrimitiveTensorINS_2R8EE16expected_optionsEv
FNDA:0,_ZN5neml220ZerosPrimitiveTensorINS_4SWR4EEC2ERKNS_9OptionSetE
FNDA:6,_ZN5neml220ZerosPrimitiveTensorINS_6SSSSR8EE16expected_optionsEv
FNDA:6,_ZN5neml220ZerosPrimitiveTensorINS_4SFR3EE16expected_optionsEv
FNDA:6,_ZN5neml220ZerosPrimitiveTensorINS_2R5EE16expected_optionsEv
FNDA:1,_ZN5neml220ZerosPrimitiveTensorINS_2R5EEC2ERKNS_9OptionSetE
FNDA:0,_ZN5neml220ZerosPrimitiveTensorINS_3WR2EEC2ERKNS_9OptionSetE
FNDA:6,_ZN5neml220ZerosPrimitiveTensorINS_4SWR4EE16expected_optionsEv
FNDA:6,_ZN5neml220ZerosPrimitiveTensorINS_2R2EE16expected_optionsEv
FNDA:6,_ZN5neml220ZerosPrimitiveTensorINS_4WWR4EE16expected_optionsEv
FNDA:6,_ZN5neml220ZerosPrimitiveTensorINS_4SSR4EE16expected_optionsEv
FNDA:1,_ZN5neml220ZerosPrimitiveTensorINS_4SFR3EEC2ERKNS_9OptionSetE
FNDA:6,_ZN5neml220ZerosPrimitiveTensorINS_3VecEE16expected_optionsEv
FNDA:6,_ZN5neml220ZerosPrimitiveTensorINS_3SR2EE16expected_optionsEv
FNDA:1,_ZN5neml220ZerosPrimitiveTensorINS_2R4EEC2ERKNS_9OptionSetE
FNDA:1,_ZN5neml220ZerosPrimitiveTensorINS_3SR2EEC2ERKNS_9OptionSetE
FNDA:0,_ZN5neml220ZerosPrimitiveTensorINS_4WWR4EEC2ERKNS_9OptionSetE
FNDA:6,_ZN5neml220ZerosPrimitiveTensorINS_6ScalarEE16expected_optionsEv
FNDA:6,_ZN5neml220ZerosPrimitiveTensorINS_3WR2EE16expected_optionsEv
FNDA:6,_ZN5neml220ZerosPrimitiveTensorINS_2R4EE16expected_optionsEv
FNDA:6,_ZN5neml220ZerosPrimitiveTensorINS_11MillerIndexEE16expected_optionsEv
FNDA:1,_ZN5neml220ZerosPrimitiveTensorINS_2R3EEC2ERKNS_9OptionSetE
FNDA:6,_ZN5neml220ZerosPrimitiveTensorINS_2R3EE16expected_optionsEv
FNDA:1,_ZN5neml220ZerosPrimitiveTensorINS_6ScalarEEC2ERKNS_9OptionSetE
FNDA:0,_ZN5neml220ZerosPrimitiveTensorINS_4WSR4EEC2ERKNS_9OptionSetE
FNDA:0,_ZN5neml220ZerosPrimitiveTensorINS_2R8EEC2ERKNS_9OptionSetE
FNDA:1,_ZN5neml220ZerosPrimitiveTensorINS_3VecEEC2ERKNS_9OptionSetE
FNDA:0,_ZN5neml220ZerosPrimitiveTensorINS_11MillerIndexEEC2ERKNS_9OptionSetE
FNDA:6,_ZN5neml220ZerosPrimitiveTensorINS_4WSR4EE16expected_optionsEv
FNDA:6,_ZN5neml220ZerosPrimitiveTensorINS_10QuaternionEE16expected_optionsEv
FNDA:6,_ZN5neml220ZerosPrimitiveTensorINS_5SSFR5EE16expected_optionsEv
FNDA:0,_ZN5neml220ZerosPrimitiveTensorINS_6SSSSR8EEC2ERKNS_9OptionSetE
FNDA:6,_ZN5neml220ZerosPrimitiveTensorINS_5SFFR4EE16expected_optionsEv
FNDA:6,_ZN5neml220ZerosPrimitiveTensorINS_3RotEE16expected_optionsEv
FNDA:1,_ZN5neml220ZerosPrimitiveTensorINS_5SSFR5EEC2ERKNS_9OptionSetE
FNF:40
FNH:31
DA:34,120
DA:38,120
DA:40,120
DA:41,120
DA:43,120
DA:44,120
DA:46,240
DA:47,120
DA:50,11
DA:51,11
DA:52,11
DA:54,11
LF:12
LH:12
end_of_record
TN:
SF:/home/runner/work/neml2/neml2/src/neml2/tensors/user_tensors/ZerosTensor.cxx
FN:32,_ZN5neml211ZerosTensor16expected_optionsEv
FN:46,_ZN5neml211ZerosTensorC2ERKNS_9OptionSetE
FNDA:1,_ZN5neml211ZerosTensorC2ERKNS_9OptionSetE
FNDA:6,_ZN5neml211ZerosTensor16expected_optionsEv
FNF:2
FNH:2
DA:32,6
DA:34,6
DA:35,6
DA:37,6
DA:38,6
DA:40,6
DA:41,6
DA:43,6
DA:44,0
DA:46,1
DA:49,1
DA:50,1
DA:52,1
LF:13
LH:12
end_of_record
